
AVRASM ver. 2.1.30  D:\project\vending\code\full\glcd_keypad_sim\Debug\List\glcd_keypad_sim.asm Fri Sep 19 16:42:47 2025

D:\project\vending\code\full\glcd_keypad_sim\Debug\List\glcd_keypad_sim.asm(1089): warning: Register r4 already defined by the .DEF directive
D:\project\vending\code\full\glcd_keypad_sim\Debug\List\glcd_keypad_sim.asm(1090): warning: Register r5 already defined by the .DEF directive
D:\project\vending\code\full\glcd_keypad_sim\Debug\List\glcd_keypad_sim.asm(1091): warning: Register r6 already defined by the .DEF directive
D:\project\vending\code\full\glcd_keypad_sim\Debug\List\glcd_keypad_sim.asm(1092): warning: Register r7 already defined by the .DEF directive
D:\project\vending\code\full\glcd_keypad_sim\Debug\List\glcd_keypad_sim.asm(1093): warning: Register r8 already defined by the .DEF directive
D:\project\vending\code\full\glcd_keypad_sim\Debug\List\glcd_keypad_sim.asm(1094): warning: Register r9 already defined by the .DEF directive
D:\project\vending\code\full\glcd_keypad_sim\Debug\List\glcd_keypad_sim.asm(1095): warning: Register r11 already defined by the .DEF directive
                 
                 
                 ;CodeVisionAVR C Compiler V3.14 Advanced
                 ;(C) Copyright 1998-2014 Pavel Haiduc, HP InfoTech s.r.l.
                 ;http://www.hpinfotech.com
                 
                 ;Build configuration    : Debug
                 ;Chip type              : ATmega64A
                 ;Program type           : Application
                 ;Clock frequency        : 8.000000 MHz
                 ;Memory model           : Small
                 ;Optimize for           : Size
                 ;(s)printf features     : int, width
                 ;(s)scanf features      : int, width
                 ;External RAM size      : 0
                 ;Data Stack size        : 1024 byte(s)
                 ;Heap size              : 0 byte(s)
                 ;Promote 'char' to 'int': Yes
                 ;'char' is unsigned     : Yes
                 ;8 bit enums            : Yes
                 ;Global 'const' stored in FLASH: Yes
                 ;Enhanced function parameter passing: Yes
                 ;Enhanced core instructions: On
                 ;Automatic register allocation for global variables: On
                 ;Smart register allocation: On
                 
                 	#define _MODEL_SMALL_
                 
                 	#pragma AVRPART ADMIN PART_NAME ATmega64A
                 	#pragma AVRPART MEMORY PROG_FLASH 65536
                 	#pragma AVRPART MEMORY EEPROM 2048
                 	#pragma AVRPART MEMORY INT_SRAM SIZE 4096
                 	#pragma AVRPART MEMORY INT_SRAM START_ADDR 0x100
                 
                 	#define CALL_SUPPORTED 1
                 
                 	.LISTMAC
                 	.EQU UDRE=0x5
                 	.EQU RXC=0x7
                 	.EQU USR=0xB
                 	.EQU UDR=0xC
                 	.EQU SPSR=0xE
                 	.EQU SPDR=0xF
                 	.EQU EERE=0x0
                 	.EQU EEWE=0x1
                 	.EQU EEMWE=0x2
                 	.EQU EECR=0x1C
                 	.EQU EEDR=0x1D
                 	.EQU EEARL=0x1E
                 	.EQU EEARH=0x1F
                 	.EQU WDTCR=0x21
                 	.EQU MCUCR=0x35
                 	.EQU SPL=0x3D
                 	.EQU SPH=0x3E
                 	.EQU SREG=0x3F
                 	.EQU XMCRA=0x6D
                 	.EQU XMCRB=0x6C
                 
                 	.DEF R0X0=R0
                 	.DEF R0X1=R1
                 	.DEF R0X2=R2
                 	.DEF R0X3=R3
                 	.DEF R0X4=R4
                 	.DEF R0X5=R5
                 	.DEF R0X6=R6
                 	.DEF R0X7=R7
                 	.DEF R0X8=R8
                 	.DEF R0X9=R9
                 	.DEF R0XA=R10
                 	.DEF R0XB=R11
                 	.DEF R0XC=R12
                 	.DEF R0XD=R13
                 	.DEF R0XE=R14
                 	.DEF R0XF=R15
                 	.DEF R0X10=R16
                 	.DEF R0X11=R17
                 	.DEF R0X12=R18
                 	.DEF R0X13=R19
                 	.DEF R0X14=R20
                 	.DEF R0X15=R21
                 	.DEF R0X16=R22
                 	.DEF R0X17=R23
                 	.DEF R0X18=R24
                 	.DEF R0X19=R25
                 	.DEF R0X1A=R26
                 	.DEF R0X1B=R27
                 	.DEF R0X1C=R28
                 	.DEF R0X1D=R29
                 	.DEF R0X1E=R30
                 	.DEF R0X1F=R31
                 
                 	.EQU __SRAM_START=0x0100
                 	.EQU __SRAM_END=0x10FF
                 	.EQU __DSTACK_SIZE=0x0400
                 	.EQU __HEAP_SIZE=0x0000
                 	.EQU __CLEAR_SRAM_SIZE=__SRAM_END-__SRAM_START+1
                 
                 	.MACRO __CPD1N
                 	CPI  R30,LOW(@0)
                 	LDI  R26,HIGH(@0)
                 	CPC  R31,R26
                 	LDI  R26,BYTE3(@0)
                 	CPC  R22,R26
                 	LDI  R26,BYTE4(@0)
                 	CPC  R23,R26
                 	.ENDM
                 
                 	.MACRO __CPD2N
                 	CPI  R26,LOW(@0)
                 	LDI  R30,HIGH(@0)
                 	CPC  R27,R30
                 	LDI  R30,BYTE3(@0)
                 	CPC  R24,R30
                 	LDI  R30,BYTE4(@0)
                 	CPC  R25,R30
                 	.ENDM
                 
                 	.MACRO __CPWRR
                 	CP   R@0,R@2
                 	CPC  R@1,R@3
                 	.ENDM
                 
                 	.MACRO __CPWRN
                 	CPI  R@0,LOW(@2)
                 	LDI  R30,HIGH(@2)
                 	CPC  R@1,R30
                 	.ENDM
                 
                 	.MACRO __ADDB1MN
                 	SUBI R30,LOW(-@0-(@1))
                 	.ENDM
                 
                 	.MACRO __ADDB2MN
                 	SUBI R26,LOW(-@0-(@1))
                 	.ENDM
                 
                 	.MACRO __ADDW1MN
                 	SUBI R30,LOW(-@0-(@1))
                 	SBCI R31,HIGH(-@0-(@1))
                 	.ENDM
                 
                 	.MACRO __ADDW2MN
                 	SUBI R26,LOW(-@0-(@1))
                 	SBCI R27,HIGH(-@0-(@1))
                 	.ENDM
                 
                 	.MACRO __ADDW1FN
                 	SUBI R30,LOW(-2*@0-(@1))
                 	SBCI R31,HIGH(-2*@0-(@1))
                 	.ENDM
                 
                 	.MACRO __ADDD1FN
                 	SUBI R30,LOW(-2*@0-(@1))
                 	SBCI R31,HIGH(-2*@0-(@1))
                 	SBCI R22,BYTE3(-2*@0-(@1))
                 	.ENDM
                 
                 	.MACRO __ADDD1N
                 	SUBI R30,LOW(-@0)
                 	SBCI R31,HIGH(-@0)
                 	SBCI R22,BYTE3(-@0)
                 	SBCI R23,BYTE4(-@0)
                 	.ENDM
                 
                 	.MACRO __ADDD2N
                 	SUBI R26,LOW(-@0)
                 	SBCI R27,HIGH(-@0)
                 	SBCI R24,BYTE3(-@0)
                 	SBCI R25,BYTE4(-@0)
                 	.ENDM
                 
                 	.MACRO __SUBD1N
                 	SUBI R30,LOW(@0)
                 	SBCI R31,HIGH(@0)
                 	SBCI R22,BYTE3(@0)
                 	SBCI R23,BYTE4(@0)
                 	.ENDM
                 
                 	.MACRO __SUBD2N
                 	SUBI R26,LOW(@0)
                 	SBCI R27,HIGH(@0)
                 	SBCI R24,BYTE3(@0)
                 	SBCI R25,BYTE4(@0)
                 	.ENDM
                 
                 	.MACRO __ANDBMNN
                 	LDS  R30,@0+(@1)
                 	ANDI R30,LOW(@2)
                 	STS  @0+(@1),R30
                 	.ENDM
                 
                 	.MACRO __ANDWMNN
                 	LDS  R30,@0+(@1)
                 	ANDI R30,LOW(@2)
                 	STS  @0+(@1),R30
                 	LDS  R30,@0+(@1)+1
                 	ANDI R30,HIGH(@2)
                 	STS  @0+(@1)+1,R30
                 	.ENDM
                 
                 	.MACRO __ANDD1N
                 	ANDI R30,LOW(@0)
                 	ANDI R31,HIGH(@0)
                 	ANDI R22,BYTE3(@0)
                 	ANDI R23,BYTE4(@0)
                 	.ENDM
                 
                 	.MACRO __ANDD2N
                 	ANDI R26,LOW(@0)
                 	ANDI R27,HIGH(@0)
                 	ANDI R24,BYTE3(@0)
                 	ANDI R25,BYTE4(@0)
                 	.ENDM
                 
                 	.MACRO __ORBMNN
                 	LDS  R30,@0+(@1)
                 	ORI  R30,LOW(@2)
                 	STS  @0+(@1),R30
                 	.ENDM
                 
                 	.MACRO __ORWMNN
                 	LDS  R30,@0+(@1)
                 	ORI  R30,LOW(@2)
                 	STS  @0+(@1),R30
                 	LDS  R30,@0+(@1)+1
                 	ORI  R30,HIGH(@2)
                 	STS  @0+(@1)+1,R30
                 	.ENDM
                 
                 	.MACRO __ORD1N
                 	ORI  R30,LOW(@0)
                 	ORI  R31,HIGH(@0)
                 	ORI  R22,BYTE3(@0)
                 	ORI  R23,BYTE4(@0)
                 	.ENDM
                 
                 	.MACRO __ORD2N
                 	ORI  R26,LOW(@0)
                 	ORI  R27,HIGH(@0)
                 	ORI  R24,BYTE3(@0)
                 	ORI  R25,BYTE4(@0)
                 	.ENDM
                 
                 	.MACRO __DELAY_USB
                 	LDI  R24,LOW(@0)
                 __DELAY_USB_LOOP:
                 	DEC  R24
                 	BRNE __DELAY_USB_LOOP
                 	.ENDM
                 
                 	.MACRO __DELAY_USW
                 	LDI  R24,LOW(@0)
                 	LDI  R25,HIGH(@0)
                 __DELAY_USW_LOOP:
                 	SBIW R24,1
                 	BRNE __DELAY_USW_LOOP
                 	.ENDM
                 
                 	.MACRO __GETD1S
                 	LDD  R30,Y+@0
                 	LDD  R31,Y+@0+1
                 	LDD  R22,Y+@0+2
                 	LDD  R23,Y+@0+3
                 	.ENDM
                 
                 	.MACRO __GETD2S
                 	LDD  R26,Y+@0
                 	LDD  R27,Y+@0+1
                 	LDD  R24,Y+@0+2
                 	LDD  R25,Y+@0+3
                 	.ENDM
                 
                 	.MACRO __PUTD1S
                 	STD  Y+@0,R30
                 	STD  Y+@0+1,R31
                 	STD  Y+@0+2,R22
                 	STD  Y+@0+3,R23
                 	.ENDM
                 
                 	.MACRO __PUTD2S
                 	STD  Y+@0,R26
                 	STD  Y+@0+1,R27
                 	STD  Y+@0+2,R24
                 	STD  Y+@0+3,R25
                 	.ENDM
                 
                 	.MACRO __PUTDZ2
                 	STD  Z+@0,R26
                 	STD  Z+@0+1,R27
                 	STD  Z+@0+2,R24
                 	STD  Z+@0+3,R25
                 	.ENDM
                 
                 	.MACRO __CLRD1S
                 	STD  Y+@0,R30
                 	STD  Y+@0+1,R30
                 	STD  Y+@0+2,R30
                 	STD  Y+@0+3,R30
                 	.ENDM
                 
                 	.MACRO __POINTB1MN
                 	LDI  R30,LOW(@0+(@1))
                 	.ENDM
                 
                 	.MACRO __POINTW1MN
                 	LDI  R30,LOW(@0+(@1))
                 	LDI  R31,HIGH(@0+(@1))
                 	.ENDM
                 
                 	.MACRO __POINTD1M
                 	LDI  R30,LOW(@0)
                 	LDI  R31,HIGH(@0)
                 	LDI  R22,BYTE3(@0)
                 	LDI  R23,BYTE4(@0)
                 	.ENDM
                 
                 	.MACRO __POINTW1FN
                 	LDI  R30,LOW(2*@0+(@1))
                 	LDI  R31,HIGH(2*@0+(@1))
                 	.ENDM
                 
                 	.MACRO __POINTD1FN
                 	LDI  R30,LOW(2*@0+(@1))
                 	LDI  R31,HIGH(2*@0+(@1))
                 	LDI  R22,BYTE3(2*@0+(@1))
                 	LDI  R23,BYTE4(2*@0+(@1))
                 	.ENDM
                 
                 	.MACRO __POINTB2MN
                 	LDI  R26,LOW(@0+(@1))
                 	.ENDM
                 
                 	.MACRO __POINTW2MN
                 	LDI  R26,LOW(@0+(@1))
                 	LDI  R27,HIGH(@0+(@1))
                 	.ENDM
                 
                 	.MACRO __POINTW2FN
                 	LDI  R26,LOW(2*@0+(@1))
                 	LDI  R27,HIGH(2*@0+(@1))
                 	.ENDM
                 
                 	.MACRO __POINTD2FN
                 	LDI  R26,LOW(2*@0+(@1))
                 	LDI  R27,HIGH(2*@0+(@1))
                 	LDI  R24,BYTE3(2*@0+(@1))
                 	LDI  R25,BYTE4(2*@0+(@1))
                 	.ENDM
                 
                 	.MACRO __POINTBRM
                 	LDI  R@0,LOW(@1)
                 	.ENDM
                 
                 	.MACRO __POINTWRM
                 	LDI  R@0,LOW(@2)
                 	LDI  R@1,HIGH(@2)
                 	.ENDM
                 
                 	.MACRO __POINTBRMN
                 	LDI  R@0,LOW(@1+(@2))
                 	.ENDM
                 
                 	.MACRO __POINTWRMN
                 	LDI  R@0,LOW(@2+(@3))
                 	LDI  R@1,HIGH(@2+(@3))
                 	.ENDM
                 
                 	.MACRO __POINTWRFN
                 	LDI  R@0,LOW(@2*2+(@3))
                 	LDI  R@1,HIGH(@2*2+(@3))
                 	.ENDM
                 
                 	.MACRO __GETD1N
                 	LDI  R30,LOW(@0)
                 	LDI  R31,HIGH(@0)
                 	LDI  R22,BYTE3(@0)
                 	LDI  R23,BYTE4(@0)
                 	.ENDM
                 
                 	.MACRO __GETD2N
                 	LDI  R26,LOW(@0)
                 	LDI  R27,HIGH(@0)
                 	LDI  R24,BYTE3(@0)
                 	LDI  R25,BYTE4(@0)
                 	.ENDM
                 
                 	.MACRO __GETB1MN
                 	LDS  R30,@0+(@1)
                 	.ENDM
                 
                 	.MACRO __GETB1HMN
                 	LDS  R31,@0+(@1)
                 	.ENDM
                 
                 	.MACRO __GETW1MN
                 	LDS  R30,@0+(@1)
                 	LDS  R31,@0+(@1)+1
                 	.ENDM
                 
                 	.MACRO __GETD1MN
                 	LDS  R30,@0+(@1)
                 	LDS  R31,@0+(@1)+1
                 	LDS  R22,@0+(@1)+2
                 	LDS  R23,@0+(@1)+3
                 	.ENDM
                 
                 	.MACRO __GETBRMN
                 	LDS  R@0,@1+(@2)
                 	.ENDM
                 
                 	.MACRO __GETWRMN
                 	LDS  R@0,@2+(@3)
                 	LDS  R@1,@2+(@3)+1
                 	.ENDM
                 
                 	.MACRO __GETWRZ
                 	LDD  R@0,Z+@2
                 	LDD  R@1,Z+@2+1
                 	.ENDM
                 
                 	.MACRO __GETD2Z
                 	LDD  R26,Z+@0
                 	LDD  R27,Z+@0+1
                 	LDD  R24,Z+@0+2
                 	LDD  R25,Z+@0+3
                 	.ENDM
                 
                 	.MACRO __GETB2MN
                 	LDS  R26,@0+(@1)
                 	.ENDM
                 
                 	.MACRO __GETW2MN
                 	LDS  R26,@0+(@1)
                 	LDS  R27,@0+(@1)+1
                 	.ENDM
                 
                 	.MACRO __GETD2MN
                 	LDS  R26,@0+(@1)
                 	LDS  R27,@0+(@1)+1
                 	LDS  R24,@0+(@1)+2
                 	LDS  R25,@0+(@1)+3
                 	.ENDM
                 
                 	.MACRO __PUTB1MN
                 	STS  @0+(@1),R30
                 	.ENDM
                 
                 	.MACRO __PUTW1MN
                 	STS  @0+(@1),R30
                 	STS  @0+(@1)+1,R31
                 	.ENDM
                 
                 	.MACRO __PUTD1MN
                 	STS  @0+(@1),R30
                 	STS  @0+(@1)+1,R31
                 	STS  @0+(@1)+2,R22
                 	STS  @0+(@1)+3,R23
                 	.ENDM
                 
                 	.MACRO __PUTB1EN
                 	LDI  R26,LOW(@0+(@1))
                 	LDI  R27,HIGH(@0+(@1))
                 	CALL __EEPROMWRB
                 	.ENDM
                 
                 	.MACRO __PUTW1EN
                 	LDI  R26,LOW(@0+(@1))
                 	LDI  R27,HIGH(@0+(@1))
                 	CALL __EEPROMWRW
                 	.ENDM
                 
                 	.MACRO __PUTD1EN
                 	LDI  R26,LOW(@0+(@1))
                 	LDI  R27,HIGH(@0+(@1))
                 	CALL __EEPROMWRD
                 	.ENDM
                 
                 	.MACRO __PUTBR0MN
                 	STS  @0+(@1),R0
                 	.ENDM
                 
                 	.MACRO __PUTBMRN
                 	STS  @0+(@1),R@2
                 	.ENDM
                 
                 	.MACRO __PUTWMRN
                 	STS  @0+(@1),R@2
                 	STS  @0+(@1)+1,R@3
                 	.ENDM
                 
                 	.MACRO __PUTBZR
                 	STD  Z+@1,R@0
                 	.ENDM
                 
                 	.MACRO __PUTWZR
                 	STD  Z+@2,R@0
                 	STD  Z+@2+1,R@1
                 	.ENDM
                 
                 	.MACRO __GETW1R
                 	MOV  R30,R@0
                 	MOV  R31,R@1
                 	.ENDM
                 
                 	.MACRO __GETW2R
                 	MOV  R26,R@0
                 	MOV  R27,R@1
                 	.ENDM
                 
                 	.MACRO __GETWRN
                 	LDI  R@0,LOW(@2)
                 	LDI  R@1,HIGH(@2)
                 	.ENDM
                 
                 	.MACRO __PUTW1R
                 	MOV  R@0,R30
                 	MOV  R@1,R31
                 	.ENDM
                 
                 	.MACRO __PUTW2R
                 	MOV  R@0,R26
                 	MOV  R@1,R27
                 	.ENDM
                 
                 	.MACRO __ADDWRN
                 	SUBI R@0,LOW(-@2)
                 	SBCI R@1,HIGH(-@2)
                 	.ENDM
                 
                 	.MACRO __ADDWRR
                 	ADD  R@0,R@2
                 	ADC  R@1,R@3
                 	.ENDM
                 
                 	.MACRO __SUBWRN
                 	SUBI R@0,LOW(@2)
                 	SBCI R@1,HIGH(@2)
                 	.ENDM
                 
                 	.MACRO __SUBWRR
                 	SUB  R@0,R@2
                 	SBC  R@1,R@3
                 	.ENDM
                 
                 	.MACRO __ANDWRN
                 	ANDI R@0,LOW(@2)
                 	ANDI R@1,HIGH(@2)
                 	.ENDM
                 
                 	.MACRO __ANDWRR
                 	AND  R@0,R@2
                 	AND  R@1,R@3
                 	.ENDM
                 
                 	.MACRO __ORWRN
                 	ORI  R@0,LOW(@2)
                 	ORI  R@1,HIGH(@2)
                 	.ENDM
                 
                 	.MACRO __ORWRR
                 	OR   R@0,R@2
                 	OR   R@1,R@3
                 	.ENDM
                 
                 	.MACRO __EORWRR
                 	EOR  R@0,R@2
                 	EOR  R@1,R@3
                 	.ENDM
                 
                 	.MACRO __GETWRS
                 	LDD  R@0,Y+@2
                 	LDD  R@1,Y+@2+1
                 	.ENDM
                 
                 	.MACRO __PUTBSR
                 	STD  Y+@1,R@0
                 	.ENDM
                 
                 	.MACRO __PUTWSR
                 	STD  Y+@2,R@0
                 	STD  Y+@2+1,R@1
                 	.ENDM
                 
                 	.MACRO __MOVEWRR
                 	MOV  R@0,R@2
                 	MOV  R@1,R@3
                 	.ENDM
                 
                 	.MACRO __INWR
                 	IN   R@0,@2
                 	IN   R@1,@2+1
                 	.ENDM
                 
                 	.MACRO __OUTWR
                 	OUT  @2+1,R@1
                 	OUT  @2,R@0
                 	.ENDM
                 
                 	.MACRO __CALL1MN
                 	LDS  R30,@0+(@1)
                 	LDS  R31,@0+(@1)+1
                 	ICALL
                 	.ENDM
                 
                 	.MACRO __CALL1FN
                 	LDI  R30,LOW(2*@0+(@1))
                 	LDI  R31,HIGH(2*@0+(@1))
                 	CALL __GETW1PF
                 	ICALL
                 	.ENDM
                 
                 	.MACRO __CALL2EN
                 	PUSH R26
                 	PUSH R27
                 	LDI  R26,LOW(@0+(@1))
                 	LDI  R27,HIGH(@0+(@1))
                 	CALL __EEPROMRDW
                 	POP  R27
                 	POP  R26
                 	ICALL
                 	.ENDM
                 
                 	.MACRO __CALL2EX
                 	SUBI R26,LOW(-@0)
                 	SBCI R27,HIGH(-@0)
                 	CALL __EEPROMRDD
                 	ICALL
                 	.ENDM
                 
                 	.MACRO __GETW1STACK
                 	IN   R30,SPL
                 	IN   R31,SPH
                 	ADIW R30,@0+1
                 	LD   R0,Z+
                 	LD   R31,Z
                 	MOV  R30,R0
                 	.ENDM
                 
                 	.MACRO __GETD1STACK
                 	IN   R30,SPL
                 	IN   R31,SPH
                 	ADIW R30,@0+1
                 	LD   R0,Z+
                 	LD   R1,Z+
                 	LD   R22,Z
                 	MOVW R30,R0
                 	.ENDM
                 
                 	.MACRO __NBST
                 	BST  R@0,@1
                 	IN   R30,SREG
                 	LDI  R31,0x40
                 	EOR  R30,R31
                 	OUT  SREG,R30
                 	.ENDM
                 
                 
                 	.MACRO __PUTB1SN
                 	LDD  R26,Y+@0
                 	LDD  R27,Y+@0+1
                 	SUBI R26,LOW(-@1)
                 	SBCI R27,HIGH(-@1)
                 	ST   X,R30
                 	.ENDM
                 
                 	.MACRO __PUTW1SN
                 	LDD  R26,Y+@0
                 	LDD  R27,Y+@0+1
                 	SUBI R26,LOW(-@1)
                 	SBCI R27,HIGH(-@1)
                 	ST   X+,R30
                 	ST   X,R31
                 	.ENDM
                 
                 	.MACRO __PUTD1SN
                 	LDD  R26,Y+@0
                 	LDD  R27,Y+@0+1
                 	SUBI R26,LOW(-@1)
                 	SBCI R27,HIGH(-@1)
                 	CALL __PUTDP1
                 	.ENDM
                 
                 	.MACRO __PUTB1SNS
                 	LDD  R26,Y+@0
                 	LDD  R27,Y+@0+1
                 	ADIW R26,@1
                 	ST   X,R30
                 	.ENDM
                 
                 	.MACRO __PUTW1SNS
                 	LDD  R26,Y+@0
                 	LDD  R27,Y+@0+1
                 	ADIW R26,@1
                 	ST   X+,R30
                 	ST   X,R31
                 	.ENDM
                 
                 	.MACRO __PUTD1SNS
                 	LDD  R26,Y+@0
                 	LDD  R27,Y+@0+1
                 	ADIW R26,@1
                 	CALL __PUTDP1
                 	.ENDM
                 
                 	.MACRO __PUTB1PMN
                 	LDS  R26,@0
                 	LDS  R27,@0+1
                 	SUBI R26,LOW(-@1)
                 	SBCI R27,HIGH(-@1)
                 	ST   X,R30
                 	.ENDM
                 
                 	.MACRO __PUTW1PMN
                 	LDS  R26,@0
                 	LDS  R27,@0+1
                 	SUBI R26,LOW(-@1)
                 	SBCI R27,HIGH(-@1)
                 	ST   X+,R30
                 	ST   X,R31
                 	.ENDM
                 
                 	.MACRO __PUTD1PMN
                 	LDS  R26,@0
                 	LDS  R27,@0+1
                 	SUBI R26,LOW(-@1)
                 	SBCI R27,HIGH(-@1)
                 	CALL __PUTDP1
                 	.ENDM
                 
                 	.MACRO __PUTB1PMNS
                 	LDS  R26,@0
                 	LDS  R27,@0+1
                 	ADIW R26,@1
                 	ST   X,R30
                 	.ENDM
                 
                 	.MACRO __PUTW1PMNS
                 	LDS  R26,@0
                 	LDS  R27,@0+1
                 	ADIW R26,@1
                 	ST   X+,R30
                 	ST   X,R31
                 	.ENDM
                 
                 	.MACRO __PUTD1PMNS
                 	LDS  R26,@0
                 	LDS  R27,@0+1
                 	ADIW R26,@1
                 	CALL __PUTDP1
                 	.ENDM
                 
                 	.MACRO __PUTB1RN
                 	MOVW R26,R@0
                 	SUBI R26,LOW(-@1)
                 	SBCI R27,HIGH(-@1)
                 	ST   X,R30
                 	.ENDM
                 
                 	.MACRO __PUTW1RN
                 	MOVW R26,R@0
                 	SUBI R26,LOW(-@1)
                 	SBCI R27,HIGH(-@1)
                 	ST   X+,R30
                 	ST   X,R31
                 	.ENDM
                 
                 	.MACRO __PUTD1RN
                 	MOVW R26,R@0
                 	SUBI R26,LOW(-@1)
                 	SBCI R27,HIGH(-@1)
                 	CALL __PUTDP1
                 	.ENDM
                 
                 	.MACRO __PUTB1RNS
                 	MOVW R26,R@0
                 	ADIW R26,@1
                 	ST   X,R30
                 	.ENDM
                 
                 	.MACRO __PUTW1RNS
                 	MOVW R26,R@0
                 	ADIW R26,@1
                 	ST   X+,R30
                 	ST   X,R31
                 	.ENDM
                 
                 	.MACRO __PUTD1RNS
                 	MOVW R26,R@0
                 	ADIW R26,@1
                 	CALL __PUTDP1
                 	.ENDM
                 
                 	.MACRO __PUTB1RON
                 	MOV  R26,R@0
                 	MOV  R27,R@1
                 	SUBI R26,LOW(-@2)
                 	SBCI R27,HIGH(-@2)
                 	ST   X,R30
                 	.ENDM
                 
                 	.MACRO __PUTW1RON
                 	MOV  R26,R@0
                 	MOV  R27,R@1
                 	SUBI R26,LOW(-@2)
                 	SBCI R27,HIGH(-@2)
                 	ST   X+,R30
                 	ST   X,R31
                 	.ENDM
                 
                 	.MACRO __PUTD1RON
                 	MOV  R26,R@0
                 	MOV  R27,R@1
                 	SUBI R26,LOW(-@2)
                 	SBCI R27,HIGH(-@2)
                 	CALL __PUTDP1
                 	.ENDM
                 
                 	.MACRO __PUTB1RONS
                 	MOV  R26,R@0
                 	MOV  R27,R@1
                 	ADIW R26,@2
                 	ST   X,R30
                 	.ENDM
                 
                 	.MACRO __PUTW1RONS
                 	MOV  R26,R@0
                 	MOV  R27,R@1
                 	ADIW R26,@2
                 	ST   X+,R30
                 	ST   X,R31
                 	.ENDM
                 
                 	.MACRO __PUTD1RONS
                 	MOV  R26,R@0
                 	MOV  R27,R@1
                 	ADIW R26,@2
                 	CALL __PUTDP1
                 	.ENDM
                 
                 
                 	.MACRO __GETB1SX
                 	MOVW R30,R28
                 	SUBI R30,LOW(-@0)
                 	SBCI R31,HIGH(-@0)
                 	LD   R30,Z
                 	.ENDM
                 
                 	.MACRO __GETB1HSX
                 	MOVW R30,R28
                 	SUBI R30,LOW(-@0)
                 	SBCI R31,HIGH(-@0)
                 	LD   R31,Z
                 	.ENDM
                 
                 	.MACRO __GETW1SX
                 	MOVW R30,R28
                 	SUBI R30,LOW(-@0)
                 	SBCI R31,HIGH(-@0)
                 	LD   R0,Z+
                 	LD   R31,Z
                 	MOV  R30,R0
                 	.ENDM
                 
                 	.MACRO __GETD1SX
                 	MOVW R30,R28
                 	SUBI R30,LOW(-@0)
                 	SBCI R31,HIGH(-@0)
                 	LD   R0,Z+
                 	LD   R1,Z+
                 	LD   R22,Z+
                 	LD   R23,Z
                 	MOVW R30,R0
                 	.ENDM
                 
                 	.MACRO __GETB2SX
                 	MOVW R26,R28
                 	SUBI R26,LOW(-@0)
                 	SBCI R27,HIGH(-@0)
                 	LD   R26,X
                 	.ENDM
                 
                 	.MACRO __GETW2SX
                 	MOVW R26,R28
                 	SUBI R26,LOW(-@0)
                 	SBCI R27,HIGH(-@0)
                 	LD   R0,X+
                 	LD   R27,X
                 	MOV  R26,R0
                 	.ENDM
                 
                 	.MACRO __GETD2SX
                 	MOVW R26,R28
                 	SUBI R26,LOW(-@0)
                 	SBCI R27,HIGH(-@0)
                 	LD   R0,X+
                 	LD   R1,X+
                 	LD   R24,X+
                 	LD   R25,X
                 	MOVW R26,R0
                 	.ENDM
                 
                 	.MACRO __GETBRSX
                 	MOVW R30,R28
                 	SUBI R30,LOW(-@1)
                 	SBCI R31,HIGH(-@1)
                 	LD   R@0,Z
                 	.ENDM
                 
                 	.MACRO __GETWRSX
                 	MOVW R30,R28
                 	SUBI R30,LOW(-@2)
                 	SBCI R31,HIGH(-@2)
                 	LD   R@0,Z+
                 	LD   R@1,Z
                 	.ENDM
                 
                 	.MACRO __GETBRSX2
                 	MOVW R26,R28
                 	SUBI R26,LOW(-@1)
                 	SBCI R27,HIGH(-@1)
                 	LD   R@0,X
                 	.ENDM
                 
                 	.MACRO __GETWRSX2
                 	MOVW R26,R28
                 	SUBI R26,LOW(-@2)
                 	SBCI R27,HIGH(-@2)
                 	LD   R@0,X+
                 	LD   R@1,X
                 	.ENDM
                 
                 	.MACRO __LSLW8SX
                 	MOVW R30,R28
                 	SUBI R30,LOW(-@0)
                 	SBCI R31,HIGH(-@0)
                 	LD   R31,Z
                 	CLR  R30
                 	.ENDM
                 
                 	.MACRO __PUTB1SX
                 	MOVW R26,R28
                 	SUBI R26,LOW(-@0)
                 	SBCI R27,HIGH(-@0)
                 	ST   X,R30
                 	.ENDM
                 
                 	.MACRO __PUTW1SX
                 	MOVW R26,R28
                 	SUBI R26,LOW(-@0)
                 	SBCI R27,HIGH(-@0)
                 	ST   X+,R30
                 	ST   X,R31
                 	.ENDM
                 
                 	.MACRO __PUTD1SX
                 	MOVW R26,R28
                 	SUBI R26,LOW(-@0)
                 	SBCI R27,HIGH(-@0)
                 	ST   X+,R30
                 	ST   X+,R31
                 	ST   X+,R22
                 	ST   X,R23
                 	.ENDM
                 
                 	.MACRO __CLRW1SX
                 	MOVW R26,R28
                 	SUBI R26,LOW(-@0)
                 	SBCI R27,HIGH(-@0)
                 	ST   X+,R30
                 	ST   X,R30
                 	.ENDM
                 
                 	.MACRO __CLRD1SX
                 	MOVW R26,R28
                 	SUBI R26,LOW(-@0)
                 	SBCI R27,HIGH(-@0)
                 	ST   X+,R30
                 	ST   X+,R30
                 	ST   X+,R30
                 	ST   X,R30
                 	.ENDM
                 
                 	.MACRO __PUTB2SX
                 	MOVW R30,R28
                 	SUBI R30,LOW(-@0)
                 	SBCI R31,HIGH(-@0)
                 	ST   Z,R26
                 	.ENDM
                 
                 	.MACRO __PUTW2SX
                 	MOVW R30,R28
                 	SUBI R30,LOW(-@0)
                 	SBCI R31,HIGH(-@0)
                 	ST   Z+,R26
                 	ST   Z,R27
                 	.ENDM
                 
                 	.MACRO __PUTD2SX
                 	MOVW R30,R28
                 	SUBI R30,LOW(-@0)
                 	SBCI R31,HIGH(-@0)
                 	ST   Z+,R26
                 	ST   Z+,R27
                 	ST   Z+,R24
                 	ST   Z,R25
                 	.ENDM
                 
                 	.MACRO __PUTBSRX
                 	MOVW R30,R28
                 	SUBI R30,LOW(-@1)
                 	SBCI R31,HIGH(-@1)
                 	ST   Z,R@0
                 	.ENDM
                 
                 	.MACRO __PUTWSRX
                 	MOVW R30,R28
                 	SUBI R30,LOW(-@2)
                 	SBCI R31,HIGH(-@2)
                 	ST   Z+,R@0
                 	ST   Z,R@1
                 	.ENDM
                 
                 	.MACRO __PUTB1SNX
                 	MOVW R26,R28
                 	SUBI R26,LOW(-@0)
                 	SBCI R27,HIGH(-@0)
                 	LD   R0,X+
                 	LD   R27,X
                 	MOV  R26,R0
                 	SUBI R26,LOW(-@1)
                 	SBCI R27,HIGH(-@1)
                 	ST   X,R30
                 	.ENDM
                 
                 	.MACRO __PUTW1SNX
                 	MOVW R26,R28
                 	SUBI R26,LOW(-@0)
                 	SBCI R27,HIGH(-@0)
                 	LD   R0,X+
                 	LD   R27,X
                 	MOV  R26,R0
                 	SUBI R26,LOW(-@1)
                 	SBCI R27,HIGH(-@1)
                 	ST   X+,R30
                 	ST   X,R31
                 	.ENDM
                 
                 	.MACRO __PUTD1SNX
                 	MOVW R26,R28
                 	SUBI R26,LOW(-@0)
                 	SBCI R27,HIGH(-@0)
                 	LD   R0,X+
                 	LD   R27,X
                 	MOV  R26,R0
                 	SUBI R26,LOW(-@1)
                 	SBCI R27,HIGH(-@1)
                 	ST   X+,R30
                 	ST   X+,R31
                 	ST   X+,R22
                 	ST   X,R23
                 	.ENDM
                 
                 	.MACRO __MULBRR
                 	MULS R@0,R@1
                 	MOVW R30,R0
                 	.ENDM
                 
                 	.MACRO __MULBRRU
                 	MUL  R@0,R@1
                 	MOVW R30,R0
                 	.ENDM
                 
                 	.MACRO __MULBRR0
                 	MULS R@0,R@1
                 	.ENDM
                 
                 	.MACRO __MULBRRU0
                 	MUL  R@0,R@1
                 	.ENDM
                 
                 	.MACRO __MULBNWRU
                 	LDI  R26,@2
                 	MUL  R26,R@0
                 	MOVW R30,R0
                 	MUL  R26,R@1
                 	ADD  R31,R0
                 	.ENDM
                 
                 ;NAME DEFINITIONS FOR GLOBAL VARIABLES ALLOCATED TO REGISTERS
                 	.DEF _device_id=R4
                 	.DEF _device_id_msb=R5
                 	.DEF _header_index=R6
                 	.DEF _header_index_msb=R7
                 	.DEF _content_index=R8
                 	.DEF _content_index_msb=R9
                 	.DEF _attempts=R11
                 
                 	.CSEG
                 	.ORG 0x00
                 
                 ;START OF CODE MARKER
                 __START_OF_CODE:
                 
                 ;INTERRUPT VECTORS
000000 940c 119e 	JMP  __RESET
000002 940c 0000 	JMP  0x00
000004 940c 0000 	JMP  0x00
000006 940c 0000 	JMP  0x00
000008 940c 0000 	JMP  0x00
00000a 940c 0000 	JMP  0x00
00000c 940c 0000 	JMP  0x00
00000e 940c 0000 	JMP  0x00
000010 940c 0000 	JMP  0x00
000012 940c 0000 	JMP  0x00
000014 940c 0000 	JMP  0x00
000016 940c 0000 	JMP  0x00
000018 940c 0000 	JMP  0x00
00001a 940c 0000 	JMP  0x00
00001c 940c 0000 	JMP  0x00
00001e 940c 0000 	JMP  0x00
000020 940c 121e 	JMP  _timer0_ovf_isr
000022 940c 0000 	JMP  0x00
000024 940c 11cd 	JMP  _usart0_rx_isr
000026 940c 0000 	JMP  0x00
000028 940c 0000 	JMP  0x00
00002a 940c 0000 	JMP  0x00
00002c 940c 0000 	JMP  0x00
00002e 940c 0000 	JMP  0x00
000030 940c 0000 	JMP  0x00
000032 940c 0000 	JMP  0x00
000034 940c 0000 	JMP  0x00
000036 940c 0000 	JMP  0x00
000038 940c 0000 	JMP  0x00
00003a 940c 0000 	JMP  0x00
00003c 940c 0000 	JMP  0x00
00003e 940c 0000 	JMP  0x00
000040 940c 0000 	JMP  0x00
000042 940c 0000 	JMP  0x00
000044 940c 0000 	JMP  0x00
                 
                 _font5x7:
000046 0705
000047 6020
000048 0000
000049 0000      	.DB  0x5,0x7,0x20,0x60,0x0,0x0,0x0,0x0
00004a 0000
00004b 5f00
00004c 0000
00004d 0700      	.DB  0x0,0x0,0x0,0x5F,0x0,0x0,0x0,0x7
00004e 0700
00004f 1400
000050 147f
000051 147f      	.DB  0x0,0x7,0x0,0x14,0x7F,0x14,0x7F,0x14
000052 2a24
000053 2a7f
000054 2312
000055 0813      	.DB  0x24,0x2A,0x7F,0x2A,0x12,0x23,0x13,0x8
000056 6264
000057 4936
000058 2255
000059 0050      	.DB  0x64,0x62,0x36,0x49,0x55,0x22,0x50,0x0
00005a 0305
00005b 0000
00005c 1c00
00005d 4122      	.DB  0x5,0x3,0x0,0x0,0x0,0x1C,0x22,0x41
00005e 0000
00005f 2241
000060 001c
000061 2a08      	.DB  0x0,0x0,0x41,0x22,0x1C,0x0,0x8,0x2A
000062 2a1c
000063 0808
000064 3e08
000065 0808      	.DB  0x1C,0x2A,0x8,0x8,0x8,0x3E,0x8,0x8
000066 5000
000067 0030
000068 0800
000069 0808      	.DB  0x0,0x50,0x30,0x0,0x0,0x8,0x8,0x8
00006a 0808
00006b 3000
00006c 0030
00006d 2000      	.DB  0x8,0x8,0x0,0x30,0x30,0x0,0x0,0x20
00006e 0810
00006f 0204
000070 513e
000071 4549      	.DB  0x10,0x8,0x4,0x2,0x3E,0x51,0x49,0x45
000072 003e
000073 7f42
000074 0040
000075 6142      	.DB  0x3E,0x0,0x42,0x7F,0x40,0x0,0x42,0x61
000076 4951
000077 2146
000078 4541
000079 314b      	.DB  0x51,0x49,0x46,0x21,0x41,0x45,0x4B,0x31
00007a 1418
00007b 7f12
00007c 2710
00007d 4545      	.DB  0x18,0x14,0x12,0x7F,0x10,0x27,0x45,0x45
00007e 3945
00007f 4a3c
000080 4949
000081 0130      	.DB  0x45,0x39,0x3C,0x4A,0x49,0x49,0x30,0x1
000082 0971
000083 0305
000084 4936
000085 4949      	.DB  0x71,0x9,0x5,0x3,0x36,0x49,0x49,0x49
000086 0636
000087 4949
000088 1e29
000089 3600      	.DB  0x36,0x6,0x49,0x49,0x29,0x1E,0x0,0x36
00008a 0036
00008b 0000
00008c 3656
00008d 0000      	.DB  0x36,0x0,0x0,0x0,0x56,0x36,0x0,0x0
00008e 0800
00008f 2214
000090 1441
000091 1414      	.DB  0x0,0x8,0x14,0x22,0x41,0x14,0x14,0x14
000092 1414
000093 2241
000094 0814
000095 0200      	.DB  0x14,0x14,0x41,0x22,0x14,0x8,0x0,0x2
000096 5101
000097 0609
000098 4932
000099 4179      	.DB  0x1,0x51,0x9,0x6,0x32,0x49,0x79,0x41
00009a 7e3e
00009b 1111
00009c 7e11
00009d 497f      	.DB  0x3E,0x7E,0x11,0x11,0x11,0x7E,0x7F,0x49
00009e 4949
00009f 3e36
0000a0 4141
0000a1 2241      	.DB  0x49,0x49,0x36,0x3E,0x41,0x41,0x41,0x22
0000a2 417f
0000a3 2241
0000a4 7f1c
0000a5 4949      	.DB  0x7F,0x41,0x41,0x22,0x1C,0x7F,0x49,0x49
0000a6 4149
0000a7 097f
0000a8 0109
0000a9 3e01      	.DB  0x49,0x41,0x7F,0x9,0x9,0x1,0x1,0x3E
0000aa 4141
0000ab 3251
0000ac 087f
0000ad 0808      	.DB  0x41,0x41,0x51,0x32,0x7F,0x8,0x8,0x8
0000ae 007f
0000af 7f41
0000b0 0041
0000b1 4020      	.DB  0x7F,0x0,0x41,0x7F,0x41,0x0,0x20,0x40
0000b2 3f41
0000b3 7f01
0000b4 1408
0000b5 4122      	.DB  0x41,0x3F,0x1,0x7F,0x8,0x14,0x22,0x41
0000b6 407f
0000b7 4040
0000b8 7f40
0000b9 0402      	.DB  0x7F,0x40,0x40,0x40,0x40,0x7F,0x2,0x4
0000ba 7f02
0000bb 047f
0000bc 1008
0000bd 3e7f      	.DB  0x2,0x7F,0x7F,0x4,0x8,0x10,0x7F,0x3E
0000be 4141
0000bf 3e41
0000c0 097f
0000c1 0909      	.DB  0x41,0x41,0x41,0x3E,0x7F,0x9,0x9,0x9
0000c2 3e06
0000c3 5141
0000c4 5e21
0000c5 097f      	.DB  0x6,0x3E,0x41,0x51,0x21,0x5E,0x7F,0x9
0000c6 2919
0000c7 4646
0000c8 4949
0000c9 3149      	.DB  0x19,0x29,0x46,0x46,0x49,0x49,0x49,0x31
0000ca 0101
0000cb 017f
0000cc 3f01
0000cd 4040      	.DB  0x1,0x1,0x7F,0x1,0x1,0x3F,0x40,0x40
0000ce 3f40
0000cf 201f
0000d0 2040
0000d1 7f1f      	.DB  0x40,0x3F,0x1F,0x20,0x40,0x20,0x1F,0x7F
0000d2 1820
0000d3 7f20
0000d4 1463
0000d5 1408      	.DB  0x20,0x18,0x20,0x7F,0x63,0x14,0x8,0x14
0000d6 0363
0000d7 7804
0000d8 0304
0000d9 5161      	.DB  0x63,0x3,0x4,0x78,0x4,0x3,0x61,0x51
0000da 4549
0000db 0043
0000dc 7f00
0000dd 4141      	.DB  0x49,0x45,0x43,0x0,0x0,0x7F,0x41,0x41
0000de 0402
0000df 1008
0000e0 4120
0000e1 7f41      	.DB  0x2,0x4,0x8,0x10,0x20,0x41,0x41,0x7F
0000e2 0000
0000e3 0204
0000e4 0201
0000e5 4004      	.DB  0x0,0x0,0x4,0x2,0x1,0x2,0x4,0x40
0000e6 4040
0000e7 4040
0000e8 0100
0000e9 0402      	.DB  0x40,0x40,0x40,0x40,0x0,0x1,0x2,0x4
0000ea 2000
0000eb 5454
0000ec 7854
0000ed 487f      	.DB  0x0,0x20,0x54,0x54,0x54,0x78,0x7F,0x48
0000ee 4444
0000ef 3838
0000f0 4444
0000f1 2044      	.DB  0x44,0x44,0x38,0x38,0x44,0x44,0x44,0x20
0000f2 4438
0000f3 4844
0000f4 387f
0000f5 5454      	.DB  0x38,0x44,0x44,0x48,0x7F,0x38,0x54,0x54
0000f6 1854
0000f7 7e08
0000f8 0109
0000f9 0802      	.DB  0x54,0x18,0x8,0x7E,0x9,0x1,0x2,0x8
0000fa 5414
0000fb 3c54
0000fc 087f
0000fd 0404      	.DB  0x14,0x54,0x54,0x3C,0x7F,0x8,0x4,0x4
0000fe 0078
0000ff 7d44
000100 0040
000101 4020      	.DB  0x78,0x0,0x44,0x7D,0x40,0x0,0x20,0x40
000102 3d44
000103 0000
000104 107f
000105 4428      	.DB  0x44,0x3D,0x0,0x0,0x7F,0x10,0x28,0x44
000106 4100
000107 407f
000108 7c00
000109 1804      	.DB  0x0,0x41,0x7F,0x40,0x0,0x7C,0x4,0x18
00010a 7804
00010b 087c
00010c 0404
00010d 3878      	.DB  0x4,0x78,0x7C,0x8,0x4,0x4,0x78,0x38
00010e 4444
00010f 3844
000110 147c
000111 1414      	.DB  0x44,0x44,0x44,0x38,0x7C,0x14,0x14,0x14
000112 0808
000113 1414
000114 7c18
000115 087c      	.DB  0x8,0x8,0x14,0x14,0x18,0x7C,0x7C,0x8
000116 0404
000117 4808
000118 5454
000119 2054      	.DB  0x4,0x4,0x8,0x48,0x54,0x54,0x54,0x20
00011a 3f04
00011b 4044
00011c 3c20
00011d 4040      	.DB  0x4,0x3F,0x44,0x40,0x20,0x3C,0x40,0x40
00011e 7c20
00011f 201c
000120 2040
000121 3c1c      	.DB  0x20,0x7C,0x1C,0x20,0x40,0x20,0x1C,0x3C
000122 3040
000123 3c40
000124 2844
000125 2810      	.DB  0x40,0x30,0x40,0x3C,0x44,0x28,0x10,0x28
000126 0c44
000127 5050
000128 3c50
000129 6444      	.DB  0x44,0xC,0x50,0x50,0x50,0x3C,0x44,0x64
00012a 4c54
00012b 0044
00012c 3608
00012d 0041      	.DB  0x54,0x4C,0x44,0x0,0x8,0x36,0x41,0x0
00012e 0000
00012f 007f
000130 0000
000131 3641      	.DB  0x0,0x0,0x7F,0x0,0x0,0x0,0x41,0x36
000132 0008
000133 0102
000134 0402
000135 7f02      	.DB  0x8,0x0,0x2,0x1,0x2,0x4,0x2,0x7F
000136 4141
000137 7f41      	.DB  0x41,0x41,0x41,0x7F
                 _kode_mahsol_payamak_konid:
000138 0000
000139 0000
00013a 0000
00013b 0000      	.DB  0x0,0x0,0x0,0x0,0x0,0x0,0x0,0x0
00013c 0000
00013d 0000
00013e 0000
00013f 0000      	.DB  0x0,0x0,0x0,0x0,0x0,0x0,0x0,0x0
000140 0000
000141 0000
000142 0000
000143 0000      	.DB  0x0,0x0,0x0,0x0,0x0,0x0,0x0,0x0
000144 0000
000145 0000
000146 0000
000147 0000      	.DB  0x0,0x0,0x0,0x0,0x0,0x0,0x0,0x0
000148 0000
000149 0000
00014a 0000
00014b 0000      	.DB  0x0,0x0,0x0,0x0,0x0,0x0,0x0,0x0
00014c 0000
00014d 0000
00014e 0000
00014f 0000      	.DB  0x0,0x0,0x0,0x0,0x0,0x0,0x0,0x0
000150 0000
000151 0000
000152 0000
000153 0000      	.DB  0x0,0x0,0x0,0x0,0x0,0x0,0x0,0x0
000154 0000
000155 0000
000156 0000
000157 0000      	.DB  0x0,0x0,0x0,0x0,0x0,0x0,0x0,0x0
000158 0000
000159 0000
00015a 0000
00015b 0000      	.DB  0x0,0x0,0x0,0x0,0x0,0x0,0x0,0x0
00015c 0000
00015d 0000
00015e 0000
00015f 0000      	.DB  0x0,0x0,0x0,0x0,0x0,0x0,0x0,0x0
000160 0000
000161 0000
000162 0000
000163 0000      	.DB  0x0,0x0,0x0,0x0,0x0,0x0,0x0,0x0
000164 0000
000165 0000
000166 0000
000167 0000      	.DB  0x0,0x0,0x0,0x0,0x0,0x0,0x0,0x0
000168 0000
000169 0000
00016a 0000
00016b 0000      	.DB  0x0,0x0,0x0,0x0,0x0,0x0,0x0,0x0
00016c 0000
00016d 0000
00016e 0000
00016f 0000      	.DB  0x0,0x0,0x0,0x0,0x0,0x0,0x0,0x0
000170 0000
000171 0000
000172 0000
000173 0000      	.DB  0x0,0x0,0x0,0x0,0x0,0x0,0x0,0x0
000174 0000
000175 0000
000176 0000
000177 0000      	.DB  0x0,0x0,0x0,0x0,0x0,0x0,0x0,0x0
000178 0000
000179 8000
00017a 80c0
00017b 0000      	.DB  0x0,0x0,0x0,0x80,0xC0,0x80,0x0,0x0
00017c 0000
00017d 0000
00017e 0000
00017f 00f8      	.DB  0x0,0x0,0x0,0x0,0x0,0x0,0xF8,0x0
000180 0000
000181 0000
000182 8000
000183 0080      	.DB  0x0,0x0,0x0,0x0,0x0,0x80,0x80,0x0
000184 0000
000185 0000
000186 1000
000187 0808      	.DB  0x0,0x0,0x0,0x0,0x0,0x10,0x8,0x8
000188 0020
000189 0080
00018a 0000
00018b 0000      	.DB  0x20,0x0,0x80,0x0,0x0,0x0,0x0,0x0
00018c 8000
00018d 00e0
00018e 0000
00018f 0000      	.DB  0x0,0x80,0xE0,0x0,0x0,0x0,0x0,0x0
000190 0080
000191 0000
000192 7800
000193 00fc      	.DB  0x80,0x0,0x0,0x0,0x0,0x78,0xFC,0x0
000194 0000
000195 0000
000196 0000
000197 0000      	.DB  0x0,0x0,0x0,0x0,0x0,0x0,0x0,0x0
000198 0000
000199 0000
00019a 0000
00019b 3800      	.DB  0x0,0x0,0x0,0x0,0x0,0x0,0x0,0x38
00019c 00f8
00019d 0000
00019e 8080
00019f 0000      	.DB  0xF8,0x0,0x0,0x0,0x80,0x80,0x0,0x0
0001a0 0000
0001a1 0000
0001a2 0000
0001a3 8000      	.DB  0x0,0x0,0x0,0x0,0x0,0x0,0x0,0x80
0001a4 8080
0001a5 0000
0001a6 c080
0001a7 c0c0      	.DB  0x80,0x80,0x0,0x0,0x80,0xC0,0xC0,0xC0
0001a8 80c0
0001a9 8080
0001aa 0000
0001ab 0000      	.DB  0xC0,0x80,0x80,0x80,0x0,0x0,0x0,0x0
0001ac 8080
0001ad 0000
0001ae 0000
0001af 0000      	.DB  0x80,0x80,0x0,0x0,0x0,0x0,0x0,0x0
0001b0 0000
0001b1 e040
0001b2 0000
0001b3 0000      	.DB  0x0,0x0,0x40,0xE0,0x0,0x0,0x0,0x0
0001b4 f070
0001b5 1898
0001b6 041c
0001b7 0000      	.DB  0x70,0xF0,0x98,0x18,0x1C,0x4,0x0,0x0
0001b8 0000
0001b9 0c07
0001ba 0d0c
0001bb 0007      	.DB  0x0,0x0,0x7,0xC,0xC,0xD,0x7,0x0
0001bc 8080
0001bd e7c0
0001be 003e
0001bf 0c07      	.DB  0x80,0x80,0xC0,0xE7,0x3E,0x0,0x7,0xC
0001c0 000c
0001c1 0c0c
0001c2 0d07
0001c3 070d      	.DB  0xC,0x0,0xC,0xC,0x7,0xD,0xD,0x7
0001c4 0c0c
0001c5 0c0c
0001c6 0c0e
0001c7 060c      	.DB  0xC,0xC,0xC,0xC,0xE,0xC,0xC,0x6
0001c8 0d0c
0001c9 0007
0001ca 0000
0001cb 0700      	.DB  0xC,0xD,0x7,0x0,0x0,0x0,0x0,0x7
0001cc 0607
0001cd 0f05
0001ce 0c0c
0001cf 6d2c      	.DB  0x7,0x6,0x5,0xF,0xC,0xC,0x2C,0x6D
0001d0 0067
0001d1 0000
0001d2 0000
0001d3 0007      	.DB  0x67,0x0,0x0,0x0,0x0,0x0,0x7,0x0
0001d4 8080
0001d5 e7c0
0001d6 003e
0001d7 0000      	.DB  0x80,0x80,0xC0,0xE7,0x3E,0x0,0x0,0x0
0001d8 7800
0001d9 c0e0
0001da c0c0
0001db 60c0      	.DB  0x0,0x78,0xE0,0xC0,0xC0,0xC0,0xC0,0x60
0001dc 003f
0001dd 8f80
0001de edcd
0001df 0c3f      	.DB  0x3F,0x0,0x80,0x8F,0xCD,0xED,0x3F,0xC
0001e0 0c0c
0001e1 0c07
0001e2 0f0e
0001e3 0d0d      	.DB  0xC,0xC,0x7,0xC,0xE,0xF,0xD,0xD
0001e4 0f05
0001e5 0c0c
0001e6 0c0d
0001e7 0604      	.DB  0x5,0xF,0xC,0xC,0xD,0xC,0x4,0x6
0001e8 0703
0001e9 0c0d
0001ea 0c0c
0001eb 070c      	.DB  0x3,0x7,0xD,0xC,0xC,0xC,0xC,0x7
0001ec 0d0d
0001ed 0007
0001ee 0000
0001ef 0e00      	.DB  0xD,0xD,0x7,0x0,0x0,0x0,0x0,0xE
0001f0 0c0c
0001f1 070c
0001f2 0c07
0001f3 0c0c      	.DB  0xC,0xC,0xC,0x7,0x7,0xC,0xC,0xC
0001f4 0c0c
0001f5 0007
0001f6 0000
0001f7 0000      	.DB  0xC,0xC,0x7,0x0,0x0,0x0,0x0,0x0
0001f8 0000
0001f9 0000
0001fa 0000
0001fb 0000      	.DB  0x0,0x0,0x0,0x0,0x0,0x0,0x0,0x0
0001fc 0000
0001fd 0000
0001fe 0000
0001ff 0000      	.DB  0x0,0x0,0x0,0x0,0x0,0x0,0x0,0x0
000200 0000
000201 0000
000202 0000
000203 0000      	.DB  0x0,0x0,0x0,0x0,0x0,0x0,0x0,0x0
000204 0000
000205 0000
000206 0000
000207 0000      	.DB  0x0,0x0,0x0,0x0,0x0,0x0,0x0,0x0
000208 0000
000209 0000
00020a 0000
00020b 0000      	.DB  0x0,0x0,0x0,0x0,0x0,0x0,0x0,0x0
00020c 0000
00020d 0000
00020e 0000
00020f 0000      	.DB  0x0,0x0,0x0,0x0,0x0,0x0,0x0,0x0
000210 0000
000211 0000
000212 0000
000213 0000      	.DB  0x0,0x0,0x0,0x0,0x0,0x0,0x0,0x0
000214 0000
000215 0000
000216 0000
000217 0000      	.DB  0x0,0x0,0x0,0x0,0x0,0x0,0x0,0x0
000218 0000
000219 0000
00021a 0000
00021b 0000      	.DB  0x0,0x0,0x0,0x0,0x0,0x0,0x0,0x0
00021c 0000
00021d 0000
00021e 0000
00021f 0000      	.DB  0x0,0x0,0x0,0x0,0x0,0x0,0x0,0x0
000220 0000
000221 0000
000222 0000
000223 0000      	.DB  0x0,0x0,0x0,0x0,0x0,0x0,0x0,0x0
000224 0000
000225 0000
000226 0000
000227 0000      	.DB  0x0,0x0,0x0,0x0,0x0,0x0,0x0,0x0
000228 0000
000229 0000
00022a 0000
00022b 0000      	.DB  0x0,0x0,0x0,0x0,0x0,0x0,0x0,0x0
00022c 0000
00022d 0000
00022e 0000
00022f 0000      	.DB  0x0,0x0,0x0,0x0,0x0,0x0,0x0,0x0
000230 0000
000231 0000
000232 0000
000233 0000      	.DB  0x0,0x0,0x0,0x0,0x0,0x0,0x0,0x0
000234 0000
000235 0000
000236 0000
000237 0000      	.DB  0x0,0x0,0x0,0x0,0x0,0x0,0x0,0x0
000238 0000
000239 0000
00023a 0000
00023b 0000      	.DB  0x0,0x0,0x0,0x0,0x0,0x0,0x0,0x0
00023c 0000
00023d 0000
00023e 0000
00023f 0000      	.DB  0x0,0x0,0x0,0x0,0x0,0x0,0x0,0x0
000240 0000
000241 0000
000242 0000
000243 8000      	.DB  0x0,0x0,0x0,0x0,0x0,0x0,0x0,0x80
000244 0000
000245 0000
000246 0000
000247 0000      	.DB  0x0,0x0,0x0,0x0,0x0,0x0,0x0,0x0
000248 0000
000249 c080
00024a 0080
00024b 0000      	.DB  0x0,0x0,0x80,0xC0,0x80,0x0,0x0,0x0
00024c c0c0
00024d 6060
00024e 1070
00024f 0000      	.DB  0xC0,0xC0,0x60,0x60,0x70,0x10,0x0,0x0
000250 0000
000251 0000
000252 0000
000253 0000      	.DB  0x0,0x0,0x0,0x0,0x0,0x0,0x0,0x0
000254 c0c0
000255 60e0
000256 3060
000257 0000      	.DB  0xC0,0xC0,0xE0,0x60,0x60,0x30,0x0,0x0
000258 0000
000259 0000
00025a 0000
00025b e000      	.DB  0x0,0x0,0x0,0x0,0x0,0x0,0x0,0xE0
00025c 0000
00025d 0000
00025e 0000
00025f 0000      	.DB  0x0,0x0,0x0,0x0,0x0,0x0,0x0,0x0
000260 0000
000261 0000
000262 0000
000263 0000      	.DB  0x0,0x0,0x0,0x0,0x0,0x0,0x0,0x0
000264 0000
000265 0000
000266 0000
000267 0000      	.DB  0x0,0x0,0x0,0x0,0x0,0x0,0x0,0x0
000268 0000
000269 0000
00026a 0000
00026b 8080      	.DB  0x0,0x0,0x0,0x0,0x0,0x0,0x80,0x80
00026c 0000
00026d 0000
00026e 0000
00026f 0000      	.DB  0x0,0x0,0x0,0x0,0x0,0x0,0x0,0x0
000270 0000
000271 0000
000272 0000
000273 0000      	.DB  0x0,0x0,0x0,0x0,0x0,0x0,0x0,0x0
000274 0000
000275 0000
000276 0000
000277 0000      	.DB  0x0,0x0,0x0,0x0,0x0,0x0,0x0,0x0
000278 0000
000279 0000
00027a 0000
00027b 0000      	.DB  0x0,0x0,0x0,0x0,0x0,0x0,0x0,0x0
00027c 0000
00027d 0000
00027e 0000
00027f 0000      	.DB  0x0,0x0,0x0,0x0,0x0,0x0,0x0,0x0
000280 0000
000281 3800
000282 3030
000283 1f31      	.DB  0x0,0x0,0x0,0x38,0x30,0x30,0x31,0x1F
000284 301c
000285 3030
000286 1830
000287 301c      	.DB  0x1C,0x30,0x30,0x30,0x30,0x18,0x1C,0x30
000288 3030
000289 3130
00028a 3018
00028b 3030      	.DB  0x30,0x30,0x30,0x31,0x18,0x30,0x30,0x30
00028c 3331
00028d 001e
00028e 0000
00028f 0000      	.DB  0x31,0x33,0x1E,0x0,0x0,0x0,0x0,0x0
000290 1c00
000291 3030
000292 3030
000293 3030      	.DB  0x0,0x1C,0x30,0x30,0x30,0x30,0x30,0x30
000294 3331
000295 0c1e
000296 3018
000297 3030      	.DB  0x31,0x33,0x1E,0xC,0x18,0x30,0x30,0x30
000298 3030
000299 361c
00029a 1c36
00029b 1f00      	.DB  0x30,0x30,0x1C,0x36,0x36,0x1C,0x0,0x1F
00029c 3030
00029d 3000
00029e 1830
00029f 301c      	.DB  0x30,0x30,0x0,0x30,0x30,0x18,0x1C,0x30
0002a0 3030
0002a1 1eb4
0002a2 0080
0002a3 0000      	.DB  0x30,0x30,0xB4,0x1E,0x80,0x0,0x0,0x0
0002a4 0000
0002a5 0000
0002a6 d80c
0002a7 3030      	.DB  0x0,0x0,0x0,0x0,0xC,0xD8,0x30,0x30
0002a8 1e34
0002a9 0000
0002aa 0000
0002ab 9d01      	.DB  0x34,0x1E,0x0,0x0,0x0,0x0,0x1,0x9D
0002ac 00f9
0002ad 0000
0002ae 0000
0002af 0000      	.DB  0xF9,0x0,0x0,0x0,0x0,0x0,0x0,0x0
0002b0 0000
0002b1 0000
0002b2 0000
0002b3 0000      	.DB  0x0,0x0,0x0,0x0,0x0,0x0,0x0,0x0
0002b4 0000
0002b5 0000
0002b6 0000
0002b7 0000      	.DB  0x0,0x0,0x0,0x0,0x0,0x0,0x0,0x0
0002b8 0000
0002b9 0000
0002ba 0000
0002bb 0000      	.DB  0x0,0x0,0x0,0x0,0x0,0x0,0x0,0x0
0002bc 0000
0002bd 0000
0002be 0000
0002bf 0000      	.DB  0x0,0x0,0x0,0x0,0x0,0x0,0x0,0x0
0002c0 0000
0002c1 0000
0002c2 0000
0002c3 0000      	.DB  0x0,0x0,0x0,0x0,0x0,0x0,0x0,0x0
0002c4 0000
0002c5 0000
0002c6 0101
0002c7 0101      	.DB  0x0,0x0,0x0,0x0,0x1,0x1,0x1,0x1
0002c8 0000
0002c9 0000
0002ca 0000
0002cb 0000      	.DB  0x0,0x0,0x0,0x0,0x0,0x0,0x0,0x0
0002cc 0000
0002cd 0000
0002ce 0000
0002cf 0000      	.DB  0x0,0x0,0x0,0x0,0x0,0x0,0x0,0x0
0002d0 0000
0002d1 0000
0002d2 0000
0002d3 0000      	.DB  0x0,0x0,0x0,0x0,0x0,0x0,0x0,0x0
0002d4 0000
0002d5 0000
0002d6 0000
0002d7 0000      	.DB  0x0,0x0,0x0,0x0,0x0,0x0,0x0,0x0
0002d8 0000
0002d9 0000
0002da 0000
0002db 0000      	.DB  0x0,0x0,0x0,0x0,0x0,0x0,0x0,0x0
0002dc 0000
0002dd 0000
0002de 0101
0002df 0101      	.DB  0x0,0x0,0x0,0x0,0x1,0x1,0x1,0x1
0002e0 0000
0002e1 0201
0002e2 0001
0002e3 0000      	.DB  0x0,0x0,0x1,0x2,0x1,0x0,0x0,0x0
0002e4 0200
0002e5 0302
0002e6 0103
0002e7 0000      	.DB  0x0,0x2,0x2,0x3,0x3,0x1,0x0,0x0
0002e8 0001
0002e9 0001
0002ea 0202
0002eb 0303      	.DB  0x1,0x0,0x1,0x0,0x2,0x2,0x3,0x3
0002ec 0000
0002ed 0000
0002ee 0000
0002ef 0000      	.DB  0x0,0x0,0x0,0x0,0x0,0x0,0x0,0x0
0002f0 0000
0002f1 0000
0002f2 0000
0002f3 0000      	.DB  0x0,0x0,0x0,0x0,0x0,0x0,0x0,0x0
0002f4 0000
0002f5 0000
0002f6 0000
0002f7 0000      	.DB  0x0,0x0,0x0,0x0,0x0,0x0,0x0,0x0
0002f8 0000
0002f9 0000
0002fa 0000
0002fb 0000      	.DB  0x0,0x0,0x0,0x0,0x0,0x0,0x0,0x0
0002fc 0000
0002fd 0000
0002fe 0000
0002ff 0000      	.DB  0x0,0x0,0x0,0x0,0x0,0x0,0x0,0x0
000300 0000
000301 0000
000302 0000
000303 0000      	.DB  0x0,0x0,0x0,0x0,0x0,0x0,0x0,0x0
000304 0000
000305 0000
000306 0000
000307 0000      	.DB  0x0,0x0,0x0,0x0,0x0,0x0,0x0,0x0
000308 0000
000309 0000
00030a 0000
00030b 0000      	.DB  0x0,0x0,0x0,0x0,0x0,0x0,0x0,0x0
00030c 0000
00030d 0000
00030e 0000
00030f 0000      	.DB  0x0,0x0,0x0,0x0,0x0,0x0,0x0,0x0
000310 0000
000311 0000
000312 0000
000313 0000      	.DB  0x0,0x0,0x0,0x0,0x0,0x0,0x0,0x0
000314 0000
000315 0000
000316 0000
000317 0000      	.DB  0x0,0x0,0x0,0x0,0x0,0x0,0x0,0x0
000318 0000
000319 0000
00031a 0000
00031b 0000      	.DB  0x0,0x0,0x0,0x0,0x0,0x0,0x0,0x0
00031c 0000
00031d 0000
00031e 0000
00031f 0000      	.DB  0x0,0x0,0x0,0x0,0x0,0x0,0x0,0x0
000320 0000
000321 0000
000322 0000
000323 0000      	.DB  0x0,0x0,0x0,0x0,0x0,0x0,0x0,0x0
000324 0000
000325 0000
000326 0000
000327 0000      	.DB  0x0,0x0,0x0,0x0,0x0,0x0,0x0,0x0
000328 0000
000329 0000
00032a 0000
00032b 0000      	.DB  0x0,0x0,0x0,0x0,0x0,0x0,0x0,0x0
00032c 0000
00032d 0000
00032e 0000
00032f 0000      	.DB  0x0,0x0,0x0,0x0,0x0,0x0,0x0,0x0
000330 0000
000331 0000
000332 0000
000333 0000      	.DB  0x0,0x0,0x0,0x0,0x0,0x0,0x0,0x0
000334 0000
000335 0000
000336 0000
000337 0000      	.DB  0x0,0x0,0x0,0x0,0x0,0x0,0x0,0x0
                 _mahsol_ra_bardarid:
000338 0000
000339 0000
00033a 0000
00033b 0000      	.DB  0x0,0x0,0x0,0x0,0x0,0x0,0x0,0x0
00033c 0000
00033d 0000
00033e 0000
00033f 0000      	.DB  0x0,0x0,0x0,0x0,0x0,0x0,0x0,0x0
000340 0000
000341 0000
000342 0000
000343 0000      	.DB  0x0,0x0,0x0,0x0,0x0,0x0,0x0,0x0
000344 0000
000345 0000
000346 0000
000347 0000      	.DB  0x0,0x0,0x0,0x0,0x0,0x0,0x0,0x0
000348 0000
000349 0000
00034a 0000
00034b 0000      	.DB  0x0,0x0,0x0,0x0,0x0,0x0,0x0,0x0
00034c 0000
00034d 0000
00034e 0000
00034f 0000      	.DB  0x0,0x0,0x0,0x0,0x0,0x0,0x0,0x0
000350 0000
000351 0000
000352 0000
000353 0000      	.DB  0x0,0x0,0x0,0x0,0x0,0x0,0x0,0x0
000354 0000
000355 0000
000356 0000
000357 0000      	.DB  0x0,0x0,0x0,0x0,0x0,0x0,0x0,0x0
000358 0000
000359 0000
00035a 0000
00035b 0000      	.DB  0x0,0x0,0x0,0x0,0x0,0x0,0x0,0x0
00035c 0000
00035d 0000
00035e 0000
00035f 0000      	.DB  0x0,0x0,0x0,0x0,0x0,0x0,0x0,0x0
000360 0000
000361 0000
000362 0000
000363 0000      	.DB  0x0,0x0,0x0,0x0,0x0,0x0,0x0,0x0
000364 0000
000365 0000
000366 0000
000367 0000      	.DB  0x0,0x0,0x0,0x0,0x0,0x0,0x0,0x0
000368 0000
000369 0000
00036a 0000
00036b 0000      	.DB  0x0,0x0,0x0,0x0,0x0,0x0,0x0,0x0
00036c 0000
00036d 0000
00036e 0000
00036f 0000      	.DB  0x0,0x0,0x0,0x0,0x0,0x0,0x0,0x0
000370 0000
000371 0000
000372 0000
000373 0000      	.DB  0x0,0x0,0x0,0x0,0x0,0x0,0x0,0x0
000374 0000
000375 0000
000376 0000
000377 0000      	.DB  0x0,0x0,0x0,0x0,0x0,0x0,0x0,0x0
000378 0000
000379 0000
00037a 0000
00037b 0000      	.DB  0x0,0x0,0x0,0x0,0x0,0x0,0x0,0x0
00037c 0000
00037d 0000
00037e 0000
00037f 0000      	.DB  0x0,0x0,0x0,0x0,0x0,0x0,0x0,0x0
000380 0000
000381 0000
000382 0000
000383 0000      	.DB  0x0,0x0,0x0,0x0,0x0,0x0,0x0,0x0
000384 0000
000385 0000
000386 0000
000387 0000      	.DB  0x0,0x0,0x0,0x0,0x0,0x0,0x0,0x0
000388 0000
000389 0000
00038a 0000
00038b 0000      	.DB  0x0,0x0,0x0,0x0,0x0,0x0,0x0,0x0
00038c 0000
00038d 0000
00038e 0000
00038f 0000      	.DB  0x0,0x0,0x0,0x0,0x0,0x0,0x0,0x0
000390 0000
000391 0000
000392 0000
000393 0000      	.DB  0x0,0x0,0x0,0x0,0x0,0x0,0x0,0x0
000394 0000
000395 0000
000396 0000
000397 0000      	.DB  0x0,0x0,0x0,0x0,0x0,0x0,0x0,0x0
000398 0000
000399 0000
00039a 0000
00039b 0000      	.DB  0x0,0x0,0x0,0x0,0x0,0x0,0x0,0x0
00039c 0000
00039d 0000
00039e 0000
00039f 0000      	.DB  0x0,0x0,0x0,0x0,0x0,0x0,0x0,0x0
0003a0 0000
0003a1 0000
0003a2 0000
0003a3 0000      	.DB  0x0,0x0,0x0,0x0,0x0,0x0,0x0,0x0
0003a4 0000
0003a5 0000
0003a6 0000
0003a7 0000      	.DB  0x0,0x0,0x0,0x0,0x0,0x0,0x0,0x0
0003a8 0000
0003a9 0000
0003aa 0000
0003ab 0000      	.DB  0x0,0x0,0x0,0x0,0x0,0x0,0x0,0x0
0003ac 0000
0003ad 0000
0003ae 0000
0003af 0000      	.DB  0x0,0x0,0x0,0x0,0x0,0x0,0x0,0x0
0003b0 0000
0003b1 0000
0003b2 0000
0003b3 0000      	.DB  0x0,0x0,0x0,0x0,0x0,0x0,0x0,0x0
0003b4 0000
0003b5 0000
0003b6 0000
0003b7 0000      	.DB  0x0,0x0,0x0,0x0,0x0,0x0,0x0,0x0
0003b8 0000
0003b9 0000
0003ba 0000
0003bb 0000      	.DB  0x0,0x0,0x0,0x0,0x0,0x0,0x0,0x0
0003bc 0000
0003bd 0000
0003be 0000
0003bf 0000      	.DB  0x0,0x0,0x0,0x0,0x0,0x0,0x0,0x0
0003c0 0000
0003c1 0000
0003c2 0000
0003c3 0000      	.DB  0x0,0x0,0x0,0x0,0x0,0x0,0x0,0x0
0003c4 0000
0003c5 0000
0003c6 0000
0003c7 0000      	.DB  0x0,0x0,0x0,0x0,0x0,0x0,0x0,0x0
0003c8 0000
0003c9 0000
0003ca 0000
0003cb 0000      	.DB  0x0,0x0,0x0,0x0,0x0,0x0,0x0,0x0
0003cc 0000
0003cd 0000
0003ce 0000
0003cf 0000      	.DB  0x0,0x0,0x0,0x0,0x0,0x0,0x0,0x0
0003d0 0000
0003d1 0000
0003d2 0000
0003d3 0000      	.DB  0x0,0x0,0x0,0x0,0x0,0x0,0x0,0x0
0003d4 0000
0003d5 0000
0003d6 0000
0003d7 0000      	.DB  0x0,0x0,0x0,0x0,0x0,0x0,0x0,0x0
0003d8 0000
0003d9 0000
0003da 0000
0003db 0000      	.DB  0x0,0x0,0x0,0x0,0x0,0x0,0x0,0x0
0003dc 0000
0003dd 0000
0003de 0000
0003df 0000      	.DB  0x0,0x0,0x0,0x0,0x0,0x0,0x0,0x0
0003e0 0000
0003e1 0000
0003e2 0000
0003e3 0000      	.DB  0x0,0x0,0x0,0x0,0x0,0x0,0x0,0x0
0003e4 0000
0003e5 0000
0003e6 0000
0003e7 0000      	.DB  0x0,0x0,0x0,0x0,0x0,0x0,0x0,0x0
0003e8 0000
0003e9 0000
0003ea 0000
0003eb 0000      	.DB  0x0,0x0,0x0,0x0,0x0,0x0,0x0,0x0
0003ec 0000
0003ed 0000
0003ee 0000
0003ef 0000      	.DB  0x0,0x0,0x0,0x0,0x0,0x0,0x0,0x0
0003f0 0000
0003f1 0000
0003f2 0000
0003f3 0000      	.DB  0x0,0x0,0x0,0x0,0x0,0x0,0x0,0x0
0003f4 0000
0003f5 0000
0003f6 0000
0003f7 0000      	.DB  0x0,0x0,0x0,0x0,0x0,0x0,0x0,0x0
0003f8 0000
0003f9 0000
0003fa 0000
0003fb 0000      	.DB  0x0,0x0,0x0,0x0,0x0,0x0,0x0,0x0
0003fc 0000
0003fd 0000
0003fe 0000
0003ff 0000      	.DB  0x0,0x0,0x0,0x0,0x0,0x0,0x0,0x0
000400 0000
000401 0000
000402 0000
000403 0000      	.DB  0x0,0x0,0x0,0x0,0x0,0x0,0x0,0x0
000404 0000
000405 0000
000406 0000
000407 0000      	.DB  0x0,0x0,0x0,0x0,0x0,0x0,0x0,0x0
000408 0000
000409 0000
00040a 0000
00040b 0000      	.DB  0x0,0x0,0x0,0x0,0x0,0x0,0x0,0x0
00040c 0000
00040d 0000
00040e 0000
00040f 0000      	.DB  0x0,0x0,0x0,0x0,0x0,0x0,0x0,0x0
000410 0000
000411 0000
000412 0000
000413 0000      	.DB  0x0,0x0,0x0,0x0,0x0,0x0,0x0,0x0
000414 0000
000415 0000
000416 0000
000417 0000      	.DB  0x0,0x0,0x0,0x0,0x0,0x0,0x0,0x0
000418 0000
000419 0000
00041a 0000
00041b 0000      	.DB  0x0,0x0,0x0,0x0,0x0,0x0,0x0,0x0
00041c 0000
00041d 0000
00041e 0000
00041f 0000      	.DB  0x0,0x0,0x0,0x0,0x0,0x0,0x0,0x0
000420 0000
000421 0000
000422 0000
000423 0000      	.DB  0x0,0x0,0x0,0x0,0x0,0x0,0x0,0x0
000424 0000
000425 0000
000426 0000
000427 0000      	.DB  0x0,0x0,0x0,0x0,0x0,0x0,0x0,0x0
000428 0000
000429 0000
00042a 0000
00042b 0000      	.DB  0x0,0x0,0x0,0x0,0x0,0x0,0x0,0x0
00042c 0000
00042d 0000
00042e 0000
00042f 0000      	.DB  0x0,0x0,0x0,0x0,0x0,0x0,0x0,0x0
000430 0000
000431 0000
000432 0000
000433 0000      	.DB  0x0,0x0,0x0,0x0,0x0,0x0,0x0,0x0
000434 0000
000435 0000
000436 0000
000437 0000      	.DB  0x0,0x0,0x0,0x0,0x0,0x0,0x0,0x0
000438 0000
000439 0000
00043a 0000
00043b 0000      	.DB  0x0,0x0,0x0,0x0,0x0,0x0,0x0,0x0
00043c 0000
00043d 0000
00043e 0000
00043f 0000      	.DB  0x0,0x0,0x0,0x0,0x0,0x0,0x0,0x0
000440 c000
000441 00c0
000442 0000
000443 0000      	.DB  0x0,0xC0,0xC0,0x0,0x0,0x0,0x0,0x0
000444 8000
000445 0080
000446 0000
000447 0000      	.DB  0x0,0x80,0x80,0x0,0x0,0x0,0x0,0x0
000448 0000
000449 fcfc
00044a 0000
00044b 4000      	.DB  0x0,0x0,0xFC,0xFC,0x0,0x0,0x0,0x40
00044c c040
00044d 00c0
00044e 0000
00044f 0000      	.DB  0x40,0xC0,0xC0,0x0,0x0,0x0,0x0,0x0
000450 0000
000451 0000
000452 8080
000453 0000      	.DB  0x0,0x0,0x0,0x0,0x80,0x80,0x0,0x0
000454 0000
000455 fc00
000456 00fc
000457 0000      	.DB  0x0,0x0,0x0,0xFC,0xFC,0x0,0x0,0x0
000458 0000
000459 0000
00045a 0000
00045b 0000      	.DB  0x0,0x0,0x0,0x0,0x0,0x0,0x0,0x0
00045c 0000
00045d 0000
00045e fc04
00045f 00fc      	.DB  0x0,0x0,0x0,0x0,0x4,0xFC,0xFC,0x0
000460 0000
000461 8080
000462 0000
000463 0000      	.DB  0x0,0x0,0x80,0x80,0x0,0x0,0x0,0x0
000464 0000
000465 0000
000466 0000
000467 8080      	.DB  0x0,0x0,0x0,0x0,0x0,0x0,0x80,0x80
000468 8080
000469 0000
00046a 8000
00046b 8080      	.DB  0x80,0x80,0x0,0x0,0x0,0x80,0x80,0x80
00046c 8080
00046d 0080
00046e 0000
00046f 0000      	.DB  0x80,0x80,0x80,0x0,0x0,0x0,0x0,0x0
000470 0000
000471 8080
000472 0080
000473 0000      	.DB  0x0,0x0,0x80,0x80,0x80,0x0,0x0,0x0
000474 0000
000475 0000
000476 0000
000477 0000      	.DB  0x0,0x0,0x0,0x0,0x0,0x0,0x0,0x0
000478 0000
000479 0000
00047a 0000
00047b 0000      	.DB  0x0,0x0,0x0,0x0,0x0,0x0,0x0,0x0
00047c 0000
00047d 0c0c
00047e 0000
00047f 0e0e      	.DB  0x0,0x0,0xC,0xC,0x0,0x0,0xE,0xE
000480 0808
000481 0f0f
000482 2808
000483 6868      	.DB  0x8,0x8,0xF,0xF,0x8,0x28,0x68,0x68
000484 4f68
000485 400f
000486 6340
000487 1c7f      	.DB  0x68,0x4F,0xF,0x40,0x40,0x63,0x7F,0x1C
000488 0000
000489 0f0f
00048a 0000
00048b 0e0e      	.DB  0x0,0x0,0xF,0xF,0x0,0x0,0xE,0xE
00048c 0808
00048d 070f
00048e 4040
00048f 7f61      	.DB  0x8,0x8,0xF,0x7,0x40,0x40,0x61,0x7F
000490 083f
000491 6868
000492 0f4f
000493 0000      	.DB  0x3F,0x8,0x68,0x68,0x4F,0xF,0x0,0x0
000494 0000
000495 0f00
000496 400f
000497 6140      	.DB  0x0,0x0,0x0,0xF,0xF,0x40,0x40,0x61
000498 3f7f
000499 0000
00049a 0000
00049b 3e00      	.DB  0x7F,0x3F,0x0,0x0,0x0,0x0,0x0,0x3E
00049c 607e
00049d 6040
00049e 3f60
00049f 001f      	.DB  0x7E,0x60,0x40,0x60,0x60,0x3F,0x1F,0x0
0004a0 4f00
0004a1 494f
0004a2 3f7b
0004a3 080c      	.DB  0x0,0x4F,0x4F,0x49,0x7B,0x3F,0xC,0x8
0004a4 0808
0004a5 0f0f
0004a6 0b0e
0004a7 0809      	.DB  0x8,0x8,0xF,0xF,0xE,0xB,0x9,0x8
0004a8 0f09
0004a9 080f
0004aa 0b08
0004ab 0c0b      	.DB  0x9,0xF,0xF,0x8,0x8,0xB,0xB,0xC
0004ac 060c
0004ad 0d0f
0004ae 0809
0004af 0c08      	.DB  0xC,0x6,0xF,0xD,0x9,0x8,0x8,0xC
0004b0 0f06
0004b1 0f0d
0004b2 000f
0004b3 0000      	.DB  0x6,0xF,0xD,0xF,0xF,0x0,0x0,0x0
0004b4 0000
0004b5 0000
0004b6 0000
0004b7 0000      	.DB  0x0,0x0,0x0,0x0,0x0,0x0,0x0,0x0
0004b8 0000
0004b9 0000
0004ba 0000
0004bb 0000      	.DB  0x0,0x0,0x0,0x0,0x0,0x0,0x0,0x0
0004bc 0000
0004bd 0000
0004be 0000
0004bf 0000      	.DB  0x0,0x0,0x0,0x0,0x0,0x0,0x0,0x0
0004c0 0000
0004c1 0000
0004c2 0000
0004c3 0000      	.DB  0x0,0x0,0x0,0x0,0x0,0x0,0x0,0x0
0004c4 0000
0004c5 0000
0004c6 0000
0004c7 0000      	.DB  0x0,0x0,0x0,0x0,0x0,0x0,0x0,0x0
0004c8 0000
0004c9 0000
0004ca 0000
0004cb 0000      	.DB  0x0,0x0,0x0,0x0,0x0,0x0,0x0,0x0
0004cc 0000
0004cd 0000
0004ce 0000
0004cf 0000      	.DB  0x0,0x0,0x0,0x0,0x0,0x0,0x0,0x0
0004d0 0000
0004d1 0000
0004d2 0000
0004d3 0000      	.DB  0x0,0x0,0x0,0x0,0x0,0x0,0x0,0x0
0004d4 0000
0004d5 0000
0004d6 0000
0004d7 0000      	.DB  0x0,0x0,0x0,0x0,0x0,0x0,0x0,0x0
0004d8 0000
0004d9 0000
0004da 0000
0004db 0000      	.DB  0x0,0x0,0x0,0x0,0x0,0x0,0x0,0x0
0004dc 0000
0004dd 0000
0004de 0000
0004df 0000      	.DB  0x0,0x0,0x0,0x0,0x0,0x0,0x0,0x0
0004e0 0000
0004e1 0000
0004e2 0000
0004e3 0000      	.DB  0x0,0x0,0x0,0x0,0x0,0x0,0x0,0x0
0004e4 0000
0004e5 0000
0004e6 0000
0004e7 0000      	.DB  0x0,0x0,0x0,0x0,0x0,0x0,0x0,0x0
0004e8 0000
0004e9 0000
0004ea 0000
0004eb 0000      	.DB  0x0,0x0,0x0,0x0,0x0,0x0,0x0,0x0
0004ec 0000
0004ed 0000
0004ee 0000
0004ef 0000      	.DB  0x0,0x0,0x0,0x0,0x0,0x0,0x0,0x0
0004f0 0000
0004f1 0000
0004f2 0000
0004f3 0000      	.DB  0x0,0x0,0x0,0x0,0x0,0x0,0x0,0x0
0004f4 0000
0004f5 0000
0004f6 0000
0004f7 0000      	.DB  0x0,0x0,0x0,0x0,0x0,0x0,0x0,0x0
0004f8 0000
0004f9 0000
0004fa 0000
0004fb 0000      	.DB  0x0,0x0,0x0,0x0,0x0,0x0,0x0,0x0
0004fc 0000
0004fd 0000
0004fe 0000
0004ff 0000      	.DB  0x0,0x0,0x0,0x0,0x0,0x0,0x0,0x0
000500 0000
000501 0000
000502 0000
000503 0000      	.DB  0x0,0x0,0x0,0x0,0x0,0x0,0x0,0x0
000504 0000
000505 0000
000506 0000
000507 0000      	.DB  0x0,0x0,0x0,0x0,0x0,0x0,0x0,0x0
000508 0000
000509 0000
00050a 0000
00050b 0000      	.DB  0x0,0x0,0x0,0x0,0x0,0x0,0x0,0x0
00050c 0000
00050d 0000
00050e 0000
00050f 0000      	.DB  0x0,0x0,0x0,0x0,0x0,0x0,0x0,0x0
000510 0000
000511 0000
000512 0000
000513 0000      	.DB  0x0,0x0,0x0,0x0,0x0,0x0,0x0,0x0
000514 0000
000515 0000
000516 0000
000517 0000      	.DB  0x0,0x0,0x0,0x0,0x0,0x0,0x0,0x0
000518 0000
000519 0000
00051a 0000
00051b 0000      	.DB  0x0,0x0,0x0,0x0,0x0,0x0,0x0,0x0
00051c 0000
00051d 0000
00051e 0000
00051f 0000      	.DB  0x0,0x0,0x0,0x0,0x0,0x0,0x0,0x0
000520 0000
000521 0000
000522 0000
000523 0000      	.DB  0x0,0x0,0x0,0x0,0x0,0x0,0x0,0x0
000524 0000
000525 0000
000526 0000
000527 0000      	.DB  0x0,0x0,0x0,0x0,0x0,0x0,0x0,0x0
000528 0000
000529 0000
00052a 0000
00052b 0000      	.DB  0x0,0x0,0x0,0x0,0x0,0x0,0x0,0x0
00052c 0000
00052d 0000
00052e 0000
00052f 0000      	.DB  0x0,0x0,0x0,0x0,0x0,0x0,0x0,0x0
000530 0000
000531 0000
000532 0000
000533 0000      	.DB  0x0,0x0,0x0,0x0,0x0,0x0,0x0,0x0
000534 0000
000535 0000
000536 0000
000537 0000      	.DB  0x0,0x0,0x0,0x0,0x0,0x0,0x0,0x0
                 _adad_ra_vared_namaeid:
000538 0000
000539 0000
00053a 0000
00053b 0000      	.DB  0x0,0x0,0x0,0x0,0x0,0x0,0x0,0x0
00053c 0000
00053d 0000
00053e 0000
00053f 0000      	.DB  0x0,0x0,0x0,0x0,0x0,0x0,0x0,0x0
000540 0000
000541 0000
000542 0000
000543 0000      	.DB  0x0,0x0,0x0,0x0,0x0,0x0,0x0,0x0
000544 0000
000545 0000
000546 0000
000547 0000      	.DB  0x0,0x0,0x0,0x0,0x0,0x0,0x0,0x0
000548 0000
000549 0000
00054a 0000
00054b 0000      	.DB  0x0,0x0,0x0,0x0,0x0,0x0,0x0,0x0
00054c 0000
00054d 0000
00054e 0000
00054f 0000      	.DB  0x0,0x0,0x0,0x0,0x0,0x0,0x0,0x0
000550 0000
000551 0000
000552 0000
000553 0000      	.DB  0x0,0x0,0x0,0x0,0x0,0x0,0x0,0x0
000554 0000
000555 0000
000556 0000
000557 0000      	.DB  0x0,0x0,0x0,0x0,0x0,0x0,0x0,0x0
000558 0000
000559 0000
00055a 0000
00055b 0000      	.DB  0x0,0x0,0x0,0x0,0x0,0x0,0x0,0x0
00055c 0000
00055d 0000
00055e 0000
00055f 0000      	.DB  0x0,0x0,0x0,0x0,0x0,0x0,0x0,0x0
000560 0000
000561 0000
000562 0000
000563 0000      	.DB  0x0,0x0,0x0,0x0,0x0,0x0,0x0,0x0
000564 0000
000565 0000
000566 0000
000567 0000      	.DB  0x0,0x0,0x0,0x0,0x0,0x0,0x0,0x0
000568 0000
000569 0000
00056a 0000
00056b 0000      	.DB  0x0,0x0,0x0,0x0,0x0,0x0,0x0,0x0
00056c 0000
00056d 0000
00056e 0000
00056f 0000      	.DB  0x0,0x0,0x0,0x0,0x0,0x0,0x0,0x0
000570 0000
000571 0000
000572 0000
000573 0000      	.DB  0x0,0x0,0x0,0x0,0x0,0x0,0x0,0x0
000574 0000
000575 0000
000576 0000
000577 0000      	.DB  0x0,0x0,0x0,0x0,0x0,0x0,0x0,0x0
000578 0000
000579 0000
00057a 0000
00057b 0000      	.DB  0x0,0x0,0x0,0x0,0x0,0x0,0x0,0x0
00057c 0000
00057d 0000
00057e 0000
00057f 0000      	.DB  0x0,0x0,0x0,0x0,0x0,0x0,0x0,0x0
000580 0000
000581 c0c0
000582 0000
000583 0000      	.DB  0x0,0x0,0xC0,0xC0,0x0,0x0,0x0,0x0
000584 0000
000585 0000
000586 0000
000587 8080      	.DB  0x0,0x0,0x0,0x0,0x0,0x0,0x80,0x80
000588 0000
000589 fcfc
00058a 0000
00058b 0000      	.DB  0x0,0x0,0xFC,0xFC,0x0,0x0,0x0,0x0
00058c 8000
00058d 8080
00058e 0000
00058f 1000      	.DB  0x0,0x80,0x80,0x80,0x0,0x0,0x0,0x10
000590 a0b0
000591 0000
000592 0000
000593 0000      	.DB  0xB0,0xA0,0x0,0x0,0x0,0x0,0x0,0x0
000594 4040
000595 c0c0
000596 0000
000597 0000      	.DB  0x40,0x40,0xC0,0xC0,0x0,0x0,0x0,0x0
000598 0000
000599 0000
00059a fcfc
00059b 0000      	.DB  0x0,0x0,0x0,0x0,0xFC,0xFC,0x0,0x0
00059c 8000
00059d 0080
00059e 0000
00059f 0000      	.DB  0x0,0x80,0x80,0x0,0x0,0x0,0x0,0x0
0005a0 0000
0005a1 fcfc
0005a2 0000
0005a3 0000      	.DB  0x0,0x0,0xFC,0xFC,0x0,0x0,0x0,0x0
0005a4 0000
0005a5 0000
0005a6 0000
0005a7 4000      	.DB  0x0,0x0,0x0,0x0,0x0,0x0,0x0,0x40
0005a8 c040
0005a9 00c0
0005aa 0000
0005ab 0000      	.DB  0x40,0xC0,0xC0,0x0,0x0,0x0,0x0,0x0
0005ac c000
0005ad 00c0
0005ae 0000
0005af c080      	.DB  0x0,0xC0,0xC0,0x0,0x0,0x0,0x80,0xC0
0005b0 c0c0
0005b1 00c0
0005b2 0000
0005b3 0000      	.DB  0xC0,0xC0,0xC0,0x0,0x0,0x0,0x0,0x0
0005b4 0000
0005b5 0000
0005b6 0000
0005b7 0000      	.DB  0x0,0x0,0x0,0x0,0x0,0x0,0x0,0x0
0005b8 0000
0005b9 0000
0005ba 0000
0005bb 0000      	.DB  0x0,0x0,0x0,0x0,0x0,0x0,0x0,0x0
0005bc 0000
0005bd 0c00
0005be 000c
0005bf 0e00      	.DB  0x0,0x0,0x0,0xC,0xC,0x0,0x0,0xE
0005c0 080e
0005c1 0f08
0005c2 080f
0005c3 6848      	.DB  0xE,0x8,0x8,0xF,0xF,0x8,0x48,0x68
0005c4 6f68
0005c5 686f
0005c6 6868
0005c7 4f6f      	.DB  0x68,0x6F,0x6F,0x68,0x68,0x68,0x6F,0x4F
0005c8 0000
0005c9 0f07
0005ca 0808
0005cb 060c      	.DB  0x0,0x0,0x7,0xF,0x8,0x8,0xC,0x6
0005cc 0d0f
0005cd 0f0b
0005ce 080c
0005cf 0808      	.DB  0xF,0xD,0xB,0xF,0xC,0x8,0x8,0x8
0005d0 0f0f
0005d1 0000
0005d2 0000
0005d3 0e00      	.DB  0xF,0xF,0x0,0x0,0x0,0x0,0x0,0xE
0005d4 080e
0005d5 0f08
0005d6 4007
0005d7 6140      	.DB  0xE,0x8,0x8,0xF,0x7,0x40,0x40,0x61
0005d8 3f7f
0005d9 0000
0005da 0f0f
0005db 0000      	.DB  0x7F,0x3F,0x0,0x0,0xF,0xF,0x0,0x0
0005dc 4f4f
0005dd 7f69
0005de 003f
0005df 0000      	.DB  0x4F,0x4F,0x69,0x7F,0x3F,0x0,0x0,0x0
0005e0 0000
0005e1 0f0f
0005e2 4040
0005e3 7f61      	.DB  0x0,0x0,0xF,0xF,0x40,0x40,0x61,0x7F
0005e4 003f
0005e5 0000
0005e6 0000
0005e7 0e0e      	.DB  0x3F,0x0,0x0,0x0,0x0,0x0,0xE,0xE
0005e8 0808
0005e9 070f
0005ea 0000
0005eb 0e0e      	.DB  0x8,0x8,0xF,0x7,0x0,0x0,0xE,0xE
0005ec 0808
0005ed 0f0f
0005ee 0808
0005ef 0f0b      	.DB  0x8,0x8,0xF,0xF,0x8,0x8,0xB,0xF
0005f0 0c0c
0005f1 0404
0005f2 0000
0005f3 0000      	.DB  0xC,0xC,0x4,0x4,0x0,0x0,0x0,0x0
0005f4 0000
0005f5 0000
0005f6 0000
0005f7 0000      	.DB  0x0,0x0,0x0,0x0,0x0,0x0,0x0,0x0
0005f8 0000
0005f9 0000
0005fa 0000
0005fb 0000      	.DB  0x0,0x0,0x0,0x0,0x0,0x0,0x0,0x0
0005fc 8080
0005fd 0000
0005fe 0000
0005ff 0000      	.DB  0x80,0x80,0x0,0x0,0x0,0x0,0x0,0x0
000600 0000
000601 0000
000602 0000
000603 0000      	.DB  0x0,0x0,0x0,0x0,0x0,0x0,0x0,0x0
000604 0000
000605 0000
000606 0000
000607 0000      	.DB  0x0,0x0,0x0,0x0,0x0,0x0,0x0,0x0
000608 0000
000609 0000
00060a 0000
00060b 0000      	.DB  0x0,0x0,0x0,0x0,0x0,0x0,0x0,0x0
00060c 0000
00060d 0000
00060e 0000
00060f 0000      	.DB  0x0,0x0,0x0,0x0,0x0,0x0,0x0,0x0
000610 0000
000611 0000
000612 0000
000613 0000      	.DB  0x0,0x0,0x0,0x0,0x0,0x0,0x0,0x0
000614 0000
000615 0000
000616 0000
000617 0000      	.DB  0x0,0x0,0x0,0x0,0x0,0x0,0x0,0x0
000618 0000
000619 0000
00061a 0000
00061b 0000      	.DB  0x0,0x0,0x0,0x0,0x0,0x0,0x0,0x0
00061c 0000
00061d 0000
00061e 0000
00061f 0000      	.DB  0x0,0x0,0x0,0x0,0x0,0x0,0x0,0x0
000620 0000
000621 0000
000622 0000
000623 0000      	.DB  0x0,0x0,0x0,0x0,0x0,0x0,0x0,0x0
000624 0000
000625 0000
000626 0000
000627 0000      	.DB  0x0,0x0,0x0,0x0,0x0,0x0,0x0,0x0
000628 0000
000629 0000
00062a 0000
00062b 0000      	.DB  0x0,0x0,0x0,0x0,0x0,0x0,0x0,0x0
00062c 0000
00062d 0000
00062e 0000
00062f 0000      	.DB  0x0,0x0,0x0,0x0,0x0,0x0,0x0,0x0
000630 0000
000631 0000
000632 0000
000633 0000      	.DB  0x0,0x0,0x0,0x0,0x0,0x0,0x0,0x0
000634 0000
000635 0000
000636 0000
000637 0000      	.DB  0x0,0x0,0x0,0x0,0x0,0x0,0x0,0x0
000638 0000
000639 0000
00063a 0000
00063b 0000      	.DB  0x0,0x0,0x0,0x0,0x0,0x0,0x0,0x0
00063c 0101
00063d 0000
00063e 0000
00063f 0000      	.DB  0x1,0x1,0x0,0x0,0x0,0x0,0x0,0x0
000640 0000
000641 0000
000642 0000
000643 0000      	.DB  0x0,0x0,0x0,0x0,0x0,0x0,0x0,0x0
000644 0000
000645 0000
000646 0000
000647 0000      	.DB  0x0,0x0,0x0,0x0,0x0,0x0,0x0,0x0
000648 0000
000649 0000
00064a 0000
00064b 0000      	.DB  0x0,0x0,0x0,0x0,0x0,0x0,0x0,0x0
00064c 0000
00064d 0000
00064e 0000
00064f 0000      	.DB  0x0,0x0,0x0,0x0,0x0,0x0,0x0,0x0
000650 0000
000651 0000
000652 0000
000653 0000      	.DB  0x0,0x0,0x0,0x0,0x0,0x0,0x0,0x0
000654 0000
000655 0000
000656 0000
000657 0000      	.DB  0x0,0x0,0x0,0x0,0x0,0x0,0x0,0x0
000658 0000
000659 0000
00065a 0000
00065b 0000      	.DB  0x0,0x0,0x0,0x0,0x0,0x0,0x0,0x0
00065c 0000
00065d 0000
00065e 0000
00065f 0000      	.DB  0x0,0x0,0x0,0x0,0x0,0x0,0x0,0x0
000660 0000
000661 0000
000662 0000
000663 0000      	.DB  0x0,0x0,0x0,0x0,0x0,0x0,0x0,0x0
000664 0000
000665 0000
000666 0000
000667 0000      	.DB  0x0,0x0,0x0,0x0,0x0,0x0,0x0,0x0
000668 0000
000669 0000
00066a 0000
00066b 0000      	.DB  0x0,0x0,0x0,0x0,0x0,0x0,0x0,0x0
00066c 0000
00066d 0000
00066e 0000
00066f 0000      	.DB  0x0,0x0,0x0,0x0,0x0,0x0,0x0,0x0
000670 0000
000671 0000
000672 0000
000673 0000      	.DB  0x0,0x0,0x0,0x0,0x0,0x0,0x0,0x0
000674 0000
000675 0000
000676 0000
000677 0000      	.DB  0x0,0x0,0x0,0x0,0x0,0x0,0x0,0x0
000678 0000
000679 0000
00067a 0000
00067b 0000      	.DB  0x0,0x0,0x0,0x0,0x0,0x0,0x0,0x0
00067c 0000
00067d 0000
00067e 0000
00067f 0000      	.DB  0x0,0x0,0x0,0x0,0x0,0x0,0x0,0x0
000680 0000
000681 0000
000682 0000
000683 0000      	.DB  0x0,0x0,0x0,0x0,0x0,0x0,0x0,0x0
000684 0000
000685 0000
000686 0000
000687 0000      	.DB  0x0,0x0,0x0,0x0,0x0,0x0,0x0,0x0
000688 0000
000689 0000
00068a 0000
00068b 0000      	.DB  0x0,0x0,0x0,0x0,0x0,0x0,0x0,0x0
00068c 0000
00068d 0000
00068e 0000
00068f 0000      	.DB  0x0,0x0,0x0,0x0,0x0,0x0,0x0,0x0
000690 0000
000691 0000
000692 0000
000693 0000      	.DB  0x0,0x0,0x0,0x0,0x0,0x0,0x0,0x0
000694 0000
000695 0000
000696 0000
000697 0000      	.DB  0x0,0x0,0x0,0x0,0x0,0x0,0x0,0x0
000698 0000
000699 0000
00069a 0000
00069b 0000      	.DB  0x0,0x0,0x0,0x0,0x0,0x0,0x0,0x0
00069c 0000
00069d 0000
00069e 0000
00069f 0000      	.DB  0x0,0x0,0x0,0x0,0x0,0x0,0x0,0x0
0006a0 0000
0006a1 0000
0006a2 0000
0006a3 0000      	.DB  0x0,0x0,0x0,0x0,0x0,0x0,0x0,0x0
0006a4 0000
0006a5 0000
0006a6 0000
0006a7 0000      	.DB  0x0,0x0,0x0,0x0,0x0,0x0,0x0,0x0
0006a8 0000
0006a9 0000
0006aa 0000
0006ab 0000      	.DB  0x0,0x0,0x0,0x0,0x0,0x0,0x0,0x0
0006ac 0000
0006ad 0000
0006ae 0000
0006af 0000      	.DB  0x0,0x0,0x0,0x0,0x0,0x0,0x0,0x0
0006b0 0000
0006b1 0000
0006b2 0000
0006b3 0000      	.DB  0x0,0x0,0x0,0x0,0x0,0x0,0x0,0x0
0006b4 0000
0006b5 0000
0006b6 0000
0006b7 0000      	.DB  0x0,0x0,0x0,0x0,0x0,0x0,0x0,0x0
0006b8 0000
0006b9 0000
0006ba 0000
0006bb 0000      	.DB  0x0,0x0,0x0,0x0,0x0,0x0,0x0,0x0
0006bc 0000
0006bd 0000
0006be 0000
0006bf 0000      	.DB  0x0,0x0,0x0,0x0,0x0,0x0,0x0,0x0
0006c0 0000
0006c1 0000
0006c2 0000
0006c3 0000      	.DB  0x0,0x0,0x0,0x0,0x0,0x0,0x0,0x0
0006c4 0000
0006c5 0000
0006c6 0000
0006c7 0000      	.DB  0x0,0x0,0x0,0x0,0x0,0x0,0x0,0x0
0006c8 0000
0006c9 0000
0006ca 0000
0006cb 0000      	.DB  0x0,0x0,0x0,0x0,0x0,0x0,0x0,0x0
0006cc 0000
0006cd 0000
0006ce 0000
0006cf 0000      	.DB  0x0,0x0,0x0,0x0,0x0,0x0,0x0,0x0
0006d0 0000
0006d1 0000
0006d2 0000
0006d3 0000      	.DB  0x0,0x0,0x0,0x0,0x0,0x0,0x0,0x0
0006d4 0000
0006d5 0000
0006d6 0000
0006d7 0000      	.DB  0x0,0x0,0x0,0x0,0x0,0x0,0x0,0x0
0006d8 0000
0006d9 0000
0006da 0000
0006db 0000      	.DB  0x0,0x0,0x0,0x0,0x0,0x0,0x0,0x0
0006dc 0000
0006dd 0000
0006de 0000
0006df 0000      	.DB  0x0,0x0,0x0,0x0,0x0,0x0,0x0,0x0
0006e0 0000
0006e1 0000
0006e2 0000
0006e3 0000      	.DB  0x0,0x0,0x0,0x0,0x0,0x0,0x0,0x0
0006e4 0000
0006e5 0000
0006e6 0000
0006e7 0000      	.DB  0x0,0x0,0x0,0x0,0x0,0x0,0x0,0x0
0006e8 0000
0006e9 0000
0006ea 0000
0006eb 0000      	.DB  0x0,0x0,0x0,0x0,0x0,0x0,0x0,0x0
0006ec 0000
0006ed 0000
0006ee 0000
0006ef 0000      	.DB  0x0,0x0,0x0,0x0,0x0,0x0,0x0,0x0
0006f0 0000
0006f1 0000
0006f2 0000
0006f3 0000      	.DB  0x0,0x0,0x0,0x0,0x0,0x0,0x0,0x0
0006f4 0000
0006f5 0000
0006f6 0000
0006f7 0000      	.DB  0x0,0x0,0x0,0x0,0x0,0x0,0x0,0x0
0006f8 0000
0006f9 0000
0006fa 0000
0006fb 0000      	.DB  0x0,0x0,0x0,0x0,0x0,0x0,0x0,0x0
0006fc 0000
0006fd 0000
0006fe 0000
0006ff 0000      	.DB  0x0,0x0,0x0,0x0,0x0,0x0,0x0,0x0
000700 0000
000701 0000
000702 0000
000703 0000      	.DB  0x0,0x0,0x0,0x0,0x0,0x0,0x0,0x0
000704 0000
000705 0000
000706 0000
000707 0000      	.DB  0x0,0x0,0x0,0x0,0x0,0x0,0x0,0x0
000708 0000
000709 0000
00070a 0000
00070b 0000      	.DB  0x0,0x0,0x0,0x0,0x0,0x0,0x0,0x0
00070c 0000
00070d 0000
00070e 0000
00070f 0000      	.DB  0x0,0x0,0x0,0x0,0x0,0x0,0x0,0x0
000710 0000
000711 0000
000712 0000
000713 0000      	.DB  0x0,0x0,0x0,0x0,0x0,0x0,0x0,0x0
000714 0000
000715 0000
000716 0000
000717 0000      	.DB  0x0,0x0,0x0,0x0,0x0,0x0,0x0,0x0
000718 0000
000719 0000
00071a 0000
00071b 0000      	.DB  0x0,0x0,0x0,0x0,0x0,0x0,0x0,0x0
00071c 0000
00071d 0000
00071e 0000
00071f 0000      	.DB  0x0,0x0,0x0,0x0,0x0,0x0,0x0,0x0
000720 0000
000721 0000
000722 0000
000723 0000      	.DB  0x0,0x0,0x0,0x0,0x0,0x0,0x0,0x0
000724 0000
000725 0000
000726 0000
000727 0000      	.DB  0x0,0x0,0x0,0x0,0x0,0x0,0x0,0x0
000728 0000
000729 0000
00072a 0000
00072b 0000      	.DB  0x0,0x0,0x0,0x0,0x0,0x0,0x0,0x0
00072c 0000
00072d 0000
00072e 0000
00072f 0000      	.DB  0x0,0x0,0x0,0x0,0x0,0x0,0x0,0x0
000730 0000
000731 0000
000732 0000
000733 0000      	.DB  0x0,0x0,0x0,0x0,0x0,0x0,0x0,0x0
000734 0000
000735 0000
000736 0000
000737 0000      	.DB  0x0,0x0,0x0,0x0,0x0,0x0,0x0,0x0
                 _lotfan_montazer_bemanid:
000738 0000
000739 0000
00073a 0000
00073b 0000      	.DB  0x0,0x0,0x0,0x0,0x0,0x0,0x0,0x0
00073c 0000
00073d 0000
00073e 0000
00073f 0000      	.DB  0x0,0x0,0x0,0x0,0x0,0x0,0x0,0x0
000740 0000
000741 0000
000742 0000
000743 0000      	.DB  0x0,0x0,0x0,0x0,0x0,0x0,0x0,0x0
000744 0000
000745 0000
000746 0000
000747 0000      	.DB  0x0,0x0,0x0,0x0,0x0,0x0,0x0,0x0
000748 0000
000749 0000
00074a 0000
00074b 0000      	.DB  0x0,0x0,0x0,0x0,0x0,0x0,0x0,0x0
00074c 0000
00074d 0000
00074e 0000
00074f 0000      	.DB  0x0,0x0,0x0,0x0,0x0,0x0,0x0,0x0
000750 0000
000751 0000
000752 0000
000753 0000      	.DB  0x0,0x0,0x0,0x0,0x0,0x0,0x0,0x0
000754 0000
000755 0000
000756 0000
000757 0000      	.DB  0x0,0x0,0x0,0x0,0x0,0x0,0x0,0x0
000758 0000
000759 0000
00075a 0000
00075b 0000      	.DB  0x0,0x0,0x0,0x0,0x0,0x0,0x0,0x0
00075c 0000
00075d 0000
00075e 0000
00075f 0000      	.DB  0x0,0x0,0x0,0x0,0x0,0x0,0x0,0x0
000760 0000
000761 0000
000762 0000
000763 0000      	.DB  0x0,0x0,0x0,0x0,0x0,0x0,0x0,0x0
000764 0000
000765 0000
000766 0000
000767 0000      	.DB  0x0,0x0,0x0,0x0,0x0,0x0,0x0,0x0
000768 0000
000769 0000
00076a 0000
00076b 0000      	.DB  0x0,0x0,0x0,0x0,0x0,0x0,0x0,0x0
00076c 0000
00076d 0000
00076e 0000
00076f 0000      	.DB  0x0,0x0,0x0,0x0,0x0,0x0,0x0,0x0
000770 0000
000771 0000
000772 0000
000773 0000      	.DB  0x0,0x0,0x0,0x0,0x0,0x0,0x0,0x0
000774 0000
000775 0000
000776 0000
000777 0000      	.DB  0x0,0x0,0x0,0x0,0x0,0x0,0x0,0x0
000778 0000
000779 0000
00077a 0000
00077b 0000      	.DB  0x0,0x0,0x0,0x0,0x0,0x0,0x0,0x0
00077c 0000
00077d 0000
00077e 0000
00077f 0000      	.DB  0x0,0x0,0x0,0x0,0x0,0x0,0x0,0x0
000780 0000
000781 0000
000782 0000
000783 0000      	.DB  0x0,0x0,0x0,0x0,0x0,0x0,0x0,0x0
000784 0000
000785 0000
000786 0000
000787 0000      	.DB  0x0,0x0,0x0,0x0,0x0,0x0,0x0,0x0
000788 0000
000789 0000
00078a 0000
00078b 0000      	.DB  0x0,0x0,0x0,0x0,0x0,0x0,0x0,0x0
00078c 0000
00078d 0000
00078e 0000
00078f 0000      	.DB  0x0,0x0,0x0,0x0,0x0,0x0,0x0,0x0
000790 0000
000791 0000
000792 0000
000793 0000      	.DB  0x0,0x0,0x0,0x0,0x0,0x0,0x0,0x0
000794 0000
000795 0000
000796 0000
000797 0000      	.DB  0x0,0x0,0x0,0x0,0x0,0x0,0x0,0x0
000798 0000
000799 0000
00079a 0000
00079b 0000      	.DB  0x0,0x0,0x0,0x0,0x0,0x0,0x0,0x0
00079c 0000
00079d 0000
00079e 0000
00079f 0000      	.DB  0x0,0x0,0x0,0x0,0x0,0x0,0x0,0x0
0007a0 0000
0007a1 0000
0007a2 0000
0007a3 0000      	.DB  0x0,0x0,0x0,0x0,0x0,0x0,0x0,0x0
0007a4 0000
0007a5 0000
0007a6 0000
0007a7 0000      	.DB  0x0,0x0,0x0,0x0,0x0,0x0,0x0,0x0
0007a8 0000
0007a9 0000
0007aa 0000
0007ab 0000      	.DB  0x0,0x0,0x0,0x0,0x0,0x0,0x0,0x0
0007ac 0000
0007ad 0000
0007ae 0000
0007af 0000      	.DB  0x0,0x0,0x0,0x0,0x0,0x0,0x0,0x0
0007b0 0000
0007b1 0000
0007b2 0000
0007b3 0000      	.DB  0x0,0x0,0x0,0x0,0x0,0x0,0x0,0x0
0007b4 0000
0007b5 0000
0007b6 0000
0007b7 0000      	.DB  0x0,0x0,0x0,0x0,0x0,0x0,0x0,0x0
0007b8 0000
0007b9 0000
0007ba 0000
0007bb 0000      	.DB  0x0,0x0,0x0,0x0,0x0,0x0,0x0,0x0
0007bc 0000
0007bd 0000
0007be 0000
0007bf 0000      	.DB  0x0,0x0,0x0,0x0,0x0,0x0,0x0,0x0
0007c0 0000
0007c1 0000
0007c2 0000
0007c3 0000      	.DB  0x0,0x0,0x0,0x0,0x0,0x0,0x0,0x0
0007c4 0000
0007c5 0000
0007c6 0000
0007c7 0000      	.DB  0x0,0x0,0x0,0x0,0x0,0x0,0x0,0x0
0007c8 0000
0007c9 0000
0007ca 0000
0007cb 8000      	.DB  0x0,0x0,0x0,0x0,0x0,0x0,0x0,0x80
0007cc 0080
0007cd 0000
0007ce 0000
0007cf 0000      	.DB  0x80,0x0,0x0,0x0,0x0,0x0,0x0,0x0
0007d0 0000
0007d1 0000
0007d2 0000
0007d3 0000      	.DB  0x0,0x0,0x0,0x0,0x0,0x0,0x0,0x0
0007d4 0000
0007d5 0000
0007d6 0000
0007d7 0000      	.DB  0x0,0x0,0x0,0x0,0x0,0x0,0x0,0x0
0007d8 0000
0007d9 8080
0007da 0000
0007db 0000      	.DB  0x0,0x0,0x80,0x80,0x0,0x0,0x0,0x0
0007dc 0000
0007dd 0000
0007de 0000
0007df 0000      	.DB  0x0,0x0,0x0,0x0,0x0,0x0,0x0,0x0
0007e0 0000
0007e1 0000
0007e2 0000
0007e3 0000      	.DB  0x0,0x0,0x0,0x0,0x0,0x0,0x0,0x0
0007e4 0000
0007e5 0000
0007e6 0000
0007e7 0000      	.DB  0x0,0x0,0x0,0x0,0x0,0x0,0x0,0x0
0007e8 0000
0007e9 8080
0007ea 0000
0007eb 0000      	.DB  0x0,0x0,0x80,0x80,0x0,0x0,0x0,0x0
0007ec 0000
0007ed 0000
0007ee 0000
0007ef 8080      	.DB  0x0,0x0,0x0,0x0,0x0,0x0,0x80,0x80
0007f0 0000
0007f1 0000
0007f2 0000
0007f3 8000      	.DB  0x0,0x0,0x0,0x0,0x0,0x0,0x0,0x80
0007f4 0080
0007f5 0000
0007f6 0000
0007f7 0000      	.DB  0x80,0x0,0x0,0x0,0x0,0x0,0x0,0x0
0007f8 0000
0007f9 0000
0007fa 0000
0007fb 0000      	.DB  0x0,0x0,0x0,0x0,0x0,0x0,0x0,0x0
0007fc 8080
0007fd 0000
0007fe 8080
0007ff 0000      	.DB  0x80,0x80,0x0,0x0,0x80,0x80,0x0,0x0
000800 8080
000801 0000
000802 c0c0
000803 1800      	.DB  0x80,0x80,0x0,0x0,0xC0,0xC0,0x0,0x18
000804 e0f8
000805 0000
000806 e000
000807 80e0      	.DB  0xF8,0xE0,0x0,0x0,0x0,0xE0,0xE0,0x80
000808 0000
000809 f602
00080a 00f4
00080b ff00      	.DB  0x0,0x0,0x2,0xF6,0xF4,0x0,0x0,0xFF
00080c 00ff
00080d 8000
00080e e0c0
00080f 70b0      	.DB  0xFF,0x0,0x0,0x80,0xC0,0xE0,0xB0,0x70
000810 80f0
000811 0000
000812 f000
000813 00f0      	.DB  0xF0,0x80,0x0,0x0,0x0,0xF0,0xF0,0x0
000814 0000
000815 0000
000816 e020
000817 00e0      	.DB  0x0,0x0,0x0,0x0,0x20,0xE0,0xE0,0x0
000818 8000
000819 7fff
00081a 3220
00081b f436      	.DB  0x0,0x80,0xFF,0x7F,0x20,0x32,0x36,0xF4
00081c 00e0
00081d 0400
00081e ec0c
00081f 04ec      	.DB  0xE0,0x0,0x0,0x4,0xC,0xEC,0xEC,0x4
000820 0800
000821 ecec
000822 0080
000823 8000      	.DB  0x0,0x8,0xEC,0xEC,0x80,0x0,0x0,0x80
000824 e0c0
000825 f0b0
000826 00f0
000827 0000      	.DB  0xC0,0xE0,0xB0,0xF0,0xF0,0x0,0x0,0x0
000828 0000
000829 ffff
00082a 0000
00082b f360      	.DB  0x0,0x0,0xFF,0xFF,0x0,0x0,0x60,0xF3
00082c fa9b
00082d 00f0
00082e 8000
00082f 7fff      	.DB  0x9B,0xFA,0xF0,0x0,0x0,0x80,0xFF,0x7F
000830 3020
000831 f030
000832 00e0
000833 0300      	.DB  0x20,0x30,0x30,0xF0,0xE0,0x0,0x0,0x3
000834 fcff
000835 0000
000836 0000
000837 0000      	.DB  0xFF,0xFC,0x0,0x0,0x0,0x0,0x0,0x0
000838 0000
000839 0000
00083a 0000
00083b 0000      	.DB  0x0,0x0,0x0,0x0,0x0,0x0,0x0,0x0
00083c 0101
00083d 0000
00083e 0101
00083f 0000      	.DB  0x1,0x1,0x0,0x0,0x1,0x1,0x0,0x0
000840 0101
000841 0000
000842 0101
000843 0101      	.DB  0x1,0x1,0x0,0x0,0x1,0x1,0x1,0x1
000844 0101
000845 0501
000846 0d0d
000847 090d      	.DB  0x1,0x1,0x1,0x5,0xD,0xD,0xD,0x9
000848 0101
000849 0101
00084a 0001
00084b 0000      	.DB  0x1,0x1,0x1,0x1,0x1,0x0,0x0,0x0
00084c 0101
00084d 0101
00084e 0100
00084f 0101      	.DB  0x1,0x1,0x1,0x1,0x0,0x1,0x1,0x1
000850 0101
000851 0d01
000852 090d
000853 0001      	.DB  0x1,0x1,0x1,0xD,0xD,0x9,0x1,0x0
000854 0000
000855 0808
000856 0f0c
000857 0107      	.DB  0x0,0x0,0x8,0x8,0xC,0xF,0x7,0x1
000858 0101
000859 0101
00085a 0101
00085b 0101      	.DB  0x1,0x1,0x1,0x1,0x1,0x1,0x1,0x1
00085c 0101
00085d 0101
00085e 0101
00085f 0101      	.DB  0x1,0x1,0x1,0x1,0x1,0x1,0x1,0x1
000860 0101
000861 0101
000862 0101
000863 0101      	.DB  0x1,0x1,0x1,0x1,0x1,0x1,0x1,0x1
000864 0100
000865 0101
000866 0001
000867 0000      	.DB  0x0,0x1,0x1,0x1,0x1,0x0,0x0,0x0
000868 0000
000869 0100
00086a 0101
00086b 0101      	.DB  0x0,0x0,0x0,0x1,0x1,0x1,0x1,0x1
00086c 0101
00086d 0101
00086e 0101
00086f 0101      	.DB  0x1,0x1,0x1,0x1,0x1,0x1,0x1,0x1
000870 0101
000871 0101
000872 0101
000873 0101      	.DB  0x1,0x1,0x1,0x1,0x1,0x1,0x1,0x1
000874 0001
000875 0000
000876 0000
000877 0000      	.DB  0x1,0x0,0x0,0x0,0x0,0x0,0x0,0x0
000878 0000
000879 0000
00087a 0000
00087b 0000      	.DB  0x0,0x0,0x0,0x0,0x0,0x0,0x0,0x0
00087c 0000
00087d 0000
00087e 0000
00087f 0000      	.DB  0x0,0x0,0x0,0x0,0x0,0x0,0x0,0x0
000880 0000
000881 0000
000882 0000
000883 0000      	.DB  0x0,0x0,0x0,0x0,0x0,0x0,0x0,0x0
000884 0000
000885 0000
000886 0000
000887 0000      	.DB  0x0,0x0,0x0,0x0,0x0,0x0,0x0,0x0
000888 0000
000889 0000
00088a 0000
00088b 0000      	.DB  0x0,0x0,0x0,0x0,0x0,0x0,0x0,0x0
00088c 0000
00088d 0000
00088e 0000
00088f 0000      	.DB  0x0,0x0,0x0,0x0,0x0,0x0,0x0,0x0
000890 0000
000891 0000
000892 0000
000893 0000      	.DB  0x0,0x0,0x0,0x0,0x0,0x0,0x0,0x0
000894 0000
000895 0000
000896 0000
000897 0000      	.DB  0x0,0x0,0x0,0x0,0x0,0x0,0x0,0x0
000898 0000
000899 0000
00089a 0000
00089b 0000      	.DB  0x0,0x0,0x0,0x0,0x0,0x0,0x0,0x0
00089c 0000
00089d 0000
00089e 0000
00089f 0000      	.DB  0x0,0x0,0x0,0x0,0x0,0x0,0x0,0x0
0008a0 0000
0008a1 0000
0008a2 0000
0008a3 0000      	.DB  0x0,0x0,0x0,0x0,0x0,0x0,0x0,0x0
0008a4 0000
0008a5 0000
0008a6 0000
0008a7 0000      	.DB  0x0,0x0,0x0,0x0,0x0,0x0,0x0,0x0
0008a8 0000
0008a9 0000
0008aa 0000
0008ab 0000      	.DB  0x0,0x0,0x0,0x0,0x0,0x0,0x0,0x0
0008ac 0000
0008ad 0000
0008ae 0000
0008af 0000      	.DB  0x0,0x0,0x0,0x0,0x0,0x0,0x0,0x0
0008b0 0000
0008b1 0000
0008b2 0000
0008b3 0000      	.DB  0x0,0x0,0x0,0x0,0x0,0x0,0x0,0x0
0008b4 0000
0008b5 0000
0008b6 0000
0008b7 0000      	.DB  0x0,0x0,0x0,0x0,0x0,0x0,0x0,0x0
0008b8 0000
0008b9 0000
0008ba 0000
0008bb 0000      	.DB  0x0,0x0,0x0,0x0,0x0,0x0,0x0,0x0
0008bc 0000
0008bd 0000
0008be 0000
0008bf 0000      	.DB  0x0,0x0,0x0,0x0,0x0,0x0,0x0,0x0
0008c0 0000
0008c1 0000
0008c2 0000
0008c3 0000      	.DB  0x0,0x0,0x0,0x0,0x0,0x0,0x0,0x0
0008c4 0000
0008c5 0000
0008c6 0000
0008c7 0000      	.DB  0x0,0x0,0x0,0x0,0x0,0x0,0x0,0x0
0008c8 0000
0008c9 0000
0008ca 0000
0008cb 0000      	.DB  0x0,0x0,0x0,0x0,0x0,0x0,0x0,0x0
0008cc 0000
0008cd 0000
0008ce 0000
0008cf 0000      	.DB  0x0,0x0,0x0,0x0,0x0,0x0,0x0,0x0
0008d0 0000
0008d1 0000
0008d2 0000
0008d3 0000      	.DB  0x0,0x0,0x0,0x0,0x0,0x0,0x0,0x0
0008d4 0000
0008d5 0000
0008d6 0000
0008d7 0000      	.DB  0x0,0x0,0x0,0x0,0x0,0x0,0x0,0x0
0008d8 0000
0008d9 0000
0008da 0000
0008db 0000      	.DB  0x0,0x0,0x0,0x0,0x0,0x0,0x0,0x0
0008dc 0000
0008dd 0000
0008de 0000
0008df 0000      	.DB  0x0,0x0,0x0,0x0,0x0,0x0,0x0,0x0
0008e0 0000
0008e1 0000
0008e2 0000
0008e3 0000      	.DB  0x0,0x0,0x0,0x0,0x0,0x0,0x0,0x0
0008e4 0000
0008e5 0000
0008e6 0000
0008e7 0000      	.DB  0x0,0x0,0x0,0x0,0x0,0x0,0x0,0x0
0008e8 0000
0008e9 0000
0008ea 0000
0008eb 0000      	.DB  0x0,0x0,0x0,0x0,0x0,0x0,0x0,0x0
0008ec 0000
0008ed 0000
0008ee 0000
0008ef 0000      	.DB  0x0,0x0,0x0,0x0,0x0,0x0,0x0,0x0
0008f0 0000
0008f1 0000
0008f2 0000
0008f3 0000      	.DB  0x0,0x0,0x0,0x0,0x0,0x0,0x0,0x0
0008f4 0000
0008f5 0000
0008f6 0000
0008f7 0000      	.DB  0x0,0x0,0x0,0x0,0x0,0x0,0x0,0x0
0008f8 0000
0008f9 0000
0008fa 0000
0008fb 0000      	.DB  0x0,0x0,0x0,0x0,0x0,0x0,0x0,0x0
0008fc 0000
0008fd 0000
0008fe 0000
0008ff 0000      	.DB  0x0,0x0,0x0,0x0,0x0,0x0,0x0,0x0
000900 0000
000901 0000
000902 0000
000903 0000      	.DB  0x0,0x0,0x0,0x0,0x0,0x0,0x0,0x0
000904 0000
000905 0000
000906 0000
000907 0000      	.DB  0x0,0x0,0x0,0x0,0x0,0x0,0x0,0x0
000908 0000
000909 0000
00090a 0000
00090b 0000      	.DB  0x0,0x0,0x0,0x0,0x0,0x0,0x0,0x0
00090c 0000
00090d 0000
00090e 0000
00090f 0000      	.DB  0x0,0x0,0x0,0x0,0x0,0x0,0x0,0x0
000910 0000
000911 0000
000912 0000
000913 0000      	.DB  0x0,0x0,0x0,0x0,0x0,0x0,0x0,0x0
000914 0000
000915 0000
000916 0000
000917 0000      	.DB  0x0,0x0,0x0,0x0,0x0,0x0,0x0,0x0
000918 0000
000919 0000
00091a 0000
00091b 0000      	.DB  0x0,0x0,0x0,0x0,0x0,0x0,0x0,0x0
00091c 0000
00091d 0000
00091e 0000
00091f 0000      	.DB  0x0,0x0,0x0,0x0,0x0,0x0,0x0,0x0
000920 0000
000921 0000
000922 0000
000923 0000      	.DB  0x0,0x0,0x0,0x0,0x0,0x0,0x0,0x0
000924 0000
000925 0000
000926 0000
000927 0000      	.DB  0x0,0x0,0x0,0x0,0x0,0x0,0x0,0x0
000928 0000
000929 0000
00092a 0000
00092b 0000      	.DB  0x0,0x0,0x0,0x0,0x0,0x0,0x0,0x0
00092c 0000
00092d 0000
00092e 0000
00092f 0000      	.DB  0x0,0x0,0x0,0x0,0x0,0x0,0x0,0x0
000930 0000
000931 0000
000932 0000
000933 0000      	.DB  0x0,0x0,0x0,0x0,0x0,0x0,0x0,0x0
000934 0000
000935 0000
000936 0000
000937 0000      	.DB  0x0,0x0,0x0,0x0,0x0,0x0,0x0,0x0
                 _shomare_dorost_payamak_nashode:
000938 0000
000939 0000
00093a 0000
00093b 0000      	.DB  0x0,0x0,0x0,0x0,0x0,0x0,0x0,0x0
00093c 0000
00093d 0000
00093e 0000
00093f 0000      	.DB  0x0,0x0,0x0,0x0,0x0,0x0,0x0,0x0
000940 0000
000941 0000
000942 0000
000943 0000      	.DB  0x0,0x0,0x0,0x0,0x0,0x0,0x0,0x0
000944 0000
000945 0000
000946 0000
000947 0000      	.DB  0x0,0x0,0x0,0x0,0x0,0x0,0x0,0x0
000948 0000
000949 0000
00094a 0000
00094b 0000      	.DB  0x0,0x0,0x0,0x0,0x0,0x0,0x0,0x0
00094c 0000
00094d 0000
00094e 0000
00094f 0000      	.DB  0x0,0x0,0x0,0x0,0x0,0x0,0x0,0x0
000950 0000
000951 0000
000952 0000
000953 0000      	.DB  0x0,0x0,0x0,0x0,0x0,0x0,0x0,0x0
000954 0000
000955 0000
000956 0000
000957 0000      	.DB  0x0,0x0,0x0,0x0,0x0,0x0,0x0,0x0
000958 0000
000959 0000
00095a 0000
00095b 0000      	.DB  0x0,0x0,0x0,0x0,0x0,0x0,0x0,0x0
00095c 0000
00095d 0000
00095e 0000
00095f 0000      	.DB  0x0,0x0,0x0,0x0,0x0,0x0,0x0,0x0
000960 0000
000961 0000
000962 0000
000963 0000      	.DB  0x0,0x0,0x0,0x0,0x0,0x0,0x0,0x0
000964 0000
000965 0000
000966 0000
000967 0000      	.DB  0x0,0x0,0x0,0x0,0x0,0x0,0x0,0x0
000968 0000
000969 0000
00096a 0000
00096b 0000      	.DB  0x0,0x0,0x0,0x0,0x0,0x0,0x0,0x0
00096c 0000
00096d 0000
00096e 0000
00096f 0000      	.DB  0x0,0x0,0x0,0x0,0x0,0x0,0x0,0x0
000970 0000
000971 0000
000972 0000
000973 0000      	.DB  0x0,0x0,0x0,0x0,0x0,0x0,0x0,0x0
000974 0000
000975 0000
000976 0000
000977 0000      	.DB  0x0,0x0,0x0,0x0,0x0,0x0,0x0,0x0
000978 0000
000979 0000
00097a 0000
00097b 0000      	.DB  0x0,0x0,0x0,0x0,0x0,0x0,0x0,0x0
00097c 0000
00097d 0000
00097e 0000
00097f 0000      	.DB  0x0,0x0,0x0,0x0,0x0,0x0,0x0,0x0
000980 0000
000981 0000
000982 0000
000983 0000      	.DB  0x0,0x0,0x0,0x0,0x0,0x0,0x0,0x0
000984 0000
000985 0000
000986 0000
000987 0000      	.DB  0x0,0x0,0x0,0x0,0x0,0x0,0x0,0x0
000988 0000
000989 0000
00098a 0000
00098b 0000      	.DB  0x0,0x0,0x0,0x0,0x0,0x0,0x0,0x0
00098c 0000
00098d 0000
00098e 0000
00098f 0000      	.DB  0x0,0x0,0x0,0x0,0x0,0x0,0x0,0x0
000990 0000
000991 0000
000992 0000
000993 0000      	.DB  0x0,0x0,0x0,0x0,0x0,0x0,0x0,0x0
000994 0000
000995 0000
000996 0000
000997 0000      	.DB  0x0,0x0,0x0,0x0,0x0,0x0,0x0,0x0
000998 0000
000999 0000
00099a 0000
00099b 0000      	.DB  0x0,0x0,0x0,0x0,0x0,0x0,0x0,0x0
00099c 0000
00099d 0000
00099e 0000
00099f 0000      	.DB  0x0,0x0,0x0,0x0,0x0,0x0,0x0,0x0
0009a0 0000
0009a1 0000
0009a2 0000
0009a3 0000      	.DB  0x0,0x0,0x0,0x0,0x0,0x0,0x0,0x0
0009a4 0000
0009a5 0000
0009a6 0000
0009a7 0000      	.DB  0x0,0x0,0x0,0x0,0x0,0x0,0x0,0x0
0009a8 0000
0009a9 0000
0009aa e0e0
0009ab 0000      	.DB  0x0,0x0,0x0,0x0,0xE0,0xE0,0x0,0x0
0009ac 0000
0009ad 0000
0009ae 0000
0009af 0000      	.DB  0x0,0x0,0x0,0x0,0x0,0x0,0x0,0x0
0009b0 0000
0009b1 0000
0009b2 8000
0009b3 0080      	.DB  0x0,0x0,0x0,0x0,0x0,0x80,0x80,0x0
0009b4 0000
0009b5 0000
0009b6 0000
0009b7 0000      	.DB  0x0,0x0,0x0,0x0,0x0,0x0,0x0,0x0
0009b8 0000
0009b9 0000
0009ba 0000
0009bb 0000      	.DB  0x0,0x0,0x0,0x0,0x0,0x0,0x0,0x0
0009bc 3800
0009bd 4278
0009be 4343
0009bf 4343      	.DB  0x0,0x38,0x78,0x42,0x43,0x43,0x43,0x43
0009c0 7860
0009c1 4078
0009c2 4040
0009c3 7878      	.DB  0x60,0x78,0x78,0x40,0x40,0x40,0x78,0x78
0009c4 6040
0009c5 7878
0009c6 7c44
0009c7 003c      	.DB  0x40,0x60,0x78,0x78,0x44,0x7C,0x3C,0x0
0009c8 0800
0009c9 f8f8
0009ca 0000
0009cb 7270      	.DB  0x0,0x8,0xF8,0xF8,0x0,0x0,0x70,0x72
0009cc 4642
0009cd 387e
0009ce 0000
0009cf 0000      	.DB  0x42,0x46,0x7E,0x38,0x0,0x0,0x0,0x0
0009d0 f000
0009d1 02f0
0009d2 0606
0009d3 fc00      	.DB  0x0,0xF0,0xF0,0x2,0x6,0x6,0x0,0xFC
0009d4 00fc
0009d5 7800
0009d6 4c7c
0009d7 f8d8      	.DB  0xFC,0x0,0x0,0x78,0x7C,0x4C,0xD8,0xF8
0009d8 4060
0009d9 4342
0009da 7b7b
0009db 4063      	.DB  0x60,0x40,0x42,0x43,0x7B,0x7B,0x63,0x40
0009dc 4040
0009dd 7878
0009de 6040
0009df 7878      	.DB  0x40,0x40,0x78,0x78,0x40,0x60,0x78,0x78
0009e0 7c44
0009e1 003c
0009e2 0000
0009e3 0000      	.DB  0x44,0x7C,0x3C,0x0,0x0,0x0,0x0,0x0
0009e4 7e78
0009e5 7c46
0009e6 0078
0009e7 0800      	.DB  0x78,0x7E,0x46,0x7C,0x78,0x0,0x0,0x8
0009e8 f8f8
0009e9 0000
0009ea 7f3f
0009eb 4040      	.DB  0xF8,0xF8,0x0,0x0,0x3F,0x7F,0x40,0x40
0009ec 3060
0009ed 6c78
0009ee 7c5c
0009ef 4060      	.DB  0x60,0x30,0x78,0x6C,0x5C,0x7C,0x60,0x40
0009f0 4040
0009f1 7878
0009f2 6343
0009f3 7b7b      	.DB  0x40,0x40,0x78,0x78,0x43,0x63,0x7B,0x7B
0009f4 7c46
0009f5 003c
0009f6 0000
0009f7 0000      	.DB  0x46,0x7C,0x3C,0x0,0x0,0x0,0x0,0x0
0009f8 0000
0009f9 0000
0009fa 0000
0009fb 0000      	.DB  0x0,0x0,0x0,0x0,0x0,0x0,0x0,0x0
0009fc 0000
0009fd 0000
0009fe 0000
0009ff 0000      	.DB  0x0,0x0,0x0,0x0,0x0,0x0,0x0,0x0
000a00 0000
000a01 0000
000a02 0000
000a03 0000      	.DB  0x0,0x0,0x0,0x0,0x0,0x0,0x0,0x0
000a04 0000
000a05 0000
000a06 0000
000a07 0200      	.DB  0x0,0x0,0x0,0x0,0x0,0x0,0x0,0x2
000a08 0302
000a09 0103
000a0a 0000
000a0b 0000      	.DB  0x2,0x3,0x3,0x1,0x0,0x0,0x0,0x0
000a0c 0000
000a0d 0000
000a0e 0000
000a0f 0000      	.DB  0x0,0x0,0x0,0x0,0x0,0x0,0x0,0x0
000a10 0100
000a11 0303
000a12 0302
000a13 0103      	.DB  0x0,0x1,0x3,0x3,0x2,0x3,0x3,0x1
000a14 0001
000a15 0200
000a16 0202
000a17 0103      	.DB  0x1,0x0,0x0,0x2,0x2,0x2,0x3,0x1
000a18 0000
000a19 0000
000a1a 0000
000a1b 0000      	.DB  0x0,0x0,0x0,0x0,0x0,0x0,0x0,0x0
000a1c 0000
000a1d 0000
000a1e 0000
000a1f 0000      	.DB  0x0,0x0,0x0,0x0,0x0,0x0,0x0,0x0
000a20 0000
000a21 0000
000a22 0000
000a23 0000      	.DB  0x0,0x0,0x0,0x0,0x0,0x0,0x0,0x0
000a24 0000
000a25 0000
000a26 0200
000a27 0302      	.DB  0x0,0x0,0x0,0x0,0x0,0x2,0x2,0x3
000a28 0103
000a29 0000
000a2a 0000
000a2b 0000      	.DB  0x3,0x1,0x0,0x0,0x0,0x0,0x0,0x0
000a2c 0000
000a2d 0000
000a2e 0000
000a2f 0000      	.DB  0x0,0x0,0x0,0x0,0x0,0x0,0x0,0x0
000a30 0000
000a31 0000
000a32 0000
000a33 0000      	.DB  0x0,0x0,0x0,0x0,0x0,0x0,0x0,0x0
000a34 0000
000a35 0000
000a36 0000
000a37 0000      	.DB  0x0,0x0,0x0,0x0,0x0,0x0,0x0,0x0
000a38 0000
000a39 0000
000a3a 0000
000a3b 0000      	.DB  0x0,0x0,0x0,0x0,0x0,0x0,0x0,0x0
000a3c 0000
000a3d 0000
000a3e 0000
000a3f 0000      	.DB  0x0,0x0,0x0,0x0,0x0,0x0,0x0,0x0
000a40 0000
000a41 0000
000a42 0000
000a43 0000      	.DB  0x0,0x0,0x0,0x0,0x0,0x0,0x0,0x0
000a44 0000
000a45 0000
000a46 0000
000a47 0000      	.DB  0x0,0x0,0x0,0x0,0x0,0x0,0x0,0x0
000a48 0000
000a49 0000
000a4a 0000
000a4b 0000      	.DB  0x0,0x0,0x0,0x0,0x0,0x0,0x0,0x0
000a4c e0e0
000a4d 0000
000a4e 0000
000a4f 0000      	.DB  0xE0,0xE0,0x0,0x0,0x0,0x0,0x0,0x0
000a50 0000
000a51 0000
000a52 0000
000a53 0000      	.DB  0x0,0x0,0x0,0x0,0x0,0x0,0x0,0x0
000a54 0000
000a55 0000
000a56 0000
000a57 0000      	.DB  0x0,0x0,0x0,0x0,0x0,0x0,0x0,0x0
000a58 0000
000a59 8080
000a5a 0080
000a5b 0000      	.DB  0x0,0x0,0x80,0x80,0x80,0x0,0x0,0x0
000a5c 0000
000a5d 8080
000a5e 0000
000a5f 0000      	.DB  0x0,0x0,0x80,0x80,0x0,0x0,0x0,0x0
000a60 0000
000a61 0000
000a62 0000
000a63 8080      	.DB  0x0,0x0,0x0,0x0,0x0,0x0,0x80,0x80
000a64 8080
000a65 40c0
000a66 0000
000a67 0000      	.DB  0x80,0x80,0xC0,0x40,0x0,0x0,0x0,0x0
000a68 0000
000a69 0000
000a6a 0000
000a6b e0e0      	.DB  0x0,0x0,0x0,0x0,0x0,0x0,0xE0,0xE0
000a6c 0000
000a6d 0000
000a6e 0000
000a6f 0000      	.DB  0x0,0x0,0x0,0x0,0x0,0x0,0x0,0x0
000a70 0000
000a71 0000
000a72 0000
000a73 0000      	.DB  0x0,0x0,0x0,0x0,0x0,0x0,0x0,0x0
000a74 0000
000a75 0000
000a76 0000
000a77 0000      	.DB  0x0,0x0,0x0,0x0,0x0,0x0,0x0,0x0
000a78 0000
000a79 0000
000a7a 0000
000a7b 0000      	.DB  0x0,0x0,0x0,0x0,0x0,0x0,0x0,0x0
000a7c 0000
000a7d 0000
000a7e 6060
000a7f 0000      	.DB  0x0,0x0,0x0,0x0,0x60,0x60,0x0,0x0
000a80 7838
000a81 4342
000a82 4343
000a83 6043      	.DB  0x38,0x78,0x42,0x43,0x43,0x43,0x43,0x60
000a84 7878
000a85 4040
000a86 7840
000a87 4078      	.DB  0x78,0x78,0x40,0x40,0x40,0x78,0x78,0x40
000a88 7860
000a89 4478
000a8a 3c7c
000a8b 0000      	.DB  0x60,0x78,0x78,0x44,0x7C,0x3C,0x0,0x0
000a8c 7f7f
000a8d 0000
000a8e 0000
000a8f 7800      	.DB  0x7F,0x7F,0x0,0x0,0x0,0x0,0x0,0x78
000a90 467e
000a91 787c
000a92 0000
000a93 7070      	.DB  0x7E,0x46,0x7C,0x78,0x0,0x0,0x70,0x70
000a94 4640
000a95 787e
000a96 4040
000a97 7840      	.DB  0x40,0x46,0x7E,0x78,0x40,0x40,0x40,0x78
000a98 4378
000a99 7b63
000a9a 427b
000a9b 7878      	.DB  0x78,0x43,0x63,0x7B,0x7B,0x42,0x78,0x78
000a9c 4040
000a9d 7d40
000a9e 007d
000a9f 0000      	.DB  0x40,0x40,0x40,0x7D,0x7D,0x0,0x0,0x0
000aa0 0000
000aa1 7838
000aa2 4040
000aa3 4341      	.DB  0x0,0x0,0x38,0x78,0x40,0x40,0x41,0x43
000aa4 6e46
000aa5 7078
000aa6 4040
000aa7 3060      	.DB  0x46,0x6E,0x78,0x70,0x40,0x40,0x60,0x30
000aa8 6c78
000aa9 7c7c
000aaa 0000
000aab 7f3f      	.DB  0x78,0x6C,0x7C,0x7C,0x0,0x0,0x3F,0x7F
000aac 4040
000aad 4040
000aae 7878
000aaf 4040      	.DB  0x40,0x40,0x40,0x40,0x78,0x78,0x40,0x40
000ab0 7c40
000ab1 007c
000ab2 0000
000ab3 0000      	.DB  0x40,0x7C,0x7C,0x0,0x0,0x0,0x0,0x0
000ab4 0000
000ab5 0000
000ab6 0000
000ab7 0000      	.DB  0x0,0x0,0x0,0x0,0x0,0x0,0x0,0x0
000ab8 0000
000ab9 0000
000aba 0000
000abb 0000      	.DB  0x0,0x0,0x0,0x0,0x0,0x0,0x0,0x0
000abc 0000
000abd 0000
000abe 0000
000abf 0000      	.DB  0x0,0x0,0x0,0x0,0x0,0x0,0x0,0x0
000ac0 0000
000ac1 0000
000ac2 0000
000ac3 0000      	.DB  0x0,0x0,0x0,0x0,0x0,0x0,0x0,0x0
000ac4 0000
000ac5 0000
000ac6 0000
000ac7 0000      	.DB  0x0,0x0,0x0,0x0,0x0,0x0,0x0,0x0
000ac8 0000
000ac9 0000
000aca 0000
000acb 0000      	.DB  0x0,0x0,0x0,0x0,0x0,0x0,0x0,0x0
000acc 0000
000acd 0000
000ace 0000
000acf 0000      	.DB  0x0,0x0,0x0,0x0,0x0,0x0,0x0,0x0
000ad0 0000
000ad1 0000
000ad2 0000
000ad3 0000      	.DB  0x0,0x0,0x0,0x0,0x0,0x0,0x0,0x0
000ad4 0000
000ad5 0000
000ad6 0000
000ad7 0000      	.DB  0x0,0x0,0x0,0x0,0x0,0x0,0x0,0x0
000ad8 0000
000ad9 0000
000ada 0000
000adb 0000      	.DB  0x0,0x0,0x0,0x0,0x0,0x0,0x0,0x0
000adc 0000
000add 0000
000ade 0000
000adf 0000      	.DB  0x0,0x0,0x0,0x0,0x0,0x0,0x0,0x0
000ae0 0000
000ae1 0000
000ae2 0000
000ae3 0000      	.DB  0x0,0x0,0x0,0x0,0x0,0x0,0x0,0x0
000ae4 0000
000ae5 0000
000ae6 0000
000ae7 0000      	.DB  0x0,0x0,0x0,0x0,0x0,0x0,0x0,0x0
000ae8 0000
000ae9 0000
000aea 0000
000aeb 0000      	.DB  0x0,0x0,0x0,0x0,0x0,0x0,0x0,0x0
000aec 0200
000aed 0303
000aee 0303
000aef 0b03      	.DB  0x0,0x2,0x3,0x3,0x3,0x3,0x3,0xB
000af0 0f0f
000af1 0002
000af2 0000
000af3 0000      	.DB  0xF,0xF,0x2,0x0,0x0,0x0,0x0,0x0
000af4 0000
000af5 0000
000af6 0000
000af7 0000      	.DB  0x0,0x0,0x0,0x0,0x0,0x0,0x0,0x0
000af8 0000
000af9 0000
000afa 0000
000afb 0000      	.DB  0x0,0x0,0x0,0x0,0x0,0x0,0x0,0x0
000afc 0000
000afd 0000
000afe 0000
000aff 0000      	.DB  0x0,0x0,0x0,0x0,0x0,0x0,0x0,0x0
000b00 0000
000b01 0000
000b02 0000
000b03 0000      	.DB  0x0,0x0,0x0,0x0,0x0,0x0,0x0,0x0
000b04 0000
000b05 0000
000b06 0000
000b07 0000      	.DB  0x0,0x0,0x0,0x0,0x0,0x0,0x0,0x0
000b08 0000
000b09 0000
000b0a 0000
000b0b 0000      	.DB  0x0,0x0,0x0,0x0,0x0,0x0,0x0,0x0
000b0c 0000
000b0d 0000
000b0e 0000
000b0f 0000      	.DB  0x0,0x0,0x0,0x0,0x0,0x0,0x0,0x0
000b10 0000
000b11 0000
000b12 0000
000b13 0000      	.DB  0x0,0x0,0x0,0x0,0x0,0x0,0x0,0x0
000b14 0000
000b15 0000
000b16 0000
000b17 0000      	.DB  0x0,0x0,0x0,0x0,0x0,0x0,0x0,0x0
000b18 0000
000b19 0000
000b1a 0000
000b1b 0000      	.DB  0x0,0x0,0x0,0x0,0x0,0x0,0x0,0x0
000b1c 0000
000b1d 0000
000b1e 0000
000b1f 0000      	.DB  0x0,0x0,0x0,0x0,0x0,0x0,0x0,0x0
000b20 0000
000b21 0000
000b22 0000
000b23 0000      	.DB  0x0,0x0,0x0,0x0,0x0,0x0,0x0,0x0
000b24 0000
000b25 0000
000b26 0000
000b27 0000      	.DB  0x0,0x0,0x0,0x0,0x0,0x0,0x0,0x0
000b28 0000
000b29 0000
000b2a 0000
000b2b 0000      	.DB  0x0,0x0,0x0,0x0,0x0,0x0,0x0,0x0
000b2c 0000
000b2d 0000
000b2e 0000
000b2f 0000      	.DB  0x0,0x0,0x0,0x0,0x0,0x0,0x0,0x0
000b30 0000
000b31 0000
000b32 0000
000b33 0000      	.DB  0x0,0x0,0x0,0x0,0x0,0x0,0x0,0x0
000b34 0000
000b35 0000
000b36 0000
000b37 0000      	.DB  0x0,0x0,0x0,0x0,0x0,0x0,0x0,0x0
                 _tedad_bish_az_had:
000b38 0000
000b39 0000
000b3a 0000
000b3b 0000      	.DB  0x0,0x0,0x0,0x0,0x0,0x0,0x0,0x0
000b3c 0000
000b3d 0000
000b3e 0000
000b3f 0000      	.DB  0x0,0x0,0x0,0x0,0x0,0x0,0x0,0x0
000b40 0000
000b41 0000
000b42 0000
000b43 0000      	.DB  0x0,0x0,0x0,0x0,0x0,0x0,0x0,0x0
000b44 0000
000b45 0000
000b46 0000
000b47 0000      	.DB  0x0,0x0,0x0,0x0,0x0,0x0,0x0,0x0
000b48 0000
000b49 0000
000b4a 0000
000b4b 0000      	.DB  0x0,0x0,0x0,0x0,0x0,0x0,0x0,0x0
000b4c 0000
000b4d 0000
000b4e 0000
000b4f 0000      	.DB  0x0,0x0,0x0,0x0,0x0,0x0,0x0,0x0
000b50 0000
000b51 0000
000b52 0000
000b53 0000      	.DB  0x0,0x0,0x0,0x0,0x0,0x0,0x0,0x0
000b54 0000
000b55 0000
000b56 0000
000b57 0000      	.DB  0x0,0x0,0x0,0x0,0x0,0x0,0x0,0x0
000b58 0000
000b59 0000
000b5a 0000
000b5b 0000      	.DB  0x0,0x0,0x0,0x0,0x0,0x0,0x0,0x0
000b5c 0000
000b5d 0000
000b5e 0000
000b5f 0000      	.DB  0x0,0x0,0x0,0x0,0x0,0x0,0x0,0x0
000b60 0000
000b61 0000
000b62 0000
000b63 0000      	.DB  0x0,0x0,0x0,0x0,0x0,0x0,0x0,0x0
000b64 0000
000b65 0000
000b66 0000
000b67 0000      	.DB  0x0,0x0,0x0,0x0,0x0,0x0,0x0,0x0
000b68 0000
000b69 0000
000b6a 0000
000b6b 0000      	.DB  0x0,0x0,0x0,0x0,0x0,0x0,0x0,0x0
000b6c 0000
000b6d 0000
000b6e 0000
000b6f 0000      	.DB  0x0,0x0,0x0,0x0,0x0,0x0,0x0,0x0
000b70 0000
000b71 0000
000b72 0000
000b73 0000      	.DB  0x0,0x0,0x0,0x0,0x0,0x0,0x0,0x0
000b74 0000
000b75 0000
000b76 0000
000b77 0000      	.DB  0x0,0x0,0x0,0x0,0x0,0x0,0x0,0x0
000b78 0000
000b79 0000
000b7a 0000
000b7b 0000      	.DB  0x0,0x0,0x0,0x0,0x0,0x0,0x0,0x0
000b7c 0000
000b7d 0000
000b7e 0000
000b7f 0000      	.DB  0x0,0x0,0x0,0x0,0x0,0x0,0x0,0x0
000b80 8080
000b81 3020
000b82 3030
000b83 0030      	.DB  0x80,0x80,0x20,0x30,0x30,0x30,0x30,0x0
000b84 8080
000b85 0000
000b86 8000
000b87 0080      	.DB  0x80,0x80,0x0,0x0,0x0,0x80,0x80,0x0
000b88 8000
000b89 4080
000b8a c0c0
000b8b 0000      	.DB  0x0,0x80,0x80,0x40,0xC0,0xC0,0x0,0x0
000b8c fefe
000b8d 0000
000b8e c080
000b8f 80c0      	.DB  0xFE,0xFE,0x0,0x0,0x80,0xC0,0xC0,0x80
000b90 0080
000b91 0000
000b92 ccc0
000b93 484c      	.DB  0x80,0x0,0x0,0x0,0xC0,0xCC,0x4C,0x48
000b94 c040
000b95 8080
000b96 0000
000b97 8080      	.DB  0x40,0xC0,0x80,0x80,0x0,0x0,0x80,0x80
000b98 0080
000b99 0000
000b9a 2020
000b9b e060      	.DB  0x80,0x0,0x0,0x0,0x20,0x20,0x60,0xE0
000b9c 0080
000b9d 0000
000b9e 0000
000b9f 2000      	.DB  0x80,0x0,0x0,0x0,0x0,0x0,0x0,0x20
000ba0 6020
000ba1 80e0
000ba2 0000
000ba3 fefe      	.DB  0x20,0x60,0xE0,0x80,0x0,0x0,0xFE,0xFE
000ba4 0000
000ba5 0000
000ba6 6000
000ba7 80e0      	.DB  0x0,0x0,0x0,0x0,0x0,0x60,0xE0,0x80
000ba8 0000
000ba9 c040
000baa 40c0
000bab c040      	.DB  0x0,0x0,0x40,0xC0,0xC0,0x40,0x40,0xC0
000bac 00c0
000bad 1808
000bae d8d8
000baf 0010      	.DB  0xC0,0x0,0x8,0x18,0xD8,0xD8,0x10,0x0
000bb0 0000
000bb1 0000
000bb2 0000
000bb3 0000      	.DB  0x0,0x0,0x0,0x0,0x0,0x0,0x0,0x0
000bb4 0000
000bb5 0000
000bb6 0000
000bb7 0000      	.DB  0x0,0x0,0x0,0x0,0x0,0x0,0x0,0x0
000bb8 0000
000bb9 0000
000bba 0000
000bbb 0000      	.DB  0x0,0x0,0x0,0x0,0x0,0x0,0x0,0x0
000bbc 0000
000bbd 0000
000bbe 0000
000bbf 0000      	.DB  0x0,0x0,0x0,0x0,0x0,0x0,0x0,0x0
000bc0 0703
000bc1 0404
000bc2 0404
000bc3 0604      	.DB  0x3,0x7,0x4,0x4,0x4,0x4,0x4,0x6
000bc4 0707
000bc5 0404
000bc6 0704
000bc7 0407      	.DB  0x7,0x7,0x4,0x4,0x4,0x7,0x7,0x4
000bc8 0706
000bc9 0407
000bca 0307
000bcb 0000      	.DB  0x6,0x7,0x7,0x4,0x7,0x3,0x0,0x0
000bcc 0707
000bcd 0000
000bce 2727
000bcf 3d24      	.DB  0x7,0x7,0x0,0x0,0x27,0x27,0x24,0x3D
000bd0 061f
000bd1 0404
000bd2 0505
000bd3 0606      	.DB  0x1F,0x6,0x4,0x4,0x5,0x5,0x6,0x6
000bd4 0103
000bd5 0000
000bd6 2020
000bd7 3f30      	.DB  0x3,0x1,0x0,0x0,0x20,0x20,0x30,0x3F
000bd8 001f
000bd9 0700
000bda 0407
000bdb 0704      	.DB  0x1F,0x0,0x0,0x7,0x7,0x4,0x4,0x7
000bdc 0003
000bdd 0000
000bde 0000
000bdf 0707      	.DB  0x3,0x0,0x0,0x0,0x0,0x0,0x7,0x7
000be0 0404
000be1 0307
000be2 0000
000be3 0707      	.DB  0x4,0x4,0x7,0x3,0x0,0x0,0x7,0x7
000be4 0000
000be5 0707
000be6 0404
000be7 0707      	.DB  0x0,0x0,0x7,0x7,0x4,0x4,0x7,0x7
000be8 0404
000be9 0504
000bea 0607
000beb 0507      	.DB  0x4,0x4,0x4,0x5,0x7,0x6,0x7,0x5
000bec 0404
000bed 0404
000bee 0707
000bef 0000      	.DB  0x4,0x4,0x4,0x4,0x7,0x7,0x0,0x0
000bf0 0000
000bf1 0000
000bf2 0000
000bf3 0000      	.DB  0x0,0x0,0x0,0x0,0x0,0x0,0x0,0x0
000bf4 0000
000bf5 0000
000bf6 0000
000bf7 0000      	.DB  0x0,0x0,0x0,0x0,0x0,0x0,0x0,0x0
000bf8 0000
000bf9 0000
000bfa 0000
000bfb 0000      	.DB  0x0,0x0,0x0,0x0,0x0,0x0,0x0,0x0
000bfc 0000
000bfd 0000
000bfe 0000
000bff 0000      	.DB  0x0,0x0,0x0,0x0,0x0,0x0,0x0,0x0
000c00 0000
000c01 0000
000c02 0000
000c03 0000      	.DB  0x0,0x0,0x0,0x0,0x0,0x0,0x0,0x0
000c04 0000
000c05 0000
000c06 0000
000c07 0000      	.DB  0x0,0x0,0x0,0x0,0x0,0x0,0x0,0x0
000c08 0000
000c09 0000
000c0a 0000
000c0b 0000      	.DB  0x0,0x0,0x0,0x0,0x0,0x0,0x0,0x0
000c0c 0000
000c0d 0000
000c0e 0000
000c0f 0000      	.DB  0x0,0x0,0x0,0x0,0x0,0x0,0x0,0x0
000c10 0000
000c11 0000
000c12 0000
000c13 0000      	.DB  0x0,0x0,0x0,0x0,0x0,0x0,0x0,0x0
000c14 0000
000c15 0000
000c16 0000
000c17 0000      	.DB  0x0,0x0,0x0,0x0,0x0,0x0,0x0,0x0
000c18 0000
000c19 0000
000c1a 0000
000c1b 0000      	.DB  0x0,0x0,0x0,0x0,0x0,0x0,0x0,0x0
000c1c 0000
000c1d 0000
000c1e 0000
000c1f 0000      	.DB  0x0,0x0,0x0,0x0,0x0,0x0,0x0,0x0
000c20 0000
000c21 0000
000c22 0000
000c23 0000      	.DB  0x0,0x0,0x0,0x0,0x0,0x0,0x0,0x0
000c24 0000
000c25 0000
000c26 0000
000c27 0000      	.DB  0x0,0x0,0x0,0x0,0x0,0x0,0x0,0x0
000c28 0000
000c29 0000
000c2a 0000
000c2b 0000      	.DB  0x0,0x0,0x0,0x0,0x0,0x0,0x0,0x0
000c2c 0000
000c2d 0000
000c2e 0000
000c2f 0000      	.DB  0x0,0x0,0x0,0x0,0x0,0x0,0x0,0x0
000c30 0000
000c31 0000
000c32 0000
000c33 0000      	.DB  0x0,0x0,0x0,0x0,0x0,0x0,0x0,0x0
000c34 0000
000c35 0000
000c36 0000
000c37 0000      	.DB  0x0,0x0,0x0,0x0,0x0,0x0,0x0,0x0
000c38 0000
000c39 0000
000c3a 0000
000c3b 0000      	.DB  0x0,0x0,0x0,0x0,0x0,0x0,0x0,0x0
000c3c 0000
000c3d 0000
000c3e 0000
000c3f 0000      	.DB  0x0,0x0,0x0,0x0,0x0,0x0,0x0,0x0
000c40 0000
000c41 0000
000c42 0000
000c43 b0b0      	.DB  0x0,0x0,0x0,0x0,0x0,0x0,0xB0,0xB0
000c44 00a0
000c45 fe00
000c46 00fe
000c47 c000      	.DB  0xA0,0x0,0x0,0xFE,0xFE,0x0,0x0,0xC0
000c48 40c0
000c49 4040
000c4a 80c0
000c4b 0080      	.DB  0xC0,0x40,0x40,0x40,0xC0,0x80,0x80,0x0
000c4c 0000
000c4d 8000
000c4e c0c0
000c4f 00c0      	.DB  0x0,0x0,0x0,0x80,0xC0,0xC0,0xC0,0x0
000c50 0000
000c51 0000
000c52 0000
000c53 6000      	.DB  0x0,0x0,0x0,0x0,0x0,0x0,0x0,0x60
000c54 80e0
000c55 0000
000c56 c0c0
000c57 4040      	.DB  0xE0,0x80,0x0,0x0,0xC0,0xC0,0x40,0x40
000c58 c040
000c59 8080
000c5a 0000
000c5b 0000      	.DB  0x40,0xC0,0x80,0x80,0x0,0x0,0x0,0x0
000c5c b000
000c5d a0b0
000c5e 0000
000c5f fefe      	.DB  0x0,0xB0,0xB0,0xA0,0x0,0x0,0xFE,0xFE
000c60 0000
000c61 0000
000c62 0000
000c63 0000      	.DB  0x0,0x0,0x0,0x0,0x0,0x0,0x0,0x0
000c64 0000
000c65 8000
000c66 2080
000c67 b838      	.DB  0x0,0x0,0x0,0x80,0x80,0x20,0x38,0xB8
000c68 30b8
000c69 8080
000c6a 0000
000c6b 0000      	.DB  0xB8,0x30,0x80,0x80,0x0,0x0,0x0,0x0
000c6c 8080
000c6d 0000
000c6e c000
000c6f 00c0      	.DB  0x80,0x80,0x0,0x0,0x0,0xC0,0xC0,0x0
000c70 0000
000c71 0000
000c72 0000
000c73 0000      	.DB  0x0,0x0,0x0,0x0,0x0,0x0,0x0,0x0
000c74 0000
000c75 0000
000c76 0000
000c77 0000      	.DB  0x0,0x0,0x0,0x0,0x0,0x0,0x0,0x0
000c78 0000
000c79 0000
000c7a 0000
000c7b 0000      	.DB  0x0,0x0,0x0,0x0,0x0,0x0,0x0,0x0
000c7c 0000
000c7d 0000
000c7e 0000
000c7f 0000      	.DB  0x0,0x0,0x0,0x0,0x0,0x0,0x0,0x0
000c80 0000
000c81 0000
000c82 2020
000c83 3f30      	.DB  0x0,0x0,0x0,0x0,0x20,0x20,0x30,0x3F
000c84 001f
000c85 0300
000c86 0407
000c87 0504      	.DB  0x1F,0x0,0x0,0x3,0x7,0x4,0x4,0x5
000c88 3605
000c89 2336
000c8a 0607
000c8b 0404      	.DB  0x5,0x36,0x36,0x23,0x7,0x6,0x4,0x4
000c8c 0604
000c8d 0703
000c8e 0706
000c8f 0007      	.DB  0x4,0x6,0x3,0x7,0x6,0x7,0x7,0x0
000c90 0000
000c91 0000
000c92 0707
000c93 0404      	.DB  0x0,0x0,0x0,0x0,0x7,0x7,0x4,0x4
000c94 0707
000c95 0404
000c96 0505
000c97 0606      	.DB  0x7,0x7,0x4,0x4,0x5,0x5,0x6,0x6
000c98 0103
000c99 0000
000c9a 0000
000c9b 2000      	.DB  0x3,0x1,0x0,0x0,0x0,0x0,0x0,0x20
000c9c 3020
000c9d 1f3f
000c9e 0000
000c9f 0707      	.DB  0x20,0x30,0x3F,0x1F,0x0,0x0,0x7,0x7
000ca0 0000
000ca1 0000
000ca2 3e00
000ca3 603e      	.DB  0x0,0x0,0x0,0x0,0x0,0x3E,0x3E,0x60
000ca4 6060
000ca5 3f20
000ca6 043f
000ca7 0704      	.DB  0x60,0x60,0x20,0x3F,0x3F,0x4,0x4,0x7
000ca8 0407
000ca9 0707
000caa 2404
000cab 3434      	.DB  0x7,0x4,0x7,0x7,0x4,0x24,0x34,0x34
000cac 3737
000cad 3404
000cae 2734
000caf 0007      	.DB  0x37,0x37,0x4,0x34,0x34,0x27,0x7,0x0
000cb0 0000
000cb1 0000
000cb2 0000
000cb3 0000      	.DB  0x0,0x0,0x0,0x0,0x0,0x0,0x0,0x0
000cb4 0000
000cb5 0000
000cb6 0000
000cb7 0000      	.DB  0x0,0x0,0x0,0x0,0x0,0x0,0x0,0x0
000cb8 0000
000cb9 0000
000cba 0000
000cbb 0000      	.DB  0x0,0x0,0x0,0x0,0x0,0x0,0x0,0x0
000cbc 0000
000cbd 0000
000cbe 0000
000cbf 0000      	.DB  0x0,0x0,0x0,0x0,0x0,0x0,0x0,0x0
000cc0 0000
000cc1 0000
000cc2 0000
000cc3 0000      	.DB  0x0,0x0,0x0,0x0,0x0,0x0,0x0,0x0
000cc4 0000
000cc5 0000
000cc6 0000
000cc7 0000      	.DB  0x0,0x0,0x0,0x0,0x0,0x0,0x0,0x0
000cc8 0000
000cc9 0000
000cca 0000
000ccb 0000      	.DB  0x0,0x0,0x0,0x0,0x0,0x0,0x0,0x0
000ccc 0000
000ccd 0000
000cce 0000
000ccf 0000      	.DB  0x0,0x0,0x0,0x0,0x0,0x0,0x0,0x0
000cd0 0000
000cd1 0000
000cd2 0000
000cd3 0000      	.DB  0x0,0x0,0x0,0x0,0x0,0x0,0x0,0x0
000cd4 0000
000cd5 0000
000cd6 0000
000cd7 0000      	.DB  0x0,0x0,0x0,0x0,0x0,0x0,0x0,0x0
000cd8 0000
000cd9 0000
000cda 0000
000cdb 0000      	.DB  0x0,0x0,0x0,0x0,0x0,0x0,0x0,0x0
000cdc 0000
000cdd 0000
000cde 0000
000cdf 0000      	.DB  0x0,0x0,0x0,0x0,0x0,0x0,0x0,0x0
000ce0 0000
000ce1 0000
000ce2 0000
000ce3 0000      	.DB  0x0,0x0,0x0,0x0,0x0,0x0,0x0,0x0
000ce4 0000
000ce5 0000
000ce6 0000
000ce7 0000      	.DB  0x0,0x0,0x0,0x0,0x0,0x0,0x0,0x0
000ce8 0000
000ce9 0000
000cea 0000
000ceb 0000      	.DB  0x0,0x0,0x0,0x0,0x0,0x0,0x0,0x0
000cec 0000
000ced 0000
000cee 0000
000cef 0000      	.DB  0x0,0x0,0x0,0x0,0x0,0x0,0x0,0x0
000cf0 0000
000cf1 0000
000cf2 0000
000cf3 0000      	.DB  0x0,0x0,0x0,0x0,0x0,0x0,0x0,0x0
000cf4 0000
000cf5 0000
000cf6 0000
000cf7 0000      	.DB  0x0,0x0,0x0,0x0,0x0,0x0,0x0,0x0
000cf8 0000
000cf9 0000
000cfa 0000
000cfb 0000      	.DB  0x0,0x0,0x0,0x0,0x0,0x0,0x0,0x0
000cfc 0000
000cfd 0000
000cfe 0000
000cff 0000      	.DB  0x0,0x0,0x0,0x0,0x0,0x0,0x0,0x0
000d00 0000
000d01 0000
000d02 0000
000d03 0000      	.DB  0x0,0x0,0x0,0x0,0x0,0x0,0x0,0x0
000d04 0000
000d05 0000
000d06 0000
000d07 0000      	.DB  0x0,0x0,0x0,0x0,0x0,0x0,0x0,0x0
000d08 0000
000d09 0000
000d0a 0000
000d0b 0000      	.DB  0x0,0x0,0x0,0x0,0x0,0x0,0x0,0x0
000d0c 0000
000d0d 0000
000d0e 0000
000d0f 0000      	.DB  0x0,0x0,0x0,0x0,0x0,0x0,0x0,0x0
000d10 0000
000d11 0000
000d12 0000
000d13 0000      	.DB  0x0,0x0,0x0,0x0,0x0,0x0,0x0,0x0
000d14 0000
000d15 0000
000d16 0000
000d17 0000      	.DB  0x0,0x0,0x0,0x0,0x0,0x0,0x0,0x0
000d18 0000
000d19 0000
000d1a 0000
000d1b 0000      	.DB  0x0,0x0,0x0,0x0,0x0,0x0,0x0,0x0
000d1c 0000
000d1d 0000
000d1e 0000
000d1f 0000      	.DB  0x0,0x0,0x0,0x0,0x0,0x0,0x0,0x0
000d20 0000
000d21 0000
000d22 0000
000d23 0000      	.DB  0x0,0x0,0x0,0x0,0x0,0x0,0x0,0x0
000d24 0000
000d25 0000
000d26 0000
000d27 0000      	.DB  0x0,0x0,0x0,0x0,0x0,0x0,0x0,0x0
000d28 0000
000d29 0000
000d2a 0000
000d2b 0000      	.DB  0x0,0x0,0x0,0x0,0x0,0x0,0x0,0x0
000d2c 0000
000d2d 0000
000d2e 0000
000d2f 0000      	.DB  0x0,0x0,0x0,0x0,0x0,0x0,0x0,0x0
000d30 0000
000d31 0000
000d32 0000
000d33 0000      	.DB  0x0,0x0,0x0,0x0,0x0,0x0,0x0,0x0
000d34 0000
000d35 0000
000d36 0000
000d37 0000      	.DB  0x0,0x0,0x0,0x0,0x0,0x0,0x0,0x0
                 _square:
000d38 0000
000d39 0000
000d3a 0000
000d3b 0000      	.DB  0x0,0x0,0x0,0x0,0x0,0x0,0x0,0x0
000d3c 0000
000d3d 0000
000d3e 0000
000d3f 0000      	.DB  0x0,0x0,0x0,0x0,0x0,0x0,0x0,0x0
000d40 0000
000d41 0000
000d42 0000
000d43 0000      	.DB  0x0,0x0,0x0,0x0,0x0,0x0,0x0,0x0
000d44 0000
000d45 0000
000d46 0000
000d47 0000      	.DB  0x0,0x0,0x0,0x0,0x0,0x0,0x0,0x0
000d48 0000
000d49 0000
000d4a 0000
000d4b 0000      	.DB  0x0,0x0,0x0,0x0,0x0,0x0,0x0,0x0
000d4c 0000
000d4d f800
000d4e f8f8
000d4f 3838      	.DB  0x0,0x0,0x0,0xF8,0xF8,0xF8,0x38,0x38
000d50 3838
000d51 3838
000d52 3838
000d53 3838      	.DB  0x38,0x38,0x38,0x38,0x38,0x38,0x38,0x38
000d54 3838
000d55 3838
000d56 3838
000d57 3838      	.DB  0x38,0x38,0x38,0x38,0x38,0x38,0x38,0x38
000d58 3838
000d59 3838
000d5a 3838
000d5b 3838      	.DB  0x38,0x38,0x38,0x38,0x38,0x38,0x38,0x38
000d5c 3838
000d5d 3838
000d5e 3838
000d5f 3838      	.DB  0x38,0x38,0x38,0x38,0x38,0x38,0x38,0x38
000d60 3838
000d61 f838
000d62 f8f8
000d63 0000      	.DB  0x38,0x38,0x38,0xF8,0xF8,0xF8,0x0,0x0
000d64 0000
000d65 0000
000d66 0000
000d67 0000      	.DB  0x0,0x0,0x0,0x0,0x0,0x0,0x0,0x0
000d68 0000
000d69 0000
000d6a 0000
000d6b 0000      	.DB  0x0,0x0,0x0,0x0,0x0,0x0,0x0,0x0
000d6c 0000
000d6d 0000
000d6e 0000
000d6f 0000      	.DB  0x0,0x0,0x0,0x0,0x0,0x0,0x0,0x0
000d70 0000
000d71 0000
000d72 0000
000d73 0000      	.DB  0x0,0x0,0x0,0x0,0x0,0x0,0x0,0x0
000d74 0000
000d75 0000
000d76 0000
000d77 0000      	.DB  0x0,0x0,0x0,0x0,0x0,0x0,0x0,0x0
000d78 0000
000d79 0000
000d7a 0000
000d7b 0000      	.DB  0x0,0x0,0x0,0x0,0x0,0x0,0x0,0x0
000d7c 0000
000d7d 0000
000d7e 0000
000d7f 0000      	.DB  0x0,0x0,0x0,0x0,0x0,0x0,0x0,0x0
000d80 0000
000d81 0000
000d82 0000
000d83 0000      	.DB  0x0,0x0,0x0,0x0,0x0,0x0,0x0,0x0
000d84 0000
000d85 0000
000d86 0000
000d87 0000      	.DB  0x0,0x0,0x0,0x0,0x0,0x0,0x0,0x0
000d88 0000
000d89 0000
000d8a 0000
000d8b 0000      	.DB  0x0,0x0,0x0,0x0,0x0,0x0,0x0,0x0
000d8c 0000
000d8d ff00
000d8e ffff
000d8f 0000      	.DB  0x0,0x0,0x0,0xFF,0xFF,0xFF,0x0,0x0
000d90 0000
000d91 0000
000d92 0000
000d93 0000      	.DB  0x0,0x0,0x0,0x0,0x0,0x0,0x0,0x0
000d94 0000
000d95 0000
000d96 0000
000d97 0000      	.DB  0x0,0x0,0x0,0x0,0x0,0x0,0x0,0x0
000d98 0000
000d99 0000
000d9a 0000
000d9b 0000      	.DB  0x0,0x0,0x0,0x0,0x0,0x0,0x0,0x0
000d9c 0000
000d9d 0000
000d9e 0000
000d9f 0000      	.DB  0x0,0x0,0x0,0x0,0x0,0x0,0x0,0x0
000da0 0000
000da1 ff00
000da2 ffff
000da3 0000      	.DB  0x0,0x0,0x0,0xFF,0xFF,0xFF,0x0,0x0
000da4 0000
000da5 0000
000da6 0000
000da7 0000      	.DB  0x0,0x0,0x0,0x0,0x0,0x0,0x0,0x0
000da8 0000
000da9 0000
000daa 0000
000dab 0000      	.DB  0x0,0x0,0x0,0x0,0x0,0x0,0x0,0x0
000dac 0000
000dad 0000
000dae 0000
000daf 0000      	.DB  0x0,0x0,0x0,0x0,0x0,0x0,0x0,0x0
000db0 0000
000db1 0000
000db2 0000
000db3 0000      	.DB  0x0,0x0,0x0,0x0,0x0,0x0,0x0,0x0
000db4 0000
000db5 0000
000db6 0000
000db7 0000      	.DB  0x0,0x0,0x0,0x0,0x0,0x0,0x0,0x0
000db8 0000
000db9 0000
000dba 0000
000dbb 0000      	.DB  0x0,0x0,0x0,0x0,0x0,0x0,0x0,0x0
000dbc 0000
000dbd 0000
000dbe 0000
000dbf 0000      	.DB  0x0,0x0,0x0,0x0,0x0,0x0,0x0,0x0
000dc0 0000
000dc1 0000
000dc2 0000
000dc3 0000      	.DB  0x0,0x0,0x0,0x0,0x0,0x0,0x0,0x0
000dc4 0000
000dc5 0000
000dc6 0000
000dc7 0000      	.DB  0x0,0x0,0x0,0x0,0x0,0x0,0x0,0x0
000dc8 0000
000dc9 0000
000dca 0000
000dcb 0000      	.DB  0x0,0x0,0x0,0x0,0x0,0x0,0x0,0x0
000dcc 0000
000dcd ff00
000dce ffff
000dcf 0000      	.DB  0x0,0x0,0x0,0xFF,0xFF,0xFF,0x0,0x0
000dd0 0000
000dd1 0000
000dd2 0000
000dd3 0000      	.DB  0x0,0x0,0x0,0x0,0x0,0x0,0x0,0x0
000dd4 0000
000dd5 0000
000dd6 0000
000dd7 0000      	.DB  0x0,0x0,0x0,0x0,0x0,0x0,0x0,0x0
000dd8 0000
000dd9 0000
000dda 0000
000ddb 0000      	.DB  0x0,0x0,0x0,0x0,0x0,0x0,0x0,0x0
000ddc 0000
000ddd 0000
000dde 0000
000ddf 0000      	.DB  0x0,0x0,0x0,0x0,0x0,0x0,0x0,0x0
000de0 0000
000de1 ff00
000de2 ffff
000de3 0000      	.DB  0x0,0x0,0x0,0xFF,0xFF,0xFF,0x0,0x0
000de4 0000
000de5 0000
000de6 0000
000de7 0000      	.DB  0x0,0x0,0x0,0x0,0x0,0x0,0x0,0x0
000de8 0000
000de9 0000
000dea 0000
000deb 0000      	.DB  0x0,0x0,0x0,0x0,0x0,0x0,0x0,0x0
000dec 0000
000ded 0000
000dee 0000
000def 0000      	.DB  0x0,0x0,0x0,0x0,0x0,0x0,0x0,0x0
000df0 0000
000df1 0000
000df2 0000
000df3 0000      	.DB  0x0,0x0,0x0,0x0,0x0,0x0,0x0,0x0
000df4 0000
000df5 0000
000df6 0000
000df7 0000      	.DB  0x0,0x0,0x0,0x0,0x0,0x0,0x0,0x0
000df8 0000
000df9 0000
000dfa 0000
000dfb 0000      	.DB  0x0,0x0,0x0,0x0,0x0,0x0,0x0,0x0
000dfc 0000
000dfd 0000
000dfe 0000
000dff 0000      	.DB  0x0,0x0,0x0,0x0,0x0,0x0,0x0,0x0
000e00 0000
000e01 0000
000e02 0000
000e03 0000      	.DB  0x0,0x0,0x0,0x0,0x0,0x0,0x0,0x0
000e04 0000
000e05 0000
000e06 0000
000e07 0000      	.DB  0x0,0x0,0x0,0x0,0x0,0x0,0x0,0x0
000e08 0000
000e09 0000
000e0a 0000
000e0b 0000      	.DB  0x0,0x0,0x0,0x0,0x0,0x0,0x0,0x0
000e0c 0000
000e0d 0f00
000e0e 0f0f
000e0f 0e0e      	.DB  0x0,0x0,0x0,0xF,0xF,0xF,0xE,0xE
000e10 0e0e
000e11 0e0e
000e12 0e0e
000e13 0e0e      	.DB  0xE,0xE,0xE,0xE,0xE,0xE,0xE,0xE
000e14 0e0e
000e15 0e0e
000e16 0e0e
000e17 0e0e      	.DB  0xE,0xE,0xE,0xE,0xE,0xE,0xE,0xE
000e18 0e0e
000e19 0e0e
000e1a 0e0e
000e1b 0e0e      	.DB  0xE,0xE,0xE,0xE,0xE,0xE,0xE,0xE
000e1c 0e0e
000e1d 0e0e
000e1e 0e0e
000e1f 0e0e      	.DB  0xE,0xE,0xE,0xE,0xE,0xE,0xE,0xE
000e20 0e0e
000e21 0f0e
000e22 0f0f
000e23 0000      	.DB  0xE,0xE,0xE,0xF,0xF,0xF,0x0,0x0
000e24 0000
000e25 0000
000e26 0000
000e27 0000      	.DB  0x0,0x0,0x0,0x0,0x0,0x0,0x0,0x0
000e28 0000
000e29 0000
000e2a 0000
000e2b 0000      	.DB  0x0,0x0,0x0,0x0,0x0,0x0,0x0,0x0
000e2c 0000
000e2d 0000
000e2e 0000
000e2f 0000      	.DB  0x0,0x0,0x0,0x0,0x0,0x0,0x0,0x0
000e30 0000
000e31 0000
000e32 0000
000e33 0000      	.DB  0x0,0x0,0x0,0x0,0x0,0x0,0x0,0x0
000e34 0000
000e35 0000
000e36 0000
000e37 0000      	.DB  0x0,0x0,0x0,0x0,0x0,0x0,0x0,0x0
                 _APN:
000e38 636d
000e39 6e69
000e3a 7465
D:\project\vending\code\full\glcd_keypad_sim\Debug\List\glcd_keypad_sim.asm(2042): warning: .cseg .db misalignment - padding zero byte
000e3b 0000      	.DB  0x6D,0x63,0x69,0x6E,0x65,0x74,0x0
                 __glcd_mask:
000e3c 0100
000e3d 0703
000e3e 1f0f
000e3f 7f3f      	.DB  0x0,0x1,0x3,0x7,0xF,0x1F,0x3F,0x7F
D:\project\vending\code\full\glcd_keypad_sim\Debug\List\glcd_keypad_sim.asm(2045): warning: .cseg .db misalignment - padding zero byte
000e40 00ff      	.DB  0xFF
                 _tbl10_G103:
000e41 2710
000e42 03e8
000e43 0064
000e44 000a      	.DB  0x10,0x27,0xE8,0x3,0x64,0x0,0xA,0x0
000e45 0001      	.DB  0x1,0x0
                 _tbl16_G103:
000e46 1000
000e47 0100
000e48 0010
000e49 0001      	.DB  0x0,0x10,0x0,0x1,0x10,0x0,0x1,0x0
                 
                 ;REGISTER BIT VARIABLES INITIALIZATION
                 __REG_BIT_VARS:
000e4a 0000      	.DW  0x0000
                 
                 ;GLOBAL REGISTER VARIABLES INITIALIZATION
                 __REG_VARS:
000e4b 0001
000e4c 0000      	.DB  0x1,0x0,0x0,0x0
000e4d 0000
000e4e 0000      	.DB  0x0,0x0,0x0,0x0
                 
                 _0x0:
000e4f 4f4d
000e50 4f54
000e51 2052
000e52 6425      	.DB  0x4D,0x4F,0x54,0x4F,0x52,0x20,0x25,0x64
000e53 4f20
000e54 214e
000e55 4100
000e56 2b54      	.DB  0x20,0x4F,0x4E,0x21,0x0,0x41,0x54,0x2B
000e57 5448
000e58 5054
000e59 4554
000e5a 4d52      	.DB  0x48,0x54,0x54,0x50,0x54,0x45,0x52,0x4D
000e5b 4100
000e5c 2b54
000e5d 5448
000e5e 5054      	.DB  0x0,0x41,0x54,0x2B,0x48,0x54,0x54,0x50
000e5f 4e49
000e60 5449
000e61 4100
000e62 2b54      	.DB  0x49,0x4E,0x49,0x54,0x0,0x41,0x54,0x2B
000e63 5448
000e64 5054
000e65 4150
000e66 4152      	.DB  0x48,0x54,0x54,0x50,0x50,0x41,0x52,0x41
000e67 223d
000e68 4943
000e69 2244
000e6a 312c      	.DB  0x3D,0x22,0x43,0x49,0x44,0x22,0x2C,0x31
000e6b 2500
000e6c 3f73
000e6d 6870
000e6e 6e6f      	.DB  0x0,0x25,0x73,0x3F,0x70,0x68,0x6F,0x6E
000e6f 5f65
000e70 756e
000e71 626d
000e72 7265      	.DB  0x65,0x5F,0x6E,0x75,0x6D,0x62,0x65,0x72
000e73 253d
000e74 2673
000e75 6564
000e76 6976      	.DB  0x3D,0x25,0x73,0x26,0x64,0x65,0x76,0x69
000e77 6563
000e78 695f
000e79 3d64
000e7a 6425      	.DB  0x63,0x65,0x5F,0x69,0x64,0x3D,0x25,0x64
000e7b 7026
000e7c 6f72
000e7d 7564
000e7e 7463      	.DB  0x26,0x70,0x72,0x6F,0x64,0x75,0x63,0x74
000e7f 695f
000e80 3d64
000e81 6425
000e82 4100      	.DB  0x5F,0x69,0x64,0x3D,0x25,0x64,0x0,0x41
000e83 2b54
000e84 5448
000e85 5054
000e86 4150      	.DB  0x54,0x2B,0x48,0x54,0x54,0x50,0x50,0x41
000e87 4152
000e88 223d
000e89 5255
000e8a 224c      	.DB  0x52,0x41,0x3D,0x22,0x55,0x52,0x4C,0x22
000e8b 222c
000e8c 7325
000e8d 0022
000e8e 5441      	.DB  0x2C,0x22,0x25,0x73,0x22,0x0,0x41,0x54
000e8f 482b
000e90 5454
000e91 4150
000e92 5443      	.DB  0x2B,0x48,0x54,0x54,0x50,0x41,0x43,0x54
000e93 4f49
000e94 3d4e
000e95 0031
000e96 5448      	.DB  0x49,0x4F,0x4E,0x3D,0x31,0x0,0x48,0x54
000e97 5054
000e98 4341
000e99 4954
000e9a 4e4f      	.DB  0x54,0x50,0x41,0x43,0x54,0x49,0x4F,0x4E
000e9b 2b00
000e9c 5448
000e9d 5054
000e9e 4341      	.DB  0x0,0x2B,0x48,0x54,0x54,0x50,0x41,0x43
000e9f 4954
000ea0 4e4f
000ea1 003a
000ea2 7325      	.DB  0x54,0x49,0x4F,0x4E,0x3A,0x0,0x25,0x73
000ea3 703f
000ea4 6f68
000ea5 656e
000ea6 6e5f      	.DB  0x3F,0x70,0x68,0x6F,0x6E,0x65,0x5F,0x6E
000ea7 6d75
000ea8 6562
000ea9 3d72
000eaa 7325      	.DB  0x75,0x6D,0x62,0x65,0x72,0x3D,0x25,0x73
000eab 4100
000eac 2b54
000ead 5448
000eae 5054      	.DB  0x0,0x41,0x54,0x2B,0x48,0x54,0x54,0x50
000eaf 4341
000eb0 4954
000eb1 4e4f
000eb2 303d      	.DB  0x41,0x43,0x54,0x49,0x4F,0x4E,0x3D,0x30
000eb3 6800
000eb4 7474
000eb5 3a70
000eb6 2f2f      	.DB  0x0,0x68,0x74,0x74,0x70,0x3A,0x2F,0x2F
000eb7 3831
000eb8 2e35
000eb9 2e38
000eba 3731      	.DB  0x31,0x38,0x35,0x2E,0x38,0x2E,0x31,0x37
000ebb 2e33
000ebc 3731
000ebd 383a
000ebe 3030      	.DB  0x33,0x2E,0x31,0x37,0x3A,0x38,0x30,0x30
000ebf 2f30
000ec0 6f68
000ec1 656d
000ec2 702f      	.DB  0x30,0x2F,0x68,0x6F,0x6D,0x65,0x2F,0x70
000ec3 736f
000ec4 2f74
000ec5 7500
000ec6 6b6e      	.DB  0x6F,0x73,0x74,0x2F,0x0,0x75,0x6E,0x6B
000ec7 6f6e
000ec8 6e77
000ec9 5300
000eca 534d      	.DB  0x6E,0x6F,0x77,0x6E,0x0,0x53,0x4D,0x53
000ecb 6620
000ecc 6f72
000ecd 3a6d
000ece 3200      	.DB  0x20,0x66,0x72,0x6F,0x6D,0x3A,0x0,0x32
000ecf 3300
000ed0 5400
000ed1 6d69
000ed2 6f65      	.DB  0x0,0x33,0x0,0x54,0x69,0x6D,0x65,0x6F
000ed3 7475
000ed4 2021
000ed5 7254
000ed6 2079      	.DB  0x75,0x74,0x21,0x20,0x54,0x72,0x79,0x20
000ed7 6761
000ed8 6961
000ed9 2e6e
000eda 7400      	.DB  0x61,0x67,0x61,0x69,0x6E,0x2E,0x0,0x74
000edb 7365
000edc 2074
000edd 2132
000ede 2b00      	.DB  0x65,0x73,0x74,0x20,0x32,0x21,0x0,0x2B
000edf 4d43
000ee0 3a54
000ee1 4d00
000ee2 646f      	.DB  0x43,0x4D,0x54,0x3A,0x0,0x4D,0x6F,0x64
000ee3 6c75
000ee4 2065
000ee5 6e49
000ee6 7469      	.DB  0x75,0x6C,0x65,0x20,0x49,0x6E,0x69,0x74
000ee7 2e2e
000ee8 002e
000ee9 5047
000eea 5352      	.DB  0x2E,0x2E,0x2E,0x0,0x47,0x50,0x52,0x53
000eeb 4920
000eec 696e
000eed 2074
000eee 6146      	.DB  0x20,0x49,0x6E,0x69,0x74,0x20,0x46,0x61
000eef 6c69
000ef0 6465
000ef1 0021      	.DB  0x69,0x6C,0x65,0x64,0x21,0x0
                 _0x20000:
000ef2 7325
000ef3 0a0d
D:\project\vending\code\full\glcd_keypad_sim\Debug\List\glcd_keypad_sim.asm(2104): warning: .cseg .db misalignment - padding zero byte
000ef4 0000      	.DB  0x25,0x73,0xD,0xA,0x0
                 _0x40003:
000ef5 3023
000ef6 392a
000ef7 3738
000ef8 3536      	.DB  0x23,0x30,0x2A,0x39,0x38,0x37,0x36,0x35
000ef9 3334
000efa 3132
000efb 0507
000efc 0406      	.DB  0x34,0x33,0x32,0x31,0x7,0x5,0x6,0x4
000efd 0100
D:\project\vending\code\full\glcd_keypad_sim\Debug\List\glcd_keypad_sim.asm(2108): warning: .cseg .db misalignment - padding zero byte
000efe 0002      	.DB  0x0,0x1,0x2
                 _0x40000:
000eff 7250
000f00 7365
000f01 2073
000f02 2061      	.DB  0x50,0x72,0x65,0x73,0x73,0x20,0x61,0x20
000f03 656b
000f04 2e79
000f05 2e2e
000f06 4b00      	.DB  0x6B,0x65,0x79,0x2E,0x2E,0x2E,0x0,0x4B
000f07 7965
000f08 5020
000f09 6572
000f0a 7373      	.DB  0x65,0x79,0x20,0x50,0x72,0x65,0x73,0x73
000f0b 6465
000f0c 003a      	.DB  0x65,0x64,0x3A,0x0
                 _0x60000:
000f0d 6552
000f0e 7473
000f0f 7261
000f10 6974      	.DB  0x52,0x65,0x73,0x74,0x61,0x72,0x74,0x69
000f11 676e
000f12 5320
000f13 4d49
000f14 3038      	.DB  0x6E,0x67,0x20,0x53,0x49,0x4D,0x38,0x30
000f15 2e30
000f16 2e2e
000f17 4100
000f18 2b54      	.DB  0x30,0x2E,0x2E,0x2E,0x0,0x41,0x54,0x2B
000f19 5448
000f1a 5054
000f1b 4554
000f1c 4d52      	.DB  0x48,0x54,0x54,0x50,0x54,0x45,0x52,0x4D
000f1d 4f00
000f1e 004b
000f1f 5245
000f20 4f52      	.DB  0x0,0x4F,0x4B,0x0,0x45,0x52,0x52,0x4F
000f21 0052
000f22 6157
000f23 7469
000f24 6e69      	.DB  0x52,0x0,0x57,0x61,0x69,0x74,0x69,0x6E
000f25 2067
000f26 5448
000f27 5054
000f28 4554      	.DB  0x67,0x20,0x48,0x54,0x54,0x50,0x54,0x45
000f29 4d52
000f2a 2e2e
000f2b 002e
000f2c 5441      	.DB  0x52,0x4D,0x2E,0x2E,0x2E,0x0,0x41,0x54
000f2d 532b
000f2e 5041
000f2f 5242
000f30 303d      	.DB  0x2B,0x53,0x41,0x50,0x42,0x52,0x3D,0x30
000f31 312c
000f32 5700
000f33 6961
000f34 6974      	.DB  0x2C,0x31,0x0,0x57,0x61,0x69,0x74,0x69
000f35 676e
000f36 5320
000f37 5041
000f38 5242      	.DB  0x6E,0x67,0x20,0x53,0x41,0x50,0x42,0x52
000f39 303d
000f3a 312c
000f3b 2e2e
000f3c 002e      	.DB  0x3D,0x30,0x2C,0x31,0x2E,0x2E,0x2E,0x0
000f3d 5441
000f3e 532b
000f3f 5041
000f40 5242      	.DB  0x41,0x54,0x2B,0x53,0x41,0x50,0x42,0x52
000f41 323d
000f42 312c
000f43 5300
000f44 5041      	.DB  0x3D,0x32,0x2C,0x31,0x0,0x53,0x41,0x50
000f45 5242
000f46 3000
000f47 302e
000f48 302e      	.DB  0x42,0x52,0x0,0x30,0x2E,0x30,0x2E,0x30
000f49 302e
000f4a 2c00
000f4b 2c30
000f4c 2c00      	.DB  0x2E,0x30,0x0,0x2C,0x30,0x2C,0x0,0x2C
000f4d 2c33
000f4e 4300
000f4f 6568
000f50 6b63      	.DB  0x33,0x2C,0x0,0x43,0x68,0x65,0x63,0x6B
000f51 6e69
000f52 2067
000f53 4153
000f54 4250      	.DB  0x69,0x6E,0x67,0x20,0x53,0x41,0x50,0x42
000f55 2052
000f56 6c63
000f57 736f
000f58 6465      	.DB  0x52,0x20,0x63,0x6C,0x6F,0x73,0x65,0x64
000f59 2e2e
000f5a 002e
000f5b 5441
000f5c 432b      	.DB  0x2E,0x2E,0x2E,0x0,0x41,0x54,0x2B,0x43
000f5d 4147
000f5e 5454
000f5f 303d
000f60 5700      	.DB  0x47,0x41,0x54,0x54,0x3D,0x30,0x0,0x57
000f61 6961
000f62 6974
000f63 676e
000f64 4320      	.DB  0x61,0x69,0x74,0x69,0x6E,0x67,0x20,0x43
000f65 4147
000f66 5454
000f67 303d
000f68 2e2e      	.DB  0x47,0x41,0x54,0x54,0x3D,0x30,0x2E,0x2E
000f69 002e
000f6a 5441
000f6b 432b
000f6c 5546      	.DB  0x2E,0x0,0x41,0x54,0x2B,0x43,0x46,0x55
000f6d 3d4e
000f6e 2c31
000f6f 0031
000f70 6552      	.DB  0x4E,0x3D,0x31,0x2C,0x31,0x0,0x52,0x65
000f71 6f62
000f72 746f
000f73 6e69
000f74 2c67      	.DB  0x62,0x6F,0x6F,0x74,0x69,0x6E,0x67,0x2C
000f75 7720
000f76 6961
000f77 2074
000f78 6f66      	.DB  0x20,0x77,0x61,0x69,0x74,0x20,0x66,0x6F
000f79 2072
000f7a 5441
000f7b 2e2e
000f7c 002e      	.DB  0x72,0x20,0x41,0x54,0x2E,0x2E,0x2E,0x0
000f7d 5441
000f7e 4100
000f7f 4554
000f80 0030      	.DB  0x41,0x54,0x0,0x41,0x54,0x45,0x30,0x0
000f81 6157
000f82 7469
000f83 6e69
000f84 2067      	.DB  0x57,0x61,0x69,0x74,0x69,0x6E,0x67,0x20
000f85 5441
000f86 3045
000f87 2e2e
000f88 002e      	.DB  0x41,0x54,0x45,0x30,0x2E,0x2E,0x2E,0x0
000f89 6946
000f8a 616e
000f8b 206c
000f8c 5441      	.DB  0x46,0x69,0x6E,0x61,0x6C,0x20,0x41,0x54
000f8d 6320
000f8e 6568
000f8f 6b63
000f90 2e2e      	.DB  0x20,0x63,0x68,0x65,0x63,0x6B,0x2E,0x2E
000f91 002e
000f92 6552
000f93 7473
000f94 7261      	.DB  0x2E,0x0,0x52,0x65,0x73,0x74,0x61,0x72
000f95 2074
000f96 6f44
000f97 656e
000f98 0021      	.DB  0x74,0x20,0x44,0x6F,0x6E,0x65,0x21,0x0
000f99 5441
000f9a 432b
000f9b 4950
000f9c 3f4e      	.DB  0x41,0x54,0x2B,0x43,0x50,0x49,0x4E,0x3F
000f9d 4300
000f9e 4950
000f9f 004e
000fa0 432b      	.DB  0x0,0x43,0x50,0x49,0x4E,0x0,0x2B,0x43
000fa1 4950
000fa2 3a4e
000fa3 4100
000fa4 2b54      	.DB  0x50,0x49,0x4E,0x3A,0x0,0x41,0x54,0x2B
000fa5 5243
000fa6 4745
000fa7 003f
000fa8 5243      	.DB  0x43,0x52,0x45,0x47,0x3F,0x0,0x43,0x52
000fa9 4745
000faa 2b00
000fab 5243
000fac 4745      	.DB  0x45,0x47,0x0,0x2B,0x43,0x52,0x45,0x47
000fad 003a
000fae 6157
000faf 7469
000fb0 6e69      	.DB  0x3A,0x0,0x57,0x61,0x69,0x74,0x69,0x6E
000fb1 2067
000fb2 6f66
000fb3 2072
000fb4 656e      	.DB  0x67,0x20,0x66,0x6F,0x72,0x20,0x6E,0x65
000fb5 7774
000fb6 726f
000fb7 2e6b
000fb8 2e2e      	.DB  0x74,0x77,0x6F,0x72,0x6B,0x2E,0x2E,0x2E
000fb9 4e00
000fba 7465
000fbb 6f77
000fbc 6b72      	.DB  0x0,0x4E,0x65,0x74,0x77,0x6F,0x72,0x6B
000fbd 4f20
000fbe 214b
000fbf 4100
000fc0 2b54      	.DB  0x20,0x4F,0x4B,0x21,0x0,0x41,0x54,0x2B
000fc1 5343
000fc2 0051
000fc3 432b
000fc4 5153      	.DB  0x43,0x53,0x51,0x0,0x2B,0x43,0x53,0x51
000fc5 003a
000fc6 6f4e
000fc7 7320
000fc8 6769      	.DB  0x3A,0x0,0x4E,0x6F,0x20,0x73,0x69,0x67
000fc9 616e
000fca 206c
000fcb 6661
000fcc 6574      	.DB  0x6E,0x61,0x6C,0x20,0x61,0x66,0x74,0x65
000fcd 2072
000fce 6425
000fcf 7220
000fd0 7465      	.DB  0x72,0x20,0x25,0x64,0x20,0x72,0x65,0x74
000fd1 6972
000fd2 7365
000fd3 0a21
000fd4 5300      	.DB  0x72,0x69,0x65,0x73,0x21,0xA,0x0,0x53
000fd5 7465
000fd6 6974
000fd7 676e
000fd8 5320      	.DB  0x65,0x74,0x74,0x69,0x6E,0x67,0x20,0x53
000fd9 534d
000fda 4d20
000fdb 646f
000fdc 2e65      	.DB  0x4D,0x53,0x20,0x4D,0x6F,0x64,0x65,0x2E
000fdd 2e2e
000fde 4100
000fdf 2b54
000fe0 4643      	.DB  0x2E,0x2E,0x0,0x41,0x54,0x2B,0x43,0x46
000fe1 4e55
000fe2 313d
000fe3 4100
000fe4 2b54      	.DB  0x55,0x4E,0x3D,0x31,0x0,0x41,0x54,0x2B
000fe5 5343
000fe6 4c43
000fe7 3d4b
000fe8 0030      	.DB  0x43,0x53,0x43,0x4C,0x4B,0x3D,0x30,0x0
000fe9 5441
000fea 432b
000feb 474d
000fec 3d46      	.DB  0x41,0x54,0x2B,0x43,0x4D,0x47,0x46,0x3D
000fed 0031
000fee 5441
000fef 432b
000ff0 4d4e      	.DB  0x31,0x0,0x41,0x54,0x2B,0x43,0x4E,0x4D
000ff1 3d49
000ff2 2c32
000ff3 2c32
000ff4 2c30      	.DB  0x49,0x3D,0x32,0x2C,0x32,0x2C,0x30,0x2C
000ff5 2c30
000ff6 0030
000ff7 5441
000ff8 432b      	.DB  0x30,0x2C,0x30,0x0,0x41,0x54,0x2B,0x43
000ff9 474d
000ffa 4144
000ffb 223d
000ffc 4544      	.DB  0x4D,0x47,0x44,0x41,0x3D,0x22,0x44,0x45
000ffd 204c
000ffe 4c41
000fff 224c
001000 5300      	.DB  0x4C,0x20,0x41,0x4C,0x4C,0x22,0x0,0x53
001001 534d
001002 5220
001003 6165
001004 7964      	.DB  0x4D,0x53,0x20,0x52,0x65,0x61,0x64,0x79
001005 002e
001006 6f43
001007 6e6e
001008 6365      	.DB  0x2E,0x0,0x43,0x6F,0x6E,0x6E,0x65,0x63
001009 6974
00100a 676e
00100b 7420
00100c 206f      	.DB  0x74,0x69,0x6E,0x67,0x20,0x74,0x6F,0x20
00100d 5047
00100e 5352
00100f 2e2e
001010 002e      	.DB  0x47,0x50,0x52,0x53,0x2E,0x2E,0x2E,0x0
001011 5441
001012 532b
001013 5041
001014 5242      	.DB  0x41,0x54,0x2B,0x53,0x41,0x50,0x42,0x52
001015 333d
001016 312c
001017 222c
001018 6f43      	.DB  0x3D,0x33,0x2C,0x31,0x2C,0x22,0x43,0x6F
001019 746e
00101a 7079
00101b 2265
00101c 222c      	.DB  0x6E,0x74,0x79,0x70,0x65,0x22,0x2C,0x22
00101d 5047
00101e 5352
00101f 0022
001020 5441      	.DB  0x47,0x50,0x52,0x53,0x22,0x0,0x41,0x54
001021 532b
001022 5041
001023 5242
001024 333d      	.DB  0x2B,0x53,0x41,0x50,0x42,0x52,0x3D,0x33
001025 312c
001026 222c
001027 5041
001028 224e      	.DB  0x2C,0x31,0x2C,0x22,0x41,0x50,0x4E,0x22
001029 222c
00102a 7325
00102b 0022
00102c 5441      	.DB  0x2C,0x22,0x25,0x73,0x22,0x0,0x41,0x54
00102d 532b
00102e 5041
00102f 5242
001030 313d      	.DB  0x2B,0x53,0x41,0x50,0x42,0x52,0x3D,0x31
001031 312c
001032 4600
001033 7465
001034 6863      	.DB  0x2C,0x31,0x0,0x46,0x65,0x74,0x63,0x68
001035 6e69
001036 2067
001037 5049
001038 2e2e      	.DB  0x69,0x6E,0x67,0x20,0x49,0x50,0x2E,0x2E
001039 002e
00103a 532b
00103b 5041
00103c 5242      	.DB  0x2E,0x0,0x2B,0x53,0x41,0x50,0x42,0x52
00103d 003a
00103e 6f4e
00103f 4920
001040 0050      	.DB  0x3A,0x0,0x4E,0x6F,0x20,0x49,0x50,0x0
001041 5441
001042 482b
001043 5454
001044 4950      	.DB  0x41,0x54,0x2B,0x48,0x54,0x54,0x50,0x49
001045 494e
001046 0054
001047 5441
001048 482b      	.DB  0x4E,0x49,0x54,0x0,0x41,0x54,0x2B,0x48
001049 5454
00104a 5050
00104b 5241
00104c 3d41      	.DB  0x54,0x54,0x50,0x50,0x41,0x52,0x41,0x3D
00104d 4322
00104e 4449
00104f 2c22
001050 0031      	.DB  0x22,0x43,0x49,0x44,0x22,0x2C,0x31,0x0
001051 5441
001052 482b
001053 5454
001054 5050      	.DB  0x41,0x54,0x2B,0x48,0x54,0x54,0x50,0x50
001055 5241
001056 3d41
001057 5522
001058 4c52      	.DB  0x41,0x52,0x41,0x3D,0x22,0x55,0x52,0x4C
001059 2c22
00105a 6822
00105b 7474
00105c 3a70      	.DB  0x22,0x2C,0x22,0x68,0x74,0x74,0x70,0x3A
00105d 2f2f
00105e 7777
00105f 2e77
001060 6f67      	.DB  0x2F,0x2F,0x77,0x77,0x77,0x2E,0x67,0x6F
001061 676f
001062 656c
001063 632e
001064 6d6f      	.DB  0x6F,0x67,0x6C,0x65,0x2E,0x63,0x6F,0x6D
001065 0022
001066 5441
001067 482b
001068 5454      	.DB  0x22,0x0,0x41,0x54,0x2B,0x48,0x54,0x54
001069 4150
00106a 5443
00106b 4f49
00106c 3d4e      	.DB  0x50,0x41,0x43,0x54,0x49,0x4F,0x4E,0x3D
00106d 0030
00106e 5448
00106f 5054
001070 4341      	.DB  0x30,0x0,0x48,0x54,0x54,0x50,0x41,0x43
001071 4954
001072 4e4f
001073 2b00
001074 5448      	.DB  0x54,0x49,0x4F,0x4E,0x0,0x2B,0x48,0x54
001075 5054
001076 4341
001077 4954
001078 4e4f      	.DB  0x54,0x50,0x41,0x43,0x54,0x49,0x4F,0x4E
D:\project\vending\code\full\glcd_keypad_sim\Debug\List\glcd_keypad_sim.asm(2206): warning: .cseg .db misalignment - padding zero byte
001079 0000      	.DB  0x0
                 _0x20A0060:
D:\project\vending\code\full\glcd_keypad_sim\Debug\List\glcd_keypad_sim.asm(2208): warning: .cseg .db misalignment - padding zero byte
00107a 0001      	.DB  0x1
                 _0x20A0000:
00107b 4e2d
00107c 4e41
00107d 4900
00107e 464e      	.DB  0x2D,0x4E,0x41,0x4E,0x0,0x49,0x4E,0x46
D:\project\vending\code\full\glcd_keypad_sim\Debug\List\glcd_keypad_sim.asm(2211): warning: .cseg .db misalignment - padding zero byte
00107f 0000      	.DB  0x0
                 
                 __GLOBAL_INI_TBL:
001080 0001      	.DW  0x01
001081 0002      	.DW  0x02
001082 1c94      	.DW  __REG_BIT_VARS*2
                 
001083 0008      	.DW  0x08
001084 0004      	.DW  0x04
001085 1c96      	.DW  __REG_VARS*2
                 
001086 000c      	.DW  0x0C
001087 0500      	.DW  _0x20
001088 1cab      	.DW  _0x0*2+13
                 
001089 000c      	.DW  0x0C
00108a 050c      	.DW  _0x20+12
00108b 1cb7      	.DW  _0x0*2+25
                 
00108c 0014      	.DW  0x14
00108d 0518      	.DW  _0x20+24
00108e 1cc3      	.DW  _0x0*2+37
                 
00108f 0010      	.DW  0x10
001090 052c      	.DW  _0x20+44
001091 1d1c      	.DW  _0x0*2+126
                 
001092 000b      	.DW  0x0B
001093 053c      	.DW  _0x20+60
001094 1d2c      	.DW  _0x0*2+142
                 
001095 000d      	.DW  0x0D
001096 0547      	.DW  _0x20+71
001097 1d37      	.DW  _0x0*2+153
                 
001098 000c      	.DW  0x0C
001099 0554      	.DW  _0x20+84
00109a 1cab      	.DW  _0x0*2+13
                 
00109b 000c      	.DW  0x0C
00109c 0560      	.DW  _0x26
00109d 1cab      	.DW  _0x0*2+13
                 
00109e 000c      	.DW  0x0C
00109f 056c      	.DW  _0x26+12
0010a0 1cb7      	.DW  _0x0*2+25
                 
0010a1 0014      	.DW  0x14
0010a2 0578      	.DW  _0x26+24
0010a3 1cc3      	.DW  _0x0*2+37
                 
0010a4 0010      	.DW  0x10
0010a5 058c      	.DW  _0x26+44
0010a6 1d57      	.DW  _0x0*2+185
                 
0010a7 000b      	.DW  0x0B
0010a8 059c      	.DW  _0x26+60
0010a9 1d2c      	.DW  _0x0*2+142
                 
0010aa 000d      	.DW  0x0D
0010ab 05a7      	.DW  _0x26+71
0010ac 1d37      	.DW  _0x0*2+153
                 
0010ad 000c      	.DW  0x0C
0010ae 05b4      	.DW  _0x26+84
0010af 1cab      	.DW  _0x0*2+13
                 
0010b0 0024      	.DW  0x24
0010b1 05c0      	.DW  _0x2C
0010b2 1d67      	.DW  _0x0*2+201
                 
0010b3 0008      	.DW  0x08
0010b4 05e4      	.DW  _0x2C+36
0010b5 1d8b      	.DW  _0x0*2+237
                 
0010b6 000a      	.DW  0x0A
0010b7 05ec      	.DW  _0x2C+44
0010b8 1d93      	.DW  _0x0*2+245
                 
0010b9 0002      	.DW  0x02
0010ba 05f6      	.DW  _0x2C+54
0010bb 1cd5      	.DW  _0x0*2+55
                 
0010bc 0002      	.DW  0x02
0010bd 05f8      	.DW  _0x2C+56
0010be 1d9d      	.DW  _0x0*2+255
                 
0010bf 0002      	.DW  0x02
0010c0 05fa      	.DW  _0x2C+58
0010c1 1d9f      	.DW  _0x0*2+257
                 
0010c2 0014      	.DW  0x14
0010c3 05fc      	.DW  _0x2C+60
0010c4 1da1      	.DW  _0x0*2+259
                 
0010c5 0008      	.DW  0x08
0010c6 0610      	.DW  _0x2C+80
0010c7 1db5      	.DW  _0x0*2+279
                 
0010c8 0006      	.DW  0x06
0010c9 0618      	.DW  _0x45
0010ca 1dbd      	.DW  _0x0*2+287
                 
0010cb 000f      	.DW  0x0F
0010cc 061e      	.DW  _0x4E
0010cd 1dc3      	.DW  _0x0*2+293
                 
0010ce 0012      	.DW  0x12
0010cf 062d      	.DW  _0x4E+15
0010d0 1dd2      	.DW  _0x0*2+308
                 
0010d1 000f      	.DW  0x0F
0010d2 063f      	.DW  _0x4000F
0010d3 1dfe      	.DW  _0x40000*2
                 
0010d4 000d      	.DW  0x0D
0010d5 064e      	.DW  _0x4000F+15
0010d6 1e0d      	.DW  _0x40000*2+15
                 
0010d7 0015      	.DW  0x15
0010d8 065b      	.DW  _0x60003
0010d9 1e1a      	.DW  _0x60000*2
                 
0010da 000c      	.DW  0x0C
0010db 0670      	.DW  _0x60003+21
0010dc 1e2f      	.DW  _0x60000*2+21
                 
0010dd 0003      	.DW  0x03
0010de 067c      	.DW  _0x60003+33
0010df 1e3b      	.DW  _0x60000*2+33
                 
0010e0 0006      	.DW  0x06
0010e1 067f      	.DW  _0x60003+36
0010e2 1e3e      	.DW  _0x60000*2+36
                 
0010e3 0014      	.DW  0x14
0010e4 0685      	.DW  _0x60003+42
0010e5 1e44      	.DW  _0x60000*2+42
                 
0010e6 000d      	.DW  0x0D
0010e7 0699      	.DW  _0x60003+62
0010e8 1e58      	.DW  _0x60000*2+62
                 
0010e9 0003      	.DW  0x03
0010ea 06a6      	.DW  _0x60003+75
0010eb 1e3b      	.DW  _0x60000*2+33
                 
0010ec 0015      	.DW  0x15
0010ed 06a9      	.DW  _0x60003+78
0010ee 1e65      	.DW  _0x60000*2+75
                 
0010ef 000d      	.DW  0x0D
0010f0 06be      	.DW  _0x60003+99
0010f1 1e7a      	.DW  _0x60000*2+96
                 
0010f2 0006      	.DW  0x06
0010f3 06cb      	.DW  _0x60003+112
0010f4 1e87      	.DW  _0x60000*2+109
                 
0010f5 0008      	.DW  0x08
0010f6 06d1      	.DW  _0x60003+118
0010f7 1e8d      	.DW  _0x60000*2+115
                 
0010f8 0004      	.DW  0x04
0010f9 06d9      	.DW  _0x60003+126
0010fa 1e95      	.DW  _0x60000*2+123
                 
0010fb 0004      	.DW  0x04
0010fc 06dd      	.DW  _0x60003+130
0010fd 1e99      	.DW  _0x60000*2+127
                 
0010fe 0019      	.DW  0x19
0010ff 06e1      	.DW  _0x60003+134
001100 1e9d      	.DW  _0x60000*2+131
                 
001101 000b      	.DW  0x0B
001102 06fa      	.DW  _0x60003+159
001103 1eb6      	.DW  _0x60000*2+156
                 
001104 0003      	.DW  0x03
001105 0705      	.DW  _0x60003+170
001106 1e3b      	.DW  _0x60000*2+33
                 
001107 0013      	.DW  0x13
001108 0708      	.DW  _0x60003+173
001109 1ec1      	.DW  _0x60000*2+167
                 
00110a 000c      	.DW  0x0C
00110b 071b      	.DW  _0x60003+192
00110c 1ed4      	.DW  _0x60000*2+186
                 
00110d 0003      	.DW  0x03
00110e 0727      	.DW  _0x60003+204
00110f 1e3b      	.DW  _0x60000*2+33
                 
001110 001a      	.DW  0x1A
001111 072a      	.DW  _0x60003+207
001112 1ee0      	.DW  _0x60000*2+198
                 
001113 0003      	.DW  0x03
001114 0744      	.DW  _0x60003+233
001115 1efa      	.DW  _0x60000*2+224
                 
001116 0003      	.DW  0x03
001117 0747      	.DW  _0x60003+236
001118 1e3b      	.DW  _0x60000*2+33
                 
001119 0005      	.DW  0x05
00111a 074a      	.DW  _0x60003+239
00111b 1efd      	.DW  _0x60000*2+227
                 
00111c 0003      	.DW  0x03
00111d 074f      	.DW  _0x60003+244
00111e 1e3b      	.DW  _0x60000*2+33
                 
00111f 0010      	.DW  0x10
001120 0752      	.DW  _0x60003+247
001121 1f02      	.DW  _0x60000*2+232
                 
001122 0003      	.DW  0x03
001123 0762      	.DW  _0x60003+263
001124 1efa      	.DW  _0x60000*2+224
                 
001125 0003      	.DW  0x03
001126 0765      	.DW  _0x60003+266
001127 1e3b      	.DW  _0x60000*2+33
                 
001128 0012      	.DW  0x12
001129 0768      	.DW  _0x60003+269
00112a 1f12      	.DW  _0x60000*2+248
                 
00112b 000e      	.DW  0x0E
00112c 077a      	.DW  _0x60003+287
00112d 1f24      	.DW  _0x60000*2+266
                 
00112e 0009      	.DW  0x09
00112f 0788      	.DW  _0x60028
001130 1f32      	.DW  _0x60000*2+280
                 
001131 0005      	.DW  0x05
001132 0791      	.DW  _0x60028+9
001133 1f3b      	.DW  _0x60000*2+289
                 
001134 0007      	.DW  0x07
001135 0796      	.DW  _0x60028+14
001136 1f40      	.DW  _0x60000*2+294
                 
001137 0009      	.DW  0x09
001138 079d      	.DW  _0x60028+21
001139 1f47      	.DW  _0x60000*2+301
                 
00113a 0005      	.DW  0x05
00113b 07a6      	.DW  _0x60028+30
00113c 1f50      	.DW  _0x60000*2+310
                 
00113d 0007      	.DW  0x07
00113e 07ab      	.DW  _0x60028+35
00113f 1f55      	.DW  _0x60000*2+315
                 
001140 0017      	.DW  0x17
001141 07b2      	.DW  _0x60028+42
001142 1f5c      	.DW  _0x60000*2+322
                 
001143 000c      	.DW  0x0C
001144 07c9      	.DW  _0x60028+65
001145 1f73      	.DW  _0x60000*2+345
                 
001146 0007      	.DW  0x07
001147 07d5      	.DW  _0x60031
001148 1f7f      	.DW  _0x60000*2+357
                 
001149 0004      	.DW  0x04
00114a 07dc      	.DW  _0x60031+7
00114b 1f82      	.DW  _0x60000*2+360
                 
00114c 0006      	.DW  0x06
00114d 07e0      	.DW  _0x60031+11
00114e 1f86      	.DW  _0x60000*2+364
                 
00114f 0014      	.DW  0x14
001150 07e6      	.DW  _0x6003A
001151 1fa9      	.DW  _0x60000*2+399
                 
001152 000a      	.DW  0x0A
001153 07fa      	.DW  _0x6003A+20
001154 1fbd      	.DW  _0x60000*2+419
                 
001155 000b      	.DW  0x0B
001156 0804      	.DW  _0x6003A+30
001157 1fc7      	.DW  _0x60000*2+429
                 
001158 000a      	.DW  0x0A
001159 080f      	.DW  _0x6003A+41
00115a 1fd2      	.DW  _0x60000*2+440
                 
00115b 0012      	.DW  0x12
00115c 0819      	.DW  _0x6003A+51
00115d 1fdc      	.DW  _0x60000*2+450
                 
00115e 0013      	.DW  0x13
00115f 082b      	.DW  _0x6003A+69
001160 1fee      	.DW  _0x60000*2+468
                 
001161 000b      	.DW  0x0B
001162 083e      	.DW  _0x6003A+88
001163 2001      	.DW  _0x60000*2+487
                 
001164 0016      	.DW  0x16
001165 0849      	.DW  _0x6003B
001166 200c      	.DW  _0x60000*2+498
                 
001167 001e      	.DW  0x1E
001168 085f      	.DW  _0x6003B+22
001169 2022      	.DW  _0x60000*2+520
                 
00116a 000d      	.DW  0x0D
00116b 087d      	.DW  _0x6003B+52
00116c 2058      	.DW  _0x60000*2+574
                 
00116d 0003      	.DW  0x03
00116e 088a      	.DW  _0x6003B+65
00116f 1e3b      	.DW  _0x60000*2+33
                 
001170 000f      	.DW  0x0F
001171 088d      	.DW  _0x6003B+68
001172 2065      	.DW  _0x60000*2+587
                 
001173 000d      	.DW  0x0D
001174 089c      	.DW  _0x6003B+83
001175 1e7a      	.DW  _0x60000*2+96
                 
001176 0006      	.DW  0x06
001177 08a9      	.DW  _0x6003B+96
001178 1e87      	.DW  _0x60000*2+109
                 
001179 0008      	.DW  0x08
00117a 08af      	.DW  _0x6003B+102
00117b 2074      	.DW  _0x60000*2+602
                 
00117c 0008      	.DW  0x08
00117d 08b7      	.DW  _0x6003B+110
00117e 2074      	.DW  _0x60000*2+602
                 
00117f 0006      	.DW  0x06
001180 08bf      	.DW  _0x6003B+118
001181 207c      	.DW  _0x60000*2+610
                 
001182 000c      	.DW  0x0C
001183 08c5      	.DW  _0x60044
001184 1e2f      	.DW  _0x60000*2+21
                 
001185 000c      	.DW  0x0C
001186 08d1      	.DW  _0x60044+12
001187 2082      	.DW  _0x60000*2+616
                 
001188 0014      	.DW  0x14
001189 08dd      	.DW  _0x60044+24
00118a 208e      	.DW  _0x60000*2+628
                 
00118b 002a      	.DW  0x2A
00118c 08f1      	.DW  _0x60044+44
00118d 20a2      	.DW  _0x60000*2+648
                 
00118e 0010      	.DW  0x10
00118f 091b      	.DW  _0x60044+86
001190 20cc      	.DW  _0x60000*2+690
                 
001191 000b      	.DW  0x0B
001192 092b      	.DW  _0x60044+102
001193 20dc      	.DW  _0x60000*2+706
                 
001194 000c      	.DW  0x0C
001195 0936      	.DW  _0x60044+113
001196 20e7      	.DW  _0x60000*2+717
                 
001197 000c      	.DW  0x0C
001198 0942      	.DW  _0x60044+125
001199 1e2f      	.DW  _0x60000*2+21
                 
00119a 0001      	.DW  0x01
00119b 0bd9      	.DW  __seed_G105
00119c 20f4      	.DW  _0x20A0060*2
                 
                 _0xFFFFFFFF:
00119d 0000      	.DW  0
                 
                 #define __GLOBAL_INI_TBL_PRESENT 1
                 
                 __RESET:
00119e 94f8      	CLI
00119f 27ee      	CLR  R30
0011a0 bbec      	OUT  EECR,R30
                 
                 ;INTERRUPT VECTORS ARE PLACED
                 ;AT THE START OF FLASH
0011a1 e0f1      	LDI  R31,1
0011a2 bff5      	OUT  MCUCR,R31
0011a3 bfe5      	OUT  MCUCR,R30
0011a4 93e0 006c 	STS  XMCRB,R30
                 
                 ;CLEAR R2-R14
0011a6 e08d      	LDI  R24,(14-2)+1
0011a7 e0a2      	LDI  R26,2
0011a8 27bb      	CLR  R27
                 __CLEAR_REG:
0011a9 93ed      	ST   X+,R30
0011aa 958a      	DEC  R24
0011ab f7e9      	BRNE __CLEAR_REG
                 
                 ;CLEAR SRAM
0011ac e080      	LDI  R24,LOW(__CLEAR_SRAM_SIZE)
0011ad e190      	LDI  R25,HIGH(__CLEAR_SRAM_SIZE)
0011ae e0a0      	LDI  R26,LOW(__SRAM_START)
0011af e0b1      	LDI  R27,HIGH(__SRAM_START)
                 __CLEAR_SRAM:
0011b0 93ed      	ST   X+,R30
0011b1 9701      	SBIW R24,1
0011b2 f7e9      	BRNE __CLEAR_SRAM
                 
                 ;GLOBAL VARIABLES INITIALIZATION
0011b3 e0e0      	LDI  R30,LOW(__GLOBAL_INI_TBL*2)
0011b4 e2f1      	LDI  R31,HIGH(__GLOBAL_INI_TBL*2)
                 __GLOBAL_INI_NEXT:
0011b5 9185      	LPM  R24,Z+
0011b6 9195      	LPM  R25,Z+
0011b7 9700      	SBIW R24,0
0011b8 f061      	BREQ __GLOBAL_INI_END
0011b9 91a5      	LPM  R26,Z+
0011ba 91b5      	LPM  R27,Z+
0011bb 9005      	LPM  R0,Z+
0011bc 9015      	LPM  R1,Z+
0011bd 01bf      	MOVW R22,R30
0011be 01f0      	MOVW R30,R0
                 __GLOBAL_INI_LOOP:
0011bf 9005      	LPM  R0,Z+
0011c0 920d      	ST   X+,R0
0011c1 9701      	SBIW R24,1
0011c2 f7e1      	BRNE __GLOBAL_INI_LOOP
0011c3 01fb      	MOVW R30,R22
0011c4 cff0      	RJMP __GLOBAL_INI_NEXT
                 __GLOBAL_INI_END:
                 
                 ;HARDWARE STACK POINTER INITIALIZATION
0011c5 efef      	LDI  R30,LOW(__SRAM_END-__HEAP_SIZE)
0011c6 bfed      	OUT  SPL,R30
0011c7 e1e0      	LDI  R30,HIGH(__SRAM_END-__HEAP_SIZE)
0011c8 bfee      	OUT  SPH,R30
                 
                 ;DATA STACK POINTER INITIALIZATION
0011c9 e0c0      	LDI  R28,LOW(__SRAM_START+__DSTACK_SIZE)
0011ca e0d5      	LDI  R29,HIGH(__SRAM_START+__DSTACK_SIZE)
                 
0011cb 940c 14e5 	JMP  _main
                 
                 	.ESEG
                 	.ORG 0
                 
                 	.DSEG
                 	.ORG 0x500
                 
                 	.CSEG
                 ;#include <mega64a.h>
                 	#ifndef __SLEEP_DEFINED__
                 	#define __SLEEP_DEFINED__
                 	.EQU __se_bit=0x20
                 	.EQU __sm_mask=0x1C
                 	.EQU __sm_powerdown=0x10
                 	.EQU __sm_powersave=0x18
                 	.EQU __sm_standby=0x14
                 	.EQU __sm_ext_standby=0x1C
                 	.EQU __sm_adc_noise_red=0x08
                 	.SET power_ctrl_reg=mcucr
                 	#endif
                 ;#include <glcd.h>
                 ;#include <font5x7.h>
                 ;#include <stdio.h>
                 ;#include <string.h>
                 ;#include <stdlib.h> // E?C? C?E?CI? C? ECE? atoi
                 ;#include <delay.h>
                 ;
                 ;#include "bitmaps.h"
                 ;#include "common.h"
                 ;#include "keypad.h"
                 ;#include "motor.h"
                 ;#include "init_sms.h"
                 ;#include "sim800.h"
                 ;
                 ;
                 ;typedef unsigned char uint8_t;
                 ;typedef unsigned int  uint16_t;
                 ;typedef signed char   int8_t;
                 ;
                 ;volatile unsigned long millis_counter = 0;
                 ;//#define APN "mcinet" // APN C??CE?? I?I ?C ?C?I ???I
                 ;const char APN[] = "mcinet";
                 ;
                 ;unsigned long last_time = 0;
                 ;int device_id = 1;
                 ;
                 ;#define glcd_pixel(x, y, color) glcd_setpixel(x, y)
                 ;#define read_flash_byte(p) (*(p))
                 ;
                 ;//#define BUFFER_SIZE 512
                 ;#define HTTP_TIMEOUT_MS 5000
                 ;
                 ;
                 ;#define MOTOR_DDR DDRE
                 ;#define MOTOR_PORT PORTE
                 ;#define MOTOR_PIN_1 2
                 ;#define MOTOR_PIN_2 3
                 ;#define MOTOR_PIN_3 4
                 ;
                 ;char ip_address_buffer[16];
                 ;
                 ;char value[16];
                 ;char buffer[BUFFER_SIZE];
                 ;
                 ;volatile bit sms_received = 0;
                 ;
                 ;char header_buffer[100];
                 ;char content_buffer[100];
                 ;int header_index = 0;
                 ;int content_index = 0;
                 ;
                 ;
                 ;#define DATA_REGISTER_EMPTY (1<<UDRE0)
                 ;#define RX_COMPLETE (1<<RXC0)
                 ;#define FRAMING_ERROR (1<<FE0)
                 ;#define PARITY_ERROR (1<<UPE0)
                 ;#define DATA_OVERRUN (1<<DOR0)
                 ;
                 ;// USART0 Receiver buffer
                 ;#define RX_BUFFER_SIZE0 100
                 ;char rx_buffer0[RX_BUFFER_SIZE0];
                 ;
                 ;#if RX_BUFFER_SIZE0 <= 256
                 ;unsigned char rx_wr_index0=0,rx_rd_index0=0;
                 ;#else
                 ;unsigned int rx_wr_index0=0,rx_rd_index0=0;
                 ;#endif
                 ;
                 ;#if RX_BUFFER_SIZE0 < 256
                 ;unsigned char rx_counter0=0;
                 ;#else
                 ;unsigned int rx_counter0=0;
                 ;#endif
                 ;
                 ;// This flag is set on USART0 Receiver buffer overflow
                 ;bit rx_buffer_overflow0;
                 ;
                 ;// USART0 Receiver interrupt service routine
                 ;interrupt [USART0_RXC] void usart0_rx_isr(void)
                 ; 0000 0051 {
                 
                 	.CSEG
                 _usart0_rx_isr:
                 ; .FSTART _usart0_rx_isr
0011cd 93aa      	ST   -Y,R26
0011ce 93ea      	ST   -Y,R30
0011cf 93fa      	ST   -Y,R31
0011d0 b7ef      	IN   R30,SREG
0011d1 93ea      	ST   -Y,R30
                 ; 0000 0052     char status,data;
                 ; 0000 0053     status=UCSR0A;
0011d2 931a      	ST   -Y,R17
0011d3 930a      	ST   -Y,R16
                 ;	status -> R17
                 ;	data -> R16
0011d4 b11b      	IN   R17,11
                 ; 0000 0054     data=UDR0;
0011d5 b10c      	IN   R16,12
                 ; 0000 0055     if ((status & (FRAMING_ERROR | PARITY_ERROR | DATA_OVERRUN))==0)
0011d6 2fe1      	MOV  R30,R17
0011d7 71ec      	ANDI R30,LOW(0x1C)
0011d8 f4e9      	BRNE _0x3
                 ; 0000 0056     {
                 ; 0000 0057         rx_buffer0[rx_wr_index0++]=data;
0011d9 91e0 096c 	LDS  R30,_rx_wr_index0
0011db 5fef      	SUBI R30,-LOW(1)
0011dc 93e0 096c 	STS  _rx_wr_index0,R30
0011de 50e1      	SUBI R30,LOW(1)
0011df e0f0      	LDI  R31,0
0011e0 5be2      	SUBI R30,LOW(-_rx_buffer0)
0011e1 4ff4      	SBCI R31,HIGH(-_rx_buffer0)
0011e2 8300      	ST   Z,R16
                 ; 0000 0058         #if RX_BUFFER_SIZE0 == 256
                 ; 0000 0059         // special case for receiver buffer size=256
                 ; 0000 005A         if (++rx_counter0 == 0) rx_buffer_overflow0=1;
                 ; 0000 005B         #else
                 ; 0000 005C         if (rx_wr_index0 == RX_BUFFER_SIZE0) rx_wr_index0=0;
0011e3 91a0 096c 	LDS  R26,_rx_wr_index0
0011e5 36a4      	CPI  R26,LOW(0x64)
0011e6 f419      	BRNE _0x4
0011e7 e0e0      	LDI  R30,LOW(0)
0011e8 93e0 096c 	STS  _rx_wr_index0,R30
                 ; 0000 005D         if (++rx_counter0 == RX_BUFFER_SIZE0)
                 _0x4:
0011ea 91a0 096b 	LDS  R26,_rx_counter0
0011ec 5faf      	SUBI R26,-LOW(1)
0011ed 93a0 096b 	STS  _rx_counter0,R26
0011ef 36a4      	CPI  R26,LOW(0x64)
0011f0 f429      	BRNE _0x5
                 ; 0000 005E             {
                 ; 0000 005F             rx_counter0=0;
0011f1 e0e0      	LDI  R30,LOW(0)
0011f2 93e0 096b 	STS  _rx_counter0,R30
                 ; 0000 0060             rx_buffer_overflow0=1;
0011f4 9468      	SET
0011f5 f820      	BLD  R2,0
                 ; 0000 0061             }
                 ; 0000 0062         #endif
                 ; 0000 0063     }
                 _0x5:
                 ; 0000 0064 }
                 _0x3:
0011f6 9109      	LD   R16,Y+
0011f7 9119      	LD   R17,Y+
0011f8 91e9      	LD   R30,Y+
0011f9 bfef      	OUT  SREG,R30
0011fa 91f9      	LD   R31,Y+
0011fb 91e9      	LD   R30,Y+
0011fc 91a9      	LD   R26,Y+
0011fd 9518      	RETI
                 ; .FEND
                 ;
                 ;#ifndef _DEBUG_TERMINAL_IO_
                 ;// Get a character from the USART0 Receiver buffer
                 ;#define _ALTERNATE_GETCHAR_
                 ;#pragma used+
                 ;char getchar(void)
                 ; 0000 006B {
                 _getchar:
                 ; .FSTART _getchar
                 ; 0000 006C     char data;
                 ; 0000 006D     while (rx_counter0==0);
0011fe 931a      	ST   -Y,R17
                 ;	data -> R17
                 _0x6:
0011ff 91e0 096b 	LDS  R30,_rx_counter0
001201 30e0      	CPI  R30,0
001202 f3e1      	BREQ _0x6
                 ; 0000 006E     data=rx_buffer0[rx_rd_index0++];
001203 91e0 096d 	LDS  R30,_rx_rd_index0
001205 5fef      	SUBI R30,-LOW(1)
001206 93e0 096d 	STS  _rx_rd_index0,R30
001208 50e1      	SUBI R30,LOW(1)
001209 e0f0      	LDI  R31,0
00120a 5be2      	SUBI R30,LOW(-_rx_buffer0)
00120b 4ff4      	SBCI R31,HIGH(-_rx_buffer0)
00120c 8110      	LD   R17,Z
                 ; 0000 006F     #if RX_BUFFER_SIZE0 != 256
                 ; 0000 0070     if (rx_rd_index0 == RX_BUFFER_SIZE0) rx_rd_index0=0;
00120d 91a0 096d 	LDS  R26,_rx_rd_index0
00120f 36a4      	CPI  R26,LOW(0x64)
001210 f419      	BRNE _0x9
001211 e0e0      	LDI  R30,LOW(0)
001212 93e0 096d 	STS  _rx_rd_index0,R30
                 ; 0000 0071     #endif
                 ; 0000 0072     #asm("cli")
                 _0x9:
001214 94f8      	cli
                 ; 0000 0073     --rx_counter0;
001215 91e0 096b 	LDS  R30,_rx_counter0
001217 50e1      	SUBI R30,LOW(1)
001218 93e0 096b 	STS  _rx_counter0,R30
                 ; 0000 0074     #asm("sei")
00121a 9478      	sei
                 ; 0000 0075     return data;
00121b 2fe1      	MOV  R30,R17
00121c 9119      	LD   R17,Y+
00121d 9508      	RET
                 ; 0000 0076 }
                 ; .FEND
                 ;#pragma used-
                 ;#endif
                 ;
                 ;// Standard Input/Output functions
                 ;#include <stdio.h>
                 ;
                 ;// Timer 0 overflow interrupt service routine
                 ;interrupt [TIM0_OVF] void timer0_ovf_isr(void)
                 ; 0000 007F {
                 _timer0_ovf_isr:
                 ; .FSTART _timer0_ovf_isr
00121e 936a      	ST   -Y,R22
00121f 937a      	ST   -Y,R23
001220 93ea      	ST   -Y,R30
001221 93fa      	ST   -Y,R31
001222 b7ef      	IN   R30,SREG
001223 93ea      	ST   -Y,R30
                 ; 0000 0080     //  0     ~32.768ms  
                 ; 0000 0081     millis_counter += 33;  //  (    prescaler  )
001224 940e 21d1 	CALL SUBOPT_0x0
                +
001226 5def     +SUBI R30 , LOW ( - 33 )
001227 4fff     +SBCI R31 , HIGH ( - 33 )
001228 4f6f     +SBCI R22 , BYTE3 ( - 33 )
001229 4f7f     +SBCI R23 , BYTE4 ( - 33 )
                 	__ADDD1N 33
00122a 93e0 0a7e 	STS  _millis_counter,R30
00122c 93f0 0a7f 	STS  _millis_counter+1,R31
00122e 9360 0a80 	STS  _millis_counter+2,R22
001230 9370 0a81 	STS  _millis_counter+3,R23
                 ; 0000 0082 
                 ; 0000 0083 }
001232 91e9      	LD   R30,Y+
001233 bfef      	OUT  SREG,R30
001234 91f9      	LD   R31,Y+
001235 91e9      	LD   R30,Y+
001236 9179      	LD   R23,Y+
001237 9169      	LD   R22,Y+
001238 9518      	RETI
                 ; .FEND
                 ;
                 ;////////////////////////////////////////////////////////////////////////////////////////////////////////////
                 ;
                 ;
                 ;void draw_bitmap(uint8_t x, uint8_t y, __flash unsigned char* bmp, uint8_t width, uint8_t height)
                 ; 0000 0089 {
                 _draw_bitmap:
                 ; .FSTART _draw_bitmap
                 ; 0000 008A     uint16_t byte_index;
                 ; 0000 008B     uint8_t page;
                 ; 0000 008C     uint8_t col;
                 ; 0000 008D     uint8_t bit_pos;
                 ; 0000 008E     uint8_t data;
                 ; 0000 008F     uint8_t pages;
                 ; 0000 0090 
                 ; 0000 0091     byte_index = 0;
001239 93aa      	ST   -Y,R26
00123a 9721      	SBIW R28,1
00123b 940e 21da 	CALL SUBOPT_0x1
                 ;	x -> Y+12
                 ;	y -> Y+11
                 ;	*bmp -> Y+9
                 ;	width -> Y+8
                 ;	height -> Y+7
                 ;	byte_index -> R16,R17
                 ;	page -> R19
                 ;	col -> R18
                 ;	bit_pos -> R21
                 ;	data -> R20
                 ;	pages -> Y+6
                 ; 0000 0092     pages = height / 8;
00123d 81af      	LDD  R26,Y+7
00123e e0b0      	LDI  R27,0
00123f e0e8      	LDI  R30,LOW(8)
001240 e0f0      	LDI  R31,HIGH(8)
001241 940e 2428 	CALL __DIVW21
001243 83ee      	STD  Y+6,R30
                 ; 0000 0093 
                 ; 0000 0094     for (page = 0; page < pages; page++) {
001244 e030      	LDI  R19,LOW(0)
                 _0xB:
001245 81ee      	LDD  R30,Y+6
001246 173e      	CP   R19,R30
001247 f550      	BRSH _0xC
                 ; 0000 0095         for (col = 0; col < width; col++) {
001248 e020      	LDI  R18,LOW(0)
                 _0xE:
001249 85e8      	LDD  R30,Y+8
00124a 172e      	CP   R18,R30
00124b f520      	BRSH _0xF
                 ; 0000 0096             data = read_flash_byte(&bmp[byte_index++]);
00124c 01f8      	MOVW R30,R16
                +
00124d 5f0f     +SUBI R16 , LOW ( - 1 )
00124e 4f1f     +SBCI R17 , HIGH ( - 1 )
                 	__ADDWRN 16,17,1
00124f 85a9      	LDD  R26,Y+9
001250 85ba      	LDD  R27,Y+9+1
001251 0fea      	ADD  R30,R26
001252 1ffb      	ADC  R31,R27
001253 9144      	LPM  R20,Z
                 ; 0000 0097             for (bit_pos = 0; bit_pos < 8; bit_pos++) {
001254 e050      	LDI  R21,LOW(0)
                 _0x11:
001255 3058      	CPI  R21,8
001256 f4b8      	BRSH _0x12
                 ; 0000 0098                 if (data & (1 << bit_pos)) {
001257 2fe5      	MOV  R30,R21
001258 940e 21df 	CALL SUBOPT_0x2
00125a 2fa4      	MOV  R26,R20
00125b 940e 21e4 	CALL SUBOPT_0x3
00125d f071      	BREQ _0x13
                 ; 0000 0099                     glcd_pixel(x + col, y + (page * 8) + bit_pos, 1);
00125e 2fe2      	MOV  R30,R18
00125f 85ac      	LDD  R26,Y+12
001260 0fea      	ADD  R30,R26
001261 93ea      	ST   -Y,R30
001262 2fe3      	MOV  R30,R19
001263 0fee      	LSL  R30
001264 0fee      	LSL  R30
001265 0fee      	LSL  R30
001266 85ac      	LDD  R26,Y+12
001267 0fea      	ADD  R30,R26
001268 0fe5      	ADD  R30,R21
001269 2fae      	MOV  R26,R30
00126a 940e 1d4e 	CALL _glcd_setpixel
                 ; 0000 009A                 }
                 ; 0000 009B             }
                 _0x13:
00126c 5f5f      	SUBI R21,-1
00126d cfe7      	RJMP _0x11
                 _0x12:
                 ; 0000 009C         }
00126e 5f2f      	SUBI R18,-1
00126f cfd9      	RJMP _0xE
                 _0xF:
                 ; 0000 009D     }
001270 5f3f      	SUBI R19,-1
001271 cfd3      	RJMP _0xB
                 _0xC:
                 ; 0000 009E }
001272 940e 247f 	CALL __LOADLOCR6
001274 962d      	ADIW R28,13
001275 9508      	RET
                 ; .FEND
                 ;
                 ;
                 ;
                 ;unsigned long millis(void)
                 ; 0000 00A3 {
                 _millis:
                 ; .FSTART _millis
                 ; 0000 00A4     unsigned long ms;
                 ; 0000 00A5     #asm("cli")
001276 9724      	SBIW R28,4
                 ;	ms -> Y+0
001277 94f8      	cli
                 ; 0000 00A6     ms = millis_counter;
001278 940e 21d1 	CALL SUBOPT_0x0
00127a 940e 2448 	CALL __PUTD1S0
                 ; 0000 00A7     #asm("sei")
00127c 9478      	sei
                 ; 0000 00A8     return ms;
00127d 940e 2443 	CALL __GETD1S0
00127f 9624      	ADIW R28,4
001280 9508      	RET
                 ; 0000 00A9 }
                 ; .FEND
                 ;
                 ;
                 ;void activate_motor(int product_id)
                 ; 0000 00AD {
                 _activate_motor:
                 ; .FSTART _activate_motor
                 ; 0000 00AE     unsigned char motor_pin;
                 ; 0000 00AF     char motor_msg[20];
                 ; 0000 00B0     int timeout = 1000;
                 ; 0000 00B1 
                 ; 0000 00B2     switch (product_id)
001281 93ba      	ST   -Y,R27
001282 93aa      	ST   -Y,R26
001283 9764      	SBIW R28,20
001284 940e 247a 	CALL __SAVELOCR4
                 ;	product_id -> Y+24
                 ;	motor_pin -> R17
                 ;	motor_msg -> Y+4
                 ;	timeout -> R18,R19
                +
001286 ee28     +LDI R18 , LOW ( 1000 )
001287 e033     +LDI R19 , HIGH ( 1000 )
                 	__GETWRN 18,19,1000
001288 8de8      	LDD  R30,Y+24
001289 8df9      	LDD  R31,Y+24+1
                 ; 0000 00B3     {
                 ; 0000 00B4         case 1: motor_pin = MOTOR_PIN_1; break;
00128a 30e1      	CPI  R30,LOW(0x1)
00128b e0a0      	LDI  R26,HIGH(0x1)
00128c 07fa      	CPC  R31,R26
00128d f411      	BRNE _0x17
00128e e012      	LDI  R17,LOW(2)
00128f c00d      	RJMP _0x16
                 ; 0000 00B5         case 2: motor_pin = MOTOR_PIN_2; break;
                 _0x17:
001290 30e2      	CPI  R30,LOW(0x2)
001291 e0a0      	LDI  R26,HIGH(0x2)
001292 07fa      	CPC  R31,R26
001293 f411      	BRNE _0x18
001294 e013      	LDI  R17,LOW(3)
001295 c007      	RJMP _0x16
                 ; 0000 00B6         case 3: motor_pin = MOTOR_PIN_3; break;
                 _0x18:
001296 30e3      	CPI  R30,LOW(0x3)
001297 e0a0      	LDI  R26,HIGH(0x3)
001298 07fa      	CPC  R31,R26
001299 f411      	BRNE _0x1A
00129a e014      	LDI  R17,LOW(4)
00129b c001      	RJMP _0x16
                 ; 0000 00B7         default: return;
                 _0x1A:
00129c c03b      	RJMP _0x2120017
                 ; 0000 00B8     }
                 _0x16:
                 ; 0000 00B9 
                 ; 0000 00BA     sprintf(motor_msg, "MOTOR %d ON!", product_id);
00129d 01fe      	MOVW R30,R28
00129e 9634      	ADIW R30,4
00129f 93fa      	ST   -Y,R31
0012a0 93ea      	ST   -Y,R30
                +
0012a1 e9ee     +LDI R30 , LOW ( 2 * _0x0 + ( 0 ) )
0012a2 e1fc     +LDI R31 , HIGH ( 2 * _0x0 + ( 0 ) )
                 	__POINTW1FN _0x0,0
0012a3 93fa      	ST   -Y,R31
0012a4 93ea      	ST   -Y,R30
0012a5 8dec      	LDD  R30,Y+28
0012a6 8dfd      	LDD  R31,Y+28+1
0012a7 940e 21e9 	CALL SUBOPT_0x4
0012a9 940e 21ee 	CALL SUBOPT_0x5
                 ; 0000 00BB     glcd_clear();
0012ab 940e 1ac1 	CALL _glcd_clear
                 ; 0000 00BC     glcd_outtextxy(10, 20, motor_msg);
0012ad e0ea      	LDI  R30,LOW(10)
0012ae 93ea      	ST   -Y,R30
0012af e1e4      	LDI  R30,LOW(20)
0012b0 93ea      	ST   -Y,R30
0012b1 01de      	MOVW R26,R28
0012b2 9616      	ADIW R26,6
0012b3 940e 1e3d 	CALL _glcd_outtextxy
                 ; 0000 00BD     MOTOR_PORT |= (1 << motor_pin);
0012b5 b013      	IN   R1,3
0012b6 2fe1      	MOV  R30,R17
0012b7 e0a1      	LDI  R26,LOW(1)
0012b8 940e 23e9 	CALL __LSLB12
0012ba 29e1      	OR   R30,R1
0012bb b9e3      	OUT  0x3,R30
                 ; 0000 00BE 
                 ; 0000 00BF     while (!(PIND & (1 << PIND1)) && timeout > 0)
                 _0x1B:
0012bc 9981      	SBIC 0x10,1
0012bd c004      	RJMP _0x1E
0012be 2400      	CLR  R0
0012bf 1602      	CP   R0,R18
0012c0 0603      	CPC  R0,R19
0012c1 f00c      	BRLT _0x1F
                 _0x1E:
0012c2 c007      	RJMP _0x1D
                 _0x1F:
                 ; 0000 00C0     {
                 ; 0000 00C1         delay_ms(1);
0012c3 e0a1      	LDI  R26,LOW(1)
0012c4 e0b0      	LDI  R27,0
0012c5 940e 23d2 	CALL _delay_ms
                 ; 0000 00C2         timeout--;
                +
0012c7 5021     +SUBI R18 , LOW ( 1 )
0012c8 4030     +SBCI R19 , HIGH ( 1 )
                 	__SUBWRN 18,19,1
                 ; 0000 00C3     }
0012c9 cff2      	RJMP _0x1B
                 _0x1D:
                 ; 0000 00C4 
                 ; 0000 00C5     MOTOR_PORT &= ~(1 << motor_pin);
0012ca b013      	IN   R1,3
0012cb 2fe1      	MOV  R30,R17
0012cc e0a1      	LDI  R26,LOW(1)
0012cd 940e 21f3 	CALL SUBOPT_0x6
0012cf b9e3      	OUT  0x3,R30
                 ; 0000 00C6 //    glcd_clear();
                 ; 0000 00C7 //    glcd_outtextxy(10, 20, motor_msg);
                 ; 0000 00C8 
                 ; 0000 00C9     glcd_clear();
0012d0 940e 21f8 	CALL SUBOPT_0x7
                 ; 0000 00CA     draw_bitmap(0, 0, mahsol_ra_bardarid, 128, 64);
0012d2 940e 21fe 	CALL SUBOPT_0x8
0012d4 e4a0      	LDI  R26,LOW(64)
0012d5 df63      	RCALL _draw_bitmap
                 ; 0000 00CB     delay_ms(500);
0012d6 940e 2205 	CALL SUBOPT_0x9
                 ; 0000 00CC }
                 _0x2120017:
0012d8 940e 2481 	CALL __LOADLOCR4
0012da 966a      	ADIW R28,26
0012db 9508      	RET
                 ; .FEND
                 ;
                 ;
                 ;///////////////////////////////////////////////////////////////////////////////
                 ;unsigned char send_data(const char* base_url, const char* phone_number, int product_id, int device_id) {
                 ; 0000 00D0 unsigned char send_data(const char* base_url, const char* phone_number, int product_id, int device_id) {
                 _send_data:
                 ; .FSTART _send_data
                 ; 0000 00D1     // C??C? ?EU???C (C89)
                 ; 0000 00D2     char cmd[100];
                 ; 0000 00D3     char full_url[255];
                 ; 0000 00D4     char *action_ptr;
                 ; 0000 00D5     int method = 0, status_code = 0, data_len = 0;
                 ; 0000 00D6 
                 ; 0000 00D7     // ??C?O ??C? ??? GLCD
                 ; 0000 00D8 //    glcd_clear();
                 ; 0000 00D9 //    draw_bitmap(0, 0, lotfan_montazer_bemanid, 128, 64);
                 ; 0000 00DA 
                 ; 0000 00DB     uart_buffer_reset();
0012dc 940e 2209 	CALL SUBOPT_0xA
                 ;	*base_url -> Y+369
                 ;	*phone_number -> Y+367
                 ;	product_id -> Y+365
                 ;	device_id -> Y+363
                 ;	cmd -> Y+263
                 ;	full_url -> Y+8
                 ;	*action_ptr -> R16,R17
                 ;	method -> R18,R19
                 ;	status_code -> R20,R21
                 ;	data_len -> Y+6
0012de 940e 15cd 	CALL _uart_buffer_reset
                 ; 0000 00DC     send_at_command("AT+HTTPTERM");
                +
0012e0 e0a0     +LDI R26 , LOW ( _0x20 + ( 0 ) )
0012e1 e0b5     +LDI R27 , HIGH ( _0x20 + ( 0 ) )
                 	__POINTW2MN _0x20,0
0012e2 940e 2218 	CALL SUBOPT_0xB
                 ; 0000 00DD     delay_ms(100);
                 ; 0000 00DE 
                 ; 0000 00DF     // ---  HTTP ---
                 ; 0000 00E0     uart_buffer_reset();
                 ; 0000 00E1     send_at_command("AT+HTTPINIT");
                +
0012e4 e0ac     +LDI R26 , LOW ( _0x20 + ( 12 ) )
0012e5 e0b5     +LDI R27 , HIGH ( _0x20 + ( 12 ) )
                 	__POINTW2MN _0x20,12
0012e6 940e 2218 	CALL SUBOPT_0xB
                 ; 0000 00E2     delay_ms(100);
                 ; 0000 00E3 
                 ; 0000 00E4     // ---   GPRS ---
                 ; 0000 00E5     uart_buffer_reset();
                 ; 0000 00E6     send_at_command("AT+HTTPPARA=\"CID\",1");
                +
0012e8 e1a8     +LDI R26 , LOW ( _0x20 + ( 24 ) )
0012e9 e0b5     +LDI R27 , HIGH ( _0x20 + ( 24 ) )
                 	__POINTW2MN _0x20,24
0012ea 940e 2218 	CALL SUBOPT_0xB
                 ; 0000 00E7     delay_ms(100);
                 ; 0000 00E8 
                 ; 0000 00E9     // ---  URL ---
                 ; 0000 00EA     uart_buffer_reset();
                 ; 0000 00EB     snprintf(full_url, sizeof(full_url),
                 ; 0000 00EC              "%s?phone_number=%s&device_id=%d&product_id=%d",
                 ; 0000 00ED              base_url, phone_number, device_id, product_id);
0012ec 940e 2220 	CALL SUBOPT_0xC
0012ee efef      	LDI  R30,LOW(255)
0012ef e0f0      	LDI  R31,HIGH(255)
0012f0 93fa      	ST   -Y,R31
0012f1 93ea      	ST   -Y,R30
                +
0012f2 ede7     +LDI R30 , LOW ( 2 * _0x0 + ( 57 ) )
0012f3 e1fc     +LDI R31 , HIGH ( 2 * _0x0 + ( 57 ) )
                 	__POINTW1FN _0x0,57
0012f4 93fa      	ST   -Y,R31
0012f5 93ea      	ST   -Y,R30
                +
0012f6 01fe     +MOVW R30 , R28
0012f7 58e9     +SUBI R30 , LOW ( - 375 )
0012f8 4ffe     +SBCI R31 , HIGH ( - 375 )
0012f9 9001     +LD R0 , Z +
0012fa 81f0     +LD R31 , Z
0012fb 2de0     +MOV R30 , R0
                 	__GETW1SX 375
0012fc 940e 2225 	CALL SUBOPT_0xD
0012fe 940e 2225 	CALL SUBOPT_0xD
001300 940e 21e9 	CALL SUBOPT_0x4
                +
001302 01fe     +MOVW R30 , R28
001303 58e1     +SUBI R30 , LOW ( - 383 )
001304 4ffe     +SBCI R31 , HIGH ( - 383 )
001305 9001     +LD R0 , Z +
001306 81f0     +LD R31 , Z
001307 2de0     +MOV R30 , R0
                 	__GETW1SX 383
001308 940e 21e9 	CALL SUBOPT_0x4
00130a e180      	LDI  R24,16
00130b 940e 1ff8 	CALL _snprintf
00130d 9666      	ADIW R28,22
                 ; 0000 00EE 
                 ; 0000 00EF     sprintf(cmd, "AT+HTTPPARA=\"URL\",\"%s\"", full_url);
00130e 940e 2230 	CALL SUBOPT_0xE
                 ; 0000 00F0     send_at_command(cmd);
001310 01de      	MOVW R26,R28
001311 5fa9      	SUBI R26,LOW(-(263))
001312 4fbe      	SBCI R27,HIGH(-(263))
001313 940e 2218 	CALL SUBOPT_0xB
                 ; 0000 00F1     delay_ms(100);
                 ; 0000 00F2 
                 ; 0000 00F3 //    glcd_clear();
                 ; 0000 00F4 //    glcd_outtextxy(0,10,full_url);
                 ; 0000 00F5 //    delay_ms(500);
                 ; 0000 00F6 
                 ; 0000 00F7     // ---   GET ---
                 ; 0000 00F8     uart_buffer_reset();
                 ; 0000 00F9     send_at_command("AT+HTTPACTION=1"); // 0=GET
                +
001315 e2ac     +LDI R26 , LOW ( _0x20 + ( 44 ) )
001316 e0b5     +LDI R27 , HIGH ( _0x20 + ( 44 ) )
                 	__POINTW2MN _0x20,44
001317 940e 2218 	CALL SUBOPT_0xB
                 ; 0000 00FA     delay_ms(100); //    HTTP
                 ; 0000 00FB 
                 ; 0000 00FC     // ---   ---
                 ; 0000 00FD     uart_buffer_reset();
                 ; 0000 00FE     if (read_until_keyword_keep_all(buffer, BUFFER_SIZE, 5000, "HTTPACTION")) {
001319 940e 2240 	CALL SUBOPT_0xF
00131b 940e 2245 	CALL SUBOPT_0x10
                +
00131d e3ac     +LDI R26 , LOW ( _0x20 + ( 60 ) )
00131e e0b5     +LDI R27 , HIGH ( _0x20 + ( 60 ) )
                 	__POINTW2MN _0x20,60
00131f d2b7      	RCALL _read_until_keyword_keep_all
001320 30e0      	CPI  R30,0
001321 f031      	BREQ _0x21
                 ; 0000 00FF         //  : +HTTPACTION:0,200,1256
                 ; 0000 0100 //        glcd_clear();
                 ; 0000 0101 //        glcd_outtextxy(0,10,value);
                 ; 0000 0102 //        delay_ms(500);
                 ; 0000 0103         if (extract_field_after_keyword(buffer, "+HTTPACTION:", 1, value, sizeof(value))) {
001322 940e 2240 	CALL SUBOPT_0xF
                +
001324 e4e7     +LDI R30 , LOW ( _0x20 + ( 71 ) )
001325 e0f5     +LDI R31 , HIGH ( _0x20 + ( 71 ) )
                 	__POINTW1MN _0x20,71
001326 940e 2250 	CALL SUBOPT_0x11
                 ; 0000 0104 //            glcd_clear();
                 ; 0000 0105 //            glcd_outtextxy(0,10,value);
                 ; 0000 0106 //            delay_ms(500);
                 ; 0000 0107         }
                 ; 0000 0108     }
                 ; 0000 0109 
                 ; 0000 010A //
                 ; 0000 010B //    // 8) Terminate HTTP service
                 ; 0000 010C     uart_buffer_reset();
                 _0x21:
001328 d2a4      	RCALL _uart_buffer_reset
                 ; 0000 010D     send_at_command("AT+HTTPTERM");
                +
001329 e5a4     +LDI R26 , LOW ( _0x20 + ( 84 ) )
00132a e0b5     +LDI R27 , HIGH ( _0x20 + ( 84 ) )
                 	__POINTW2MN _0x20,84
00132b 940e 225e 	CALL SUBOPT_0x12
                 ; 0000 010E     delay_ms(100);
                 ; 0000 010F 
                 ; 0000 0110     // 9) ?E???
                 ; 0000 0111     return (atoi(value) == 200) ? 1 : 0;
00132d f411      	BRNE _0x23
00132e e0e1      	LDI  R30,LOW(1)
00132f c001      	RJMP _0x24
                 _0x23:
001330 e0e0      	LDI  R30,LOW(0)
                 _0x24:
001331 940e 247f 	CALL __LOADLOCR6
001333 96ef      	ADIW R28,63
001334 96e4      	ADIW R28,52
001335 5fdf      	SUBI R29,-1
001336 9508      	RET
                 ; 0000 0112 }
                 ; .FEND
                 
                 	.DSEG
                 _0x20:
000500           	.BYTE 0x60
                 ;/////////////////////////////////////////////////////////////////////////////////
                 ;
                 ;
                 ;
                 ;unsigned char get_data(const char* base_url, const char* phone_number) {
                 ; 0000 0117 unsigned char get_data(const char* base_url, const char* phone_number) {
                 
                 	.CSEG
                 _get_data:
                 ; .FSTART _get_data
                 ; 0000 0118     // C??C? ?EU???C (C89)
                 ; 0000 0119     char cmd[100];
                 ; 0000 011A     char full_url[255];
                 ; 0000 011B     char *action_ptr;
                 ; 0000 011C     int method = 0, status_code = 0, data_len = 0;
                 ; 0000 011D 
                 ; 0000 011E     // ??C?O ??C? ??? GLCD
                 ; 0000 011F     glcd_clear();
001337 940e 2209 	CALL SUBOPT_0xA
                 ;	*base_url -> Y+365
                 ;	*phone_number -> Y+363
                 ;	cmd -> Y+263
                 ;	full_url -> Y+8
                 ;	*action_ptr -> R16,R17
                 ;	method -> R18,R19
                 ;	status_code -> R20,R21
                 ;	data_len -> Y+6
001339 940e 21f8 	CALL SUBOPT_0x7
                 ; 0000 0120     draw_bitmap(0, 0, lotfan_montazer_bemanid, 128, 64);
00133b e7e0      	LDI  R30,LOW(_lotfan_montazer_bemanid*2)
00133c e0fe      	LDI  R31,HIGH(_lotfan_montazer_bemanid*2)
00133d 940e 226c 	CALL SUBOPT_0x13
                 ; 0000 0121 
                 ; 0000 0122     uart_buffer_reset();
00133f d28d      	RCALL _uart_buffer_reset
                 ; 0000 0123     send_at_command("AT+HTTPTERM");
                +
001340 e6a0     +LDI R26 , LOW ( _0x26 + ( 0 ) )
001341 e0b5     +LDI R27 , HIGH ( _0x26 + ( 0 ) )
                 	__POINTW2MN _0x26,0
001342 940e 2218 	CALL SUBOPT_0xB
                 ; 0000 0124     delay_ms(100);
                 ; 0000 0125 
                 ; 0000 0126     // ---  HTTP ---
                 ; 0000 0127     uart_buffer_reset();
                 ; 0000 0128     send_at_command("AT+HTTPINIT");
                +
001344 e6ac     +LDI R26 , LOW ( _0x26 + ( 12 ) )
001345 e0b5     +LDI R27 , HIGH ( _0x26 + ( 12 ) )
                 	__POINTW2MN _0x26,12
001346 940e 2218 	CALL SUBOPT_0xB
                 ; 0000 0129     delay_ms(100);
                 ; 0000 012A 
                 ; 0000 012B     // ---   GPRS ---
                 ; 0000 012C     uart_buffer_reset();
                 ; 0000 012D     send_at_command("AT+HTTPPARA=\"CID\",1");
                +
001348 e7a8     +LDI R26 , LOW ( _0x26 + ( 24 ) )
001349 e0b5     +LDI R27 , HIGH ( _0x26 + ( 24 ) )
                 	__POINTW2MN _0x26,24
00134a 940e 2218 	CALL SUBOPT_0xB
                 ; 0000 012E     delay_ms(100);
                 ; 0000 012F 
                 ; 0000 0130     // ---  URL ---
                 ; 0000 0131     uart_buffer_reset();
                 ; 0000 0132     sprintf(full_url, "%s?phone_number=%s", base_url, phone_number);
00134c 940e 2220 	CALL SUBOPT_0xC
                +
00134e e4e4     +LDI R30 , LOW ( 2 * _0x0 + ( 166 ) )
00134f e1fd     +LDI R31 , HIGH ( 2 * _0x0 + ( 166 ) )
                 	__POINTW1FN _0x0,166
001350 93fa      	ST   -Y,R31
001351 93ea      	ST   -Y,R30
                +
001352 01fe     +MOVW R30 , R28
001353 58ef     +SUBI R30 , LOW ( - 369 )
001354 4ffe     +SBCI R31 , HIGH ( - 369 )
001355 9001     +LD R0 , Z +
001356 81f0     +LD R31 , Z
001357 2de0     +MOV R30 , R0
                 	__GETW1SX 369
001358 940e 2273 	CALL SUBOPT_0x14
00135a 940e 2278 	CALL SUBOPT_0x15
00135c e088      	LDI  R24,8
00135d 940e 1fdd 	CALL _sprintf
00135f 962c      	ADIW R28,12
                 ; 0000 0133     snprintf(full_url, sizeof(full_url),
                 ; 0000 0134              "%s?phone_number=%s",
                 ; 0000 0135              base_url, phone_number);
001360 940e 2220 	CALL SUBOPT_0xC
001362 efef      	LDI  R30,LOW(255)
001363 e0f0      	LDI  R31,HIGH(255)
001364 93fa      	ST   -Y,R31
001365 93ea      	ST   -Y,R30
                +
001366 e4e4     +LDI R30 , LOW ( 2 * _0x0 + ( 166 ) )
001367 e1fd     +LDI R31 , HIGH ( 2 * _0x0 + ( 166 ) )
                 	__POINTW1FN _0x0,166
001368 93fa      	ST   -Y,R31
001369 93ea      	ST   -Y,R30
00136a 940e 2278 	CALL SUBOPT_0x15
                +
00136c 01fe     +MOVW R30 , R28
00136d 58eb     +SUBI R30 , LOW ( - 373 )
00136e 4ffe     +SBCI R31 , HIGH ( - 373 )
00136f 9001     +LD R0 , Z +
001370 81f0     +LD R31 , Z
001371 2de0     +MOV R30 , R0
                 	__GETW1SX 373
001372 940e 2273 	CALL SUBOPT_0x14
001374 e088      	LDI  R24,8
001375 940e 1ff8 	CALL _snprintf
001377 962e      	ADIW R28,14
                 ; 0000 0136     sprintf(cmd, "AT+HTTPPARA=\"URL\",\"%s\"", full_url);
001378 940e 2230 	CALL SUBOPT_0xE
                 ; 0000 0137     send_at_command(cmd);
00137a 01de      	MOVW R26,R28
00137b 5fa9      	SUBI R26,LOW(-(263))
00137c 4fbe      	SBCI R27,HIGH(-(263))
00137d 940e 2218 	CALL SUBOPT_0xB
                 ; 0000 0138     delay_ms(100);
                 ; 0000 0139 
                 ; 0000 013A 
                 ; 0000 013B //    glcd_clear();
                 ; 0000 013C //    glcd_outtextxy(0,10,full_url);
                 ; 0000 013D //    delay_ms(500);
                 ; 0000 013E 
                 ; 0000 013F 
                 ; 0000 0140     // ---   GET ---
                 ; 0000 0141     uart_buffer_reset();
                 ; 0000 0142     send_at_command("AT+HTTPACTION=0"); // 0=GET
                +
00137f e8ac     +LDI R26 , LOW ( _0x26 + ( 44 ) )
001380 e0b5     +LDI R27 , HIGH ( _0x26 + ( 44 ) )
                 	__POINTW2MN _0x26,44
001381 940e 2218 	CALL SUBOPT_0xB
                 ; 0000 0143     delay_ms(100); //    HTTP
                 ; 0000 0144 
                 ; 0000 0145     // ---   ---
                 ; 0000 0146     uart_buffer_reset();
                 ; 0000 0147     if (read_until_keyword_keep_all(buffer, BUFFER_SIZE, 5000, "HTTPACTION")) {
001383 940e 2240 	CALL SUBOPT_0xF
001385 940e 2245 	CALL SUBOPT_0x10
                +
001387 e9ac     +LDI R26 , LOW ( _0x26 + ( 60 ) )
001388 e0b5     +LDI R27 , HIGH ( _0x26 + ( 60 ) )
                 	__POINTW2MN _0x26,60
001389 d24d      	RCALL _read_until_keyword_keep_all
00138a 30e0      	CPI  R30,0
00138b f031      	BREQ _0x27
                 ; 0000 0148         //  : +HTTPACTION:0,200,1256
                 ; 0000 0149 //        glcd_clear();
                 ; 0000 014A //        glcd_outtextxy(0,10,value);
                 ; 0000 014B //        delay_ms(500);
                 ; 0000 014C         if (extract_field_after_keyword(buffer, "+HTTPACTION:", 1, value, sizeof(value))) {
00138c 940e 2240 	CALL SUBOPT_0xF
                +
00138e eae7     +LDI R30 , LOW ( _0x26 + ( 71 ) )
00138f e0f5     +LDI R31 , HIGH ( _0x26 + ( 71 ) )
                 	__POINTW1MN _0x26,71
001390 940e 2250 	CALL SUBOPT_0x11
                 ; 0000 014D //            glcd_clear();
                 ; 0000 014E //            glcd_outtextxy(0,10,value);
                 ; 0000 014F //            delay_ms(500);
                 ; 0000 0150         }
                 ; 0000 0151     }
                 ; 0000 0152 
                 ; 0000 0153 //
                 ; 0000 0154 //    // 8) Terminate HTTP service
                 ; 0000 0155     uart_buffer_reset();
                 _0x27:
001392 d23a      	RCALL _uart_buffer_reset
                 ; 0000 0156     send_at_command("AT+HTTPTERM");
                +
001393 eba4     +LDI R26 , LOW ( _0x26 + ( 84 ) )
001394 e0b5     +LDI R27 , HIGH ( _0x26 + ( 84 ) )
                 	__POINTW2MN _0x26,84
001395 940e 225e 	CALL SUBOPT_0x12
                 ; 0000 0157     delay_ms(100);
                 ; 0000 0158 
                 ; 0000 0159     // 9) ?E???
                 ; 0000 015A     return (atoi(value) == 200) ? 1 : 0;
001397 f411      	BRNE _0x29
001398 e0e1      	LDI  R30,LOW(1)
001399 c001      	RJMP _0x2A
                 _0x29:
00139a e0e0      	LDI  R30,LOW(0)
                 _0x2A:
00139b 940e 247f 	CALL __LOADLOCR6
00139d 96ef      	ADIW R28,63
00139e 96e0      	ADIW R28,48
00139f 5fdf      	SUBI R29,-1
0013a0 9508      	RET
                 ; 0000 015B }
                 ; .FEND
                 
                 	.DSEG
                 _0x26:
000560           	.BYTE 0x60
                 ;
                 ;
                 ;void handle_sms(void)
                 ; 0000 015F {
                 
                 	.CSEG
                 _handle_sms:
                 ; .FSTART _handle_sms
                 ; 0000 0160     char tmp[2];
                 ; 0000 0161     const char* server_url_post = "http://185.8.173.17:8000/home/post/";
                 ; 0000 0162     int product_id = 0;
                 ; 0000 0163     int timeout_counter = 0;
                 ; 0000 0164     char key_pressed;
                 ; 0000 0165     char *tok, phone[32];
                 ; 0000 0166     tok = strtok(header_buffer, "\"");      // ?IC ??I? +CMT:
0013a1 97a5      	SBIW R28,37
0013a2 940e 2478 	CALL __SAVELOCR6
                 ;	tmp -> Y+41
                 ;	*server_url_post -> R16,R17
                 ;	product_id -> R18,R19
                 ;	timeout_counter -> R20,R21
                 ;	key_pressed -> Y+40
                 ;	*tok -> Y+38
                 ;	phone -> Y+6
                +
0013a4 ec00     +LDI R16 , LOW ( _0x2C + ( 0 ) )
0013a5 e015     +LDI R17 , HIGH ( _0x2C + ( 0 ) )
                 	__POINTWRMN 16,17,_0x2C,0
                +
0013a6 e020     +LDI R18 , LOW ( 0 )
0013a7 e030     +LDI R19 , HIGH ( 0 )
                 	__GETWRN 18,19,0
                +
0013a8 e040     +LDI R20 , LOW ( 0 )
0013a9 e050     +LDI R21 , HIGH ( 0 )
                 	__GETWRN 20,21,0
0013aa e8e6      	LDI  R30,LOW(_header_buffer)
0013ab e0fa      	LDI  R31,HIGH(_header_buffer)
0013ac 940e 227f 	CALL SUBOPT_0x16
                 ; 0000 0167     tok = strtok(NULL, "\"");               // C???EC? O?C?? ICI? ??E?O?
0013ae e0e0      	LDI  R30,LOW(0)
0013af e0f0      	LDI  R31,HIGH(0)
0013b0 940e 227f 	CALL SUBOPT_0x16
                 ; 0000 0168     if (tok) strcpy(phone, tok);
0013b2 a1ee      	LDD  R30,Y+38
0013b3 a1ff      	LDD  R31,Y+38+1
0013b4 9730      	SBIW R30,0
0013b5 f039      	BREQ _0x2D
0013b6 01fe      	MOVW R30,R28
0013b7 9636      	ADIW R30,6
0013b8 93fa      	ST   -Y,R31
0013b9 93ea      	ST   -Y,R30
0013ba a5a8      	LDD  R26,Y+40
0013bb a5b9      	LDD  R27,Y+40+1
0013bc c006      	RJMP _0x5C
                 ; 0000 0169     else    strcpy(phone, "unknown");
                 _0x2D:
0013bd 01fe      	MOVW R30,R28
0013be 9636      	ADIW R30,6
0013bf 93fa      	ST   -Y,R31
0013c0 93ea      	ST   -Y,R30
                +
0013c1 eea4     +LDI R26 , LOW ( _0x2C + ( 36 ) )
0013c2 e0b5     +LDI R27 , HIGH ( _0x2C + ( 36 ) )
                 	__POINTW2MN _0x2C,36
                 _0x5C:
0013c3 940e 2068 	CALL _strcpy
                 ; 0000 016A 
                 ; 0000 016B     glcd_clear();
0013c5 940e 21f8 	CALL SUBOPT_0x7
                 ; 0000 016C     glcd_outtextxy(0,0,"SMS from:");
                +
0013c7 eeac     +LDI R26 , LOW ( _0x2C + ( 44 ) )
0013c8 e0b5     +LDI R27 , HIGH ( _0x2C + ( 44 ) )
                 	__POINTW2MN _0x2C,44
0013c9 940e 1e3d 	CALL _glcd_outtextxy
                 ; 0000 016D     glcd_outtextxy(0,10,phone);
0013cb 940e 2288 	CALL SUBOPT_0x17
0013cd 01de      	MOVW R26,R28
0013ce 9618      	ADIW R26,8
0013cf 940e 1e3d 	CALL _glcd_outtextxy
                 ; 0000 016E     glcd_outtextxy(0,20,content_buffer);
0013d1 940e 228d 	CALL SUBOPT_0x18
0013d3 eeaa      	LDI  R26,LOW(_content_buffer)
0013d4 e0ba      	LDI  R27,HIGH(_content_buffer)
0013d5 940e 1e3d 	CALL _glcd_outtextxy
                 ; 0000 016F     delay_ms(200);
0013d7 eca8      	LDI  R26,LOW(200)
0013d8 e0b0      	LDI  R27,0
0013d9 940e 23d2 	CALL _delay_ms
                 ; 0000 0170 
                 ; 0000 0171 //////////////////////////////////////////////////////////////////////////////////////////////
                 ; 0000 0172 
                 ; 0000 0173     if (strcmp(content_buffer, "1") == 0 || strcmp(content_buffer, "2") == 0 || strcmp(content_buffer, "3") == 0)
0013db 940e 2292 	CALL SUBOPT_0x19
                +
0013dd efa6     +LDI R26 , LOW ( _0x2C + ( 54 ) )
0013de e0b5     +LDI R27 , HIGH ( _0x2C + ( 54 ) )
                 	__POINTW2MN _0x2C,54
0013df 940e 2054 	CALL _strcmp
0013e1 30e0      	CPI  R30,0
0013e2 f089      	BREQ _0x30
0013e3 940e 2292 	CALL SUBOPT_0x19
                +
0013e5 efa8     +LDI R26 , LOW ( _0x2C + ( 56 ) )
0013e6 e0b5     +LDI R27 , HIGH ( _0x2C + ( 56 ) )
                 	__POINTW2MN _0x2C,56
0013e7 940e 2054 	CALL _strcmp
0013e9 30e0      	CPI  R30,0
0013ea f049      	BREQ _0x30
0013eb 940e 2292 	CALL SUBOPT_0x19
                +
0013ed efaa     +LDI R26 , LOW ( _0x2C + ( 58 ) )
0013ee e0b5     +LDI R27 , HIGH ( _0x2C + ( 58 ) )
                 	__POINTW2MN _0x2C,58
0013ef 940e 2054 	CALL _strcmp
0013f1 30e0      	CPI  R30,0
0013f2 f009      	BREQ _0x30
0013f3 c07f      	RJMP _0x2F
                 _0x30:
                 ; 0000 0174     {
                 ; 0000 0175 //        product_id = 1;
                 ; 0000 0176 //        device_id = 1;
                 ; 0000 0177 //        send_data(server_url_post, phone, product_id, device_id);
                 ; 0000 0178 
                 ; 0000 0179         if (get_data(server_url_post, phone))
0013f4 931a      	ST   -Y,R17
0013f5 930a      	ST   -Y,R16
0013f6 01de      	MOVW R26,R28
0013f7 9618      	ADIW R26,8
0013f8 df3e      	RCALL _get_data
0013f9 30e0      	CPI  R30,0
0013fa f409      	BRNE PC+2
0013fb c06c      	RJMP _0x32
                 ; 0000 017A         {
                 ; 0000 017B             glcd_clear();
0013fc 940e 21f8 	CALL SUBOPT_0x7
                 ; 0000 017C 
                 ; 0000 017D             draw_bitmap(0, 0, adad_ra_vared_namaeid, 128, 64);
0013fe e7e0      	LDI  R30,LOW(_adad_ra_vared_namaeid*2)
0013ff e0fa      	LDI  R31,HIGH(_adad_ra_vared_namaeid*2)
001400 940e 226c 	CALL SUBOPT_0x13
                 ; 0000 017E             draw_bitmap(0, 32, square, 128, 32);
001402 e0e0      	LDI  R30,LOW(0)
001403 93ea      	ST   -Y,R30
001404 e2e0      	LDI  R30,LOW(32)
001405 93ea      	ST   -Y,R30
001406 e7e0      	LDI  R30,LOW(_square*2)
001407 e1fa      	LDI  R31,HIGH(_square*2)
001408 93fa      	ST   -Y,R31
001409 93ea      	ST   -Y,R30
00140a e8e0      	LDI  R30,LOW(128)
00140b 93ea      	ST   -Y,R30
00140c e2a0      	LDI  R26,LOW(32)
00140d de2b      	RCALL _draw_bitmap
                 ; 0000 017F             glcd_outtextxy(64, 42, content_buffer);
00140e e4e0      	LDI  R30,LOW(64)
00140f 93ea      	ST   -Y,R30
001410 e2ea      	LDI  R30,LOW(42)
001411 93ea      	ST   -Y,R30
001412 eeaa      	LDI  R26,LOW(_content_buffer)
001413 e0ba      	LDI  R27,HIGH(_content_buffer)
001414 940e 1e3d 	CALL _glcd_outtextxy
                 ; 0000 0180 
                 ; 0000 0181             key_pressed = 0;
001416 e0e0      	LDI  R30,LOW(0)
001417 a7e8      	STD  Y+40,R30
                 ; 0000 0182             for (timeout_counter = 0; timeout_counter < 200; timeout_counter++)
                +
001418 e040     +LDI R20 , LOW ( 0 )
001419 e050     +LDI R21 , HIGH ( 0 )
                 	__GETWRN 20,21,0
                 _0x34:
                +
00141a 3c48     +CPI R20 , LOW ( 200 )
00141b e0e0     +LDI R30 , HIGH ( 200 )
00141c 075e     +CPC R21 , R30
                 	__CPWRN 20,21,200
00141d f464      	BRGE _0x35
                 ; 0000 0183             {
                 ; 0000 0184                 key_pressed = get_key();
00141e 940e 16ef 	CALL _get_key
001420 a7e8      	STD  Y+40,R30
                 ; 0000 0185                 if (key_pressed != 0) break;
001421 30e0      	CPI  R30,0
001422 f439      	BRNE _0x35
                 ; 0000 0186                 delay_ms(10);
001423 e0aa      	LDI  R26,LOW(10)
001424 e0b0      	LDI  R27,0
001425 940e 23d2 	CALL _delay_ms
                 ; 0000 0187             }
                +
001427 5f4f     +SUBI R20 , LOW ( - 1 )
001428 4f5f     +SBCI R21 , HIGH ( - 1 )
                 	__ADDWRN 20,21,1
001429 cff0      	RJMP _0x34
                 _0x35:
                 ; 0000 0188 
                 ; 0000 0189             if (key_pressed == 0)
00142a a5e8      	LDD  R30,Y+40
00142b 30e0      	CPI  R30,0
00142c f469      	BRNE _0x37
                 ; 0000 018A             {
                 ; 0000 018B                 glcd_clear();
00142d 940e 1ac1 	CALL _glcd_clear
                 ; 0000 018C                 glcd_outtextxy(10, 25, "Timeout! Try again.");
00142f e0ea      	LDI  R30,LOW(10)
001430 93ea      	ST   -Y,R30
001431 e1e9      	LDI  R30,LOW(25)
001432 93ea      	ST   -Y,R30
                +
001433 efac     +LDI R26 , LOW ( _0x2C + ( 60 ) )
001434 e0b5     +LDI R27 , HIGH ( _0x2C + ( 60 ) )
                 	__POINTW2MN _0x2C,60
001435 940e 1e3d 	CALL _glcd_outtextxy
                 ; 0000 018D                 delay_ms(200);
001437 eca8      	LDI  R26,LOW(200)
001438 e0b0      	LDI  R27,0
001439 c02b      	RJMP _0x5D
                 ; 0000 018E             }
                 ; 0000 018F             else
                 _0x37:
                 ; 0000 0190             {
                 ; 0000 0191 //                glcd_clear();
                 ; 0000 0192 //                tmp[0] = content_buffer[0];
                 ; 0000 0193 //                tmp[1] = '\0';
                 ; 0000 0194 //                glcd_outtextxy(5, 25, tmp);
                 ; 0000 0195 //
                 ; 0000 0196 //                //  key_pressed
                 ; 0000 0197 //                tmp[0] = key_pressed;
                 ; 0000 0198 //                tmp[1] = '\0';
                 ; 0000 0199 //                glcd_outtextxy(5, 45, tmp);
                 ; 0000 019A //                delay_ms(1000);
                 ; 0000 019B                 //   0..9    
                 ; 0000 019C //                if (key_pressed >= 0 && key_pressed <= 9) {
                 ; 0000 019D //                    key_pressed = '0' + key_pressed;   //    '0'..'9'
                 ; 0000 019E //                }
                 ; 0000 019F                 if (key_pressed == content_buffer[0])
00143a 91e0 0aea 	LDS  R30,_content_buffer
00143c a5a8      	LDD  R26,Y+40
00143d 17ea      	CP   R30,R26
00143e f4d1      	BRNE _0x39
                 ; 0000 01A0                 {
                 ; 0000 01A1                     glcd_clear();
00143f 940e 1ac1 	CALL _glcd_clear
                 ; 0000 01A2 //                    glcd_outtextxy(5, 25, "test 3!");
                 ; 0000 01A3 //                    delay_ms(300);
                 ; 0000 01A4                     product_id = content_buffer[0] - '0';
001441 91e0 0aea 	LDS  R30,_content_buffer
001443 e0f0      	LDI  R31,0
001444 97f0      	SBIW R30,48
001445 019f      	MOVW R18,R30
                 ; 0000 01A5                     activate_motor(product_id);
001446 01d9      	MOVW R26,R18
001447 de39      	RCALL _activate_motor
                 ; 0000 01A6 //                    glcd_clear();
                 ; 0000 01A7                     draw_bitmap(0, 32, mahsol_ra_bardarid, 128, 32);
001448 e0e0      	LDI  R30,LOW(0)
001449 93ea      	ST   -Y,R30
00144a e2e0      	LDI  R30,LOW(32)
00144b 93ea      	ST   -Y,R30
00144c 940e 21fe 	CALL SUBOPT_0x8
00144e e2a0      	LDI  R26,LOW(32)
00144f dde9      	RCALL _draw_bitmap
                 ; 0000 01A8                     send_data(server_url_post, phone, product_id, device_id);
001450 931a      	ST   -Y,R17
001451 930a      	ST   -Y,R16
001452 940e 2220 	CALL SUBOPT_0xC
001454 933a      	ST   -Y,R19
001455 932a      	ST   -Y,R18
001456 01d2      	MOVW R26,R4
001457 de84      	RCALL _send_data
                 ; 0000 01A9                 }
                 ; 0000 01AA                 else
001458 c00e      	RJMP _0x3A
                 _0x39:
                 ; 0000 01AB                 {
                 ; 0000 01AC 
                 ; 0000 01AD                     glcd_clear();
001459 940e 1ac1 	CALL _glcd_clear
                 ; 0000 01AE                     glcd_outtextxy(5, 25, "test 2!");
00145b e0e5      	LDI  R30,LOW(5)
00145c 93ea      	ST   -Y,R30
00145d e1e9      	LDI  R30,LOW(25)
00145e 93ea      	ST   -Y,R30
                +
00145f e1a0     +LDI R26 , LOW ( _0x2C + ( 80 ) )
001460 e0b6     +LDI R27 , HIGH ( _0x2C + ( 80 ) )
                 	__POINTW2MN _0x2C,80
001461 940e 1e3d 	CALL _glcd_outtextxy
                 ; 0000 01AF //                    draw_bitmap(0, 0, shomare_soton_dorost_vared_nashode, 128, 32);
                 ; 0000 01B0                     delay_ms(300);
001463 e2ac      	LDI  R26,LOW(300)
001464 e0b1      	LDI  R27,HIGH(300)
                 _0x5D:
001465 940e 23d2 	CALL _delay_ms
                 ; 0000 01B1                 }
                 _0x3A:
                 ; 0000 01B2             }
                 ; 0000 01B3         }
                 ; 0000 01B4         else
001467 c00a      	RJMP _0x3B
                 _0x32:
                 ; 0000 01B5         {
                 ; 0000 01B6             glcd_clear();
001468 940e 21f8 	CALL SUBOPT_0x7
                 ; 0000 01B7             draw_bitmap(0, 0, tedad_bish_az_had, 128, 64);
00146a e7e0      	LDI  R30,LOW(_tedad_bish_az_had*2)
00146b e1f6      	LDI  R31,HIGH(_tedad_bish_az_had*2)
00146c 940e 226c 	CALL SUBOPT_0x13
                 ; 0000 01B8             delay_ms(300);
00146e e2ac      	LDI  R26,LOW(300)
00146f e0b1      	LDI  R27,HIGH(300)
001470 940e 23d2 	CALL _delay_ms
                 ; 0000 01B9         }
                 _0x3B:
                 ; 0000 01BA     }
                 ; 0000 01BB 
                 ; 0000 01BC     else
001472 c00a      	RJMP _0x3C
                 _0x2F:
                 ; 0000 01BD     {
                 ; 0000 01BE         glcd_clear();
001473 940e 21f8 	CALL SUBOPT_0x7
                 ; 0000 01BF         draw_bitmap(0, 0, shomare_dorost_payamak_nashode, 128, 64);
001475 e7e0      	LDI  R30,LOW(_shomare_dorost_payamak_nashode*2)
001476 e1f2      	LDI  R31,HIGH(_shomare_dorost_payamak_nashode*2)
001477 940e 226c 	CALL SUBOPT_0x13
                 ; 0000 01C0         delay_ms(200);
001479 eca8      	LDI  R26,LOW(200)
00147a e0b0      	LDI  R27,0
00147b 940e 23d2 	CALL _delay_ms
                 ; 0000 01C1 
                 ; 0000 01C2     }
                 _0x3C:
                 ; 0000 01C3 
                 ; 0000 01C4 ////////////////////////////////////////////////////////////////////////////////////////////
                 ; 0000 01C5     sms_received = 0;  // A?CI? E?C? ??C? E?I?
00147d 94e8      	CLT
00147e f821      	BLD  R2,1
                 ; 0000 01C6 }
00147f 940e 247f 	CALL __LOADLOCR6
001481 96ab      	ADIW R28,43
001482 9508      	RET
                 ; .FEND
                 
                 	.DSEG
                 _0x2C:
0005c0           	.BYTE 0x58
                 ;
                 ;
                 ;void process_uart_data(void)
                 ; 0000 01CA {
                 
                 	.CSEG
                 _process_uart_data:
                 ; .FSTART _process_uart_data
                 ; 0000 01CB     static uint8_t phase = 0;   // 0=I?C?I? ?I?? 1=I?C?I? ??E?C
                 ; 0000 01CC     static uint8_t h_idx = 0;
                 ; 0000 01CD     static uint8_t c_idx = 0;
                 ; 0000 01CE     char d;
                 ; 0000 01CF 
                 ; 0000 01D0     while (rx_counter0 > 0 && !sms_received) {
001483 931a      	ST   -Y,R17
                 ;	d -> R17
                 _0x3D:
001484 91a0 096b 	LDS  R26,_rx_counter0
001486 30a1      	CPI  R26,LOW(0x1)
001487 f010      	BRLO _0x40
001488 fe21      	SBRS R2,1
001489 c001      	RJMP _0x41
                 _0x40:
00148a c058      	RJMP _0x3F
                 _0x41:
                 ; 0000 01D1         d = getchar();
00148b dd72      	RCALL _getchar
00148c 2f1e      	MOV  R17,R30
                 ; 0000 01D2 
                 ; 0000 01D3         if (phase == 0) {
00148d 91e0 0bb2 	LDS  R30,_phase_S0000009000
00148f 30e0      	CPI  R30,0
001490 f571      	BRNE _0x42
                 ; 0000 01D4             // -- I?C?I? ?I? EC '\n' --
                 ; 0000 01D5             if (d == '\n') {
001491 301a      	CPI  R17,10
001492 f4d9      	BRNE _0x43
                 ; 0000 01D6                 header_buffer[h_idx] = '\0';
001493 91e0 0bb3 	LDS  R30,_h_idx_S0000009000
001495 e0f0      	LDI  R31,0
001496 57ea      	SUBI R30,LOW(-_header_buffer)
001497 4ff5      	SBCI R31,HIGH(-_header_buffer)
001498 e0a0      	LDI  R26,LOW(0)
001499 83a0      	STD  Z+0,R26
                 ; 0000 01D7                 // ??? C?? ?I? ?C??? SMS ECOI? E??? ??CU I?C?I? ??E?C
                 ; 0000 01D8                 if (strstr(header_buffer, "+CMT:") != NULL) {
00149a e8e6      	LDI  R30,LOW(_header_buffer)
00149b e0fa      	LDI  R31,HIGH(_header_buffer)
00149c 93fa      	ST   -Y,R31
00149d 93ea      	ST   -Y,R30
                +
00149e e1a8     +LDI R26 , LOW ( _0x45 + ( 0 ) )
00149f e0b6     +LDI R27 , HIGH ( _0x45 + ( 0 ) )
                 	__POINTW2MN _0x45,0
0014a0 940e 20a5 	CALL _strstr
0014a2 9730      	SBIW R30,0
0014a3 f031      	BREQ _0x44
                 ; 0000 01D9                     phase = 1;
0014a4 e0e1      	LDI  R30,LOW(1)
0014a5 93e0 0bb2 	STS  _phase_S0000009000,R30
                 ; 0000 01DA                     c_idx = 0;  // A?CI? E?C? ?? ??I? content_buffer
0014a7 e0e0      	LDI  R30,LOW(0)
0014a8 93e0 0bb4 	STS  _c_idx_S0000009000,R30
                 ; 0000 01DB                 }
                 ; 0000 01DC                 // ???O? h_idx ?C ???E ?? EC I??? E?I? C? C?? ?? O??I
                 ; 0000 01DD                 h_idx = 0;
                 _0x44:
0014aa e0e0      	LDI  R30,LOW(0)
0014ab 93e0 0bb3 	STS  _h_idx_S0000009000,R30
                 ; 0000 01DE             }
                 ; 0000 01DF             else if (d != '\r') {
0014ad c010      	RJMP _0x46
                 _0x43:
0014ae 301d      	CPI  R17,13
0014af f071      	BREQ _0x47
                 ; 0000 01E0                 // ?I???? ?C?C?E? I? header_buffer
                 ; 0000 01E1                 if (h_idx < sizeof(header_buffer) - 1)
0014b0 91a0 0bb3 	LDS  R26,_h_idx_S0000009000
0014b2 36a3      	CPI  R26,LOW(0x63)
0014b3 f450      	BRSH _0x48
                 ; 0000 01E2                     header_buffer[h_idx++] = d;
0014b4 91e0 0bb3 	LDS  R30,_h_idx_S0000009000
0014b6 5fef      	SUBI R30,-LOW(1)
0014b7 93e0 0bb3 	STS  _h_idx_S0000009000,R30
0014b9 50e1      	SUBI R30,LOW(1)
0014ba e0f0      	LDI  R31,0
0014bb 57ea      	SUBI R30,LOW(-_header_buffer)
0014bc 4ff5      	SBCI R31,HIGH(-_header_buffer)
0014bd 8310      	ST   Z,R17
                 ; 0000 01E3             }
                 _0x48:
                 ; 0000 01E4         }
                 _0x47:
                 _0x46:
                 ; 0000 01E5         else {
0014be c023      	RJMP _0x49
                 _0x42:
                 ; 0000 01E6             // -- I?C?I? ??E?C EC '\n' --
                 ; 0000 01E7             if (d == '\n') {
0014bf 301a      	CPI  R17,10
0014c0 f489      	BRNE _0x4A
                 ; 0000 01E8                 content_buffer[c_idx] = '\0';
0014c1 91e0 0bb4 	LDS  R30,_c_idx_S0000009000
0014c3 e0f0      	LDI  R31,0
0014c4 51e6      	SUBI R30,LOW(-_content_buffer)
0014c5 4ff5      	SBCI R31,HIGH(-_content_buffer)
0014c6 e0a0      	LDI  R26,LOW(0)
0014c7 83a0      	STD  Z+0,R26
                 ; 0000 01E9                 sms_received = 1;    // ?? SMS ?C?? I??C?E OI
0014c8 9468      	SET
0014c9 f821      	BLD  R2,1
                 ; 0000 01EA                 phase = 0;           // E?C? ??C? E?I? I?EC?? E??????I?? E? ?C? 0
0014ca e0e0      	LDI  R30,LOW(0)
0014cb 93e0 0bb2 	STS  _phase_S0000009000,R30
                 ; 0000 01EB                 h_idx = 0;           // C??I????C ?C ?? ?C? ???????
0014cd 93e0 0bb3 	STS  _h_idx_S0000009000,R30
                 ; 0000 01EC                 c_idx = 0;
0014cf 93e0 0bb4 	STS  _c_idx_S0000009000,R30
                 ; 0000 01ED             }
                 ; 0000 01EE             else if (d != '\r') {
0014d1 c010      	RJMP _0x4B
                 _0x4A:
0014d2 301d      	CPI  R17,13
0014d3 f071      	BREQ _0x4C
                 ; 0000 01EF                 if (c_idx < sizeof(content_buffer) - 1)
0014d4 91a0 0bb4 	LDS  R26,_c_idx_S0000009000
0014d6 36a3      	CPI  R26,LOW(0x63)
0014d7 f450      	BRSH _0x4D
                 ; 0000 01F0                     content_buffer[c_idx++] = d;
0014d8 91e0 0bb4 	LDS  R30,_c_idx_S0000009000
0014da 5fef      	SUBI R30,-LOW(1)
0014db 93e0 0bb4 	STS  _c_idx_S0000009000,R30
0014dd 50e1      	SUBI R30,LOW(1)
0014de e0f0      	LDI  R31,0
0014df 51e6      	SUBI R30,LOW(-_content_buffer)
0014e0 4ff5      	SBCI R31,HIGH(-_content_buffer)
0014e1 8310      	ST   Z,R17
                 ; 0000 01F1             }
                 _0x4D:
                 ; 0000 01F2         }
                 _0x4C:
                 _0x4B:
                 _0x49:
                 ; 0000 01F3     }
0014e2 cfa1      	RJMP _0x3D
                 _0x3F:
                 ; 0000 01F4 }
0014e3 940c 19bb 	JMP  _0x212000F
                 ; .FEND
                 
                 	.DSEG
                 _0x45:
000618           	.BYTE 0x6
                 ;
                 ;
                 ;
                 ;void main(void)
                 ; 0000 01F9 {
                 
                 	.CSEG
                 _main:
                 ; .FSTART _main
                 ; 0000 01FA 
                 ; 0000 01FB     GLCDINIT_t glcd_init_data;
                 ; 0000 01FC 
                 ; 0000 01FD 
                 ; 0000 01FE     DDRA=(0<<DDA7) | (0<<DDA6) | (0<<DDA5) | (0<<DDA4) | (0<<DDA3) | (0<<DDA2) | (0<<DDA1) | (0<<DDA0);
0014e5 9726      	SBIW R28,6
                 ;	glcd_init_data -> Y+0
0014e6 e0e0      	LDI  R30,LOW(0)
0014e7 bbea      	OUT  0x1A,R30
                 ; 0000 01FF     PORTA=(0<<PORTA7) | (0<<PORTA6) | (0<<PORTA5) | (0<<PORTA4) | (0<<PORTA3) | (0<<PORTA2) | (0<<PORTA1) | (0<<PORTA0);
0014e8 bbeb      	OUT  0x1B,R30
                 ; 0000 0200 
                 ; 0000 0201     DDRB=(0<<DDB7) | (0<<DDB6) | (0<<DDB5) | (0<<DDB4) | (0<<DDB3) | (0<<DDB2) | (0<<DDB1) | (0<<DDB0);
0014e9 bbe7      	OUT  0x17,R30
                 ; 0000 0202     PORTB=(1<<PORTB7) | (1<<PORTB6) | (1<<PORTB5) | (1<<PORTB4) | (0<<PORTB3) | (0<<PORTB2) | (0<<PORTB1) | (0<<PORTB0);
0014ea efe0      	LDI  R30,LOW(240)
0014eb bbe8      	OUT  0x18,R30
                 ; 0000 0203 
                 ; 0000 0204     DDRC=(0<<DDC7) | (0<<DDC6) | (0<<DDC5) | (0<<DDC4) | (0<<DDC3) | (1<<DDC2) | (1<<DDC1) | (1<<DDC0);
0014ec e0e7      	LDI  R30,LOW(7)
0014ed bbe4      	OUT  0x14,R30
                 ; 0000 0205     PORTC=(1<<PORTC7) | (1<<PORTC6) | (1<<PORTC5) | (1<<PORTC4) | (0<<PORTC3) | (0<<PORTC2) | (0<<PORTC1) | (0<<PORTC0);
0014ee efe0      	LDI  R30,LOW(240)
0014ef bbe5      	OUT  0x15,R30
                 ; 0000 0206 
                 ; 0000 0207     DDRD=(0<<DDD7) | (0<<DDD6) | (0<<DDD5) | (0<<DDD4) | (0<<DDD3) | (0<<DDD2) | (0<<DDD1) | (0<<DDD0);
0014f0 e0e0      	LDI  R30,LOW(0)
0014f1 bbe1      	OUT  0x11,R30
                 ; 0000 0208     PORTD=(0<<PORTD7) | (0<<PORTD6) | (0<<PORTD5) | (0<<PORTD4) | (0<<PORTD3) | (0<<PORTD2) | (1<<PORTD1) | (0<<PORTD0);
0014f2 e0e2      	LDI  R30,LOW(2)
0014f3 bbe2      	OUT  0x12,R30
                 ; 0000 0209 
                 ; 0000 020A     DDRE=(0<<DDE7) | (0<<DDE6) | (1<<DDE5) | (1<<DDE4) | (1<<DDE3) | (1<<DDE2) | (0<<DDE1) | (0<<DDE0);
0014f4 e3ec      	LDI  R30,LOW(60)
0014f5 b9e2      	OUT  0x2,R30
                 ; 0000 020B     PORTE=(0<<PORTE7) | (0<<PORTE6) | (0<<PORTE5) | (0<<PORTE4) | (0<<PORTE3) | (0<<PORTE2) | (0<<PORTE1) | (0<<PORTE0);
0014f6 e0e0      	LDI  R30,LOW(0)
0014f7 b9e3      	OUT  0x3,R30
                 ; 0000 020C 
                 ; 0000 020D     DDRF=(0<<DDF7) | (0<<DDF6) | (0<<DDF5) | (0<<DDF4) | (0<<DDF3) | (0<<DDF2) | (0<<DDF1) | (0<<DDF0);
0014f8 93e0 0061 	STS  97,R30
                 ; 0000 020E     PORTF=(0<<PORTF7) | (0<<PORTF6) | (0<<PORTF5) | (0<<PORTF4) | (0<<PORTF3) | (0<<PORTF2) | (0<<PORTF1) | (0<<PORTF0);
0014fa 93e0 0062 	STS  98,R30
                 ; 0000 020F 
                 ; 0000 0210     DDRG=(0<<DDG4) | (0<<DDG3) | (0<<DDG2) | (0<<DDG1) | (0<<DDG0);
0014fc 93e0 0064 	STS  100,R30
                 ; 0000 0211     PORTG=(0<<PORTG4) | (0<<PORTG3) | (0<<PORTG2) | (0<<PORTG1) | (0<<PORTG0);
0014fe 93e0 0065 	STS  101,R30
                 ; 0000 0212 
                 ; 0000 0213     // Timer Period: 32.768 ms
                 ; 0000 0214     ASSR=0<<AS0;
001500 bfe0      	OUT  0x30,R30
                 ; 0000 0215     TCCR0=(0<<WGM00) | (0<<COM01) | (0<<COM00) | (0<<WGM01) | (1<<CS02) | (1<<CS01) | (1<<CS00);
001501 e0e7      	LDI  R30,LOW(7)
001502 bfe3      	OUT  0x33,R30
                 ; 0000 0216     TCNT0=0x00;
001503 e0e0      	LDI  R30,LOW(0)
001504 bfe2      	OUT  0x32,R30
                 ; 0000 0217     OCR0=0x00;
001505 bfe1      	OUT  0x31,R30
                 ; 0000 0218 
                 ; 0000 0219     TCCR1A=(0<<COM1A1) | (0<<COM1A0) | (0<<COM1B1) | (0<<COM1B0) | (0<<COM1C1) | (0<<COM1C0) | (0<<WGM11) | (0<<WGM10);
001506 bdef      	OUT  0x2F,R30
                 ; 0000 021A     TCCR1B=(0<<ICNC1) | (0<<ICES1) | (0<<WGM13) | (0<<WGM12) | (0<<CS12) | (0<<CS11) | (0<<CS10);
001507 bdee      	OUT  0x2E,R30
                 ; 0000 021B     TCNT1H=0x00;
001508 bded      	OUT  0x2D,R30
                 ; 0000 021C     TCNT1L=0x00;
001509 bdec      	OUT  0x2C,R30
                 ; 0000 021D     ICR1H=0x00;
00150a bde7      	OUT  0x27,R30
                 ; 0000 021E     ICR1L=0x00;
00150b bde6      	OUT  0x26,R30
                 ; 0000 021F     OCR1AH=0x00;
00150c bdeb      	OUT  0x2B,R30
                 ; 0000 0220     OCR1AL=0x00;
00150d bdea      	OUT  0x2A,R30
                 ; 0000 0221     OCR1BH=0x00;
00150e bde9      	OUT  0x29,R30
                 ; 0000 0222     OCR1BL=0x00;
00150f bde8      	OUT  0x28,R30
                 ; 0000 0223     OCR1CH=0x00;
001510 93e0 0079 	STS  121,R30
                 ; 0000 0224     OCR1CL=0x00;
001512 93e0 0078 	STS  120,R30
                 ; 0000 0225 
                 ; 0000 0226     TCCR2=(0<<WGM20) | (0<<COM21) | (0<<COM20) | (0<<WGM21) | (0<<CS22) | (0<<CS21) | (0<<CS20);
001514 bde5      	OUT  0x25,R30
                 ; 0000 0227     TCNT2=0x00;
001515 bde4      	OUT  0x24,R30
                 ; 0000 0228     OCR2=0x00;
001516 bde3      	OUT  0x23,R30
                 ; 0000 0229 
                 ; 0000 022A 
                 ; 0000 022B     TCCR3A=(0<<COM3A1) | (0<<COM3A0) | (0<<COM3B1) | (0<<COM3B0) | (0<<COM3C1) | (0<<COM3C0) | (0<<WGM31) | (0<<WGM30);
001517 93e0 008b 	STS  139,R30
                 ; 0000 022C     TCCR3B=(0<<ICNC3) | (0<<ICES3) | (0<<WGM33) | (0<<WGM32) | (0<<CS32) | (0<<CS31) | (0<<CS30);
001519 93e0 008a 	STS  138,R30
                 ; 0000 022D     TCNT3H=0x00;
00151b 93e0 0089 	STS  137,R30
                 ; 0000 022E     TCNT3L=0x00;
00151d 93e0 0088 	STS  136,R30
                 ; 0000 022F     ICR3H=0x00;
00151f 93e0 0081 	STS  129,R30
                 ; 0000 0230     ICR3L=0x00;
001521 93e0 0080 	STS  128,R30
                 ; 0000 0231     OCR3AH=0x00;
001523 93e0 0087 	STS  135,R30
                 ; 0000 0232     OCR3AL=0x00;
001525 93e0 0086 	STS  134,R30
                 ; 0000 0233     OCR3BH=0x00;
001527 93e0 0085 	STS  133,R30
                 ; 0000 0234     OCR3BL=0x00;
001529 93e0 0084 	STS  132,R30
                 ; 0000 0235     OCR3CH=0x00;
00152b 93e0 0083 	STS  131,R30
                 ; 0000 0236     OCR3CL=0x00;
00152d 93e0 0082 	STS  130,R30
                 ; 0000 0237 
                 ; 0000 0238     TIMSK=(0<<OCIE2) | (0<<TOIE2) | (0<<TICIE1) | (0<<OCIE1A) | (0<<OCIE1B) | (0<<TOIE1) | (0<<OCIE0) | (1<<TOIE0);
00152f e0e1      	LDI  R30,LOW(1)
001530 bfe7      	OUT  0x37,R30
                 ; 0000 0239     ETIMSK=(0<<TICIE3) | (0<<OCIE3A) | (0<<OCIE3B) | (0<<TOIE3) | (0<<OCIE3C) | (0<<OCIE1C);
001531 e0e0      	LDI  R30,LOW(0)
001532 93e0 007d 	STS  125,R30
                 ; 0000 023A 
                 ; 0000 023B     EICRA=(0<<ISC31) | (0<<ISC30) | (0<<ISC21) | (0<<ISC20) | (0<<ISC11) | (0<<ISC10) | (0<<ISC01) | (0<<ISC00);
001534 93e0 006a 	STS  106,R30
                 ; 0000 023C     EICRB=(0<<ISC71) | (0<<ISC70) | (0<<ISC61) | (0<<ISC60) | (0<<ISC51) | (0<<ISC50) | (0<<ISC41) | (0<<ISC40);
001536 bfea      	OUT  0x3A,R30
                 ; 0000 023D     EIMSK=(0<<INT7) | (0<<INT6) | (0<<INT5) | (0<<INT4) | (0<<INT3) | (0<<INT2) | (0<<INT1) | (0<<INT0);
001537 bfe9      	OUT  0x39,R30
                 ; 0000 023E 
                 ; 0000 023F     UCSR0A=(0<<RXC0) | (0<<TXC0) | (0<<UDRE0) | (0<<FE0) | (0<<DOR0) | (0<<UPE0) | (0<<U2X0) | (0<<MPCM0);
001538 b9eb      	OUT  0xB,R30
                 ; 0000 0240     UCSR0B=(1<<RXCIE0) | (0<<TXCIE0) | (0<<UDRIE0) | (1<<RXEN0) | (1<<TXEN0) | (0<<UCSZ02) | (0<<RXB80) | (0<<TXB80);
001539 e9e8      	LDI  R30,LOW(152)
00153a b9ea      	OUT  0xA,R30
                 ; 0000 0241     UCSR0C=(0<<UMSEL0) | (0<<UPM01) | (0<<UPM00) | (0<<USBS0) | (1<<UCSZ01) | (1<<UCSZ00) | (0<<UCPOL0);
00153b e0e6      	LDI  R30,LOW(6)
00153c 93e0 0095 	STS  149,R30
                 ; 0000 0242     UBRR0H=0x00;
00153e e0e0      	LDI  R30,LOW(0)
00153f 93e0 0090 	STS  144,R30
                 ; 0000 0243     UBRR0L=0x33;
001541 e3e3      	LDI  R30,LOW(51)
001542 b9e9      	OUT  0x9,R30
                 ; 0000 0244 
                 ; 0000 0245     UCSR1B=(0<<RXCIE1) | (0<<TXCIE1) | (0<<UDRIE1) | (0<<RXEN1) | (0<<TXEN1) | (0<<UCSZ12) | (0<<RXB81) | (0<<TXB81);
001543 e0e0      	LDI  R30,LOW(0)
001544 93e0 009a 	STS  154,R30
                 ; 0000 0246 
                 ; 0000 0247     ACSR=(1<<ACD) | (0<<ACBG) | (0<<ACO) | (0<<ACI) | (0<<ACIE) | (0<<ACIC) | (0<<ACIS1) | (0<<ACIS0);
001546 e8e0      	LDI  R30,LOW(128)
001547 b9e8      	OUT  0x8,R30
                 ; 0000 0248     SFIOR=(0<<ACME);
001548 e0e0      	LDI  R30,LOW(0)
001549 bde0      	OUT  0x20,R30
                 ; 0000 0249 
                 ; 0000 024A     ADCSRA=(0<<ADEN) | (0<<ADSC) | (0<<ADFR) | (0<<ADIF) | (0<<ADIE) | (0<<ADPS2) | (0<<ADPS1) | (0<<ADPS0);
00154a b9e6      	OUT  0x6,R30
                 ; 0000 024B 
                 ; 0000 024C     SPCR=(0<<SPIE) | (0<<SPE) | (0<<DORD) | (0<<MSTR) | (0<<CPOL) | (0<<CPHA) | (0<<SPR1) | (0<<SPR0);
00154b b9ed      	OUT  0xD,R30
                 ; 0000 024D 
                 ; 0000 024E     TWCR=(0<<TWEA) | (0<<TWSTA) | (0<<TWSTO) | (0<<TWEN) | (0<<TWIE);
00154c 93e0 0074 	STS  116,R30
                 ; 0000 024F 
                 ; 0000 0250     MCUCSR = (1 << JTD);
00154e e8e0      	LDI  R30,LOW(128)
00154f bfe4      	OUT  0x34,R30
                 ; 0000 0251     MCUCSR = (1 << JTD);
001550 bfe4      	OUT  0x34,R30
                 ; 0000 0252 
                 ; 0000 0253     glcd_init_data.font=font5x7;
001551 e8ec      	LDI  R30,LOW(_font5x7*2)
001552 e0f0      	LDI  R31,HIGH(_font5x7*2)
001553 83e8      	ST   Y,R30
001554 83f9      	STD  Y+1,R31
                 ; 0000 0254     glcd_init_data.readxmem=NULL;
001555 e0e0      	LDI  R30,LOW(0)
001556 83ea      	STD  Y+2,R30
001557 83eb      	STD  Y+2+1,R30
                 ; 0000 0255     glcd_init_data.writexmem=NULL;
001558 83ec      	STD  Y+4,R30
001559 83ed      	STD  Y+4+1,R30
                 ; 0000 0256     glcd_init(&glcd_init_data);
00155a 01de      	MOVW R26,R28
00155b 940e 1a42 	CALL _glcd_init
                 ; 0000 0257     glcd_setfont(font5x7);
00155d e8ec      	LDI  R30,LOW(_font5x7*2)
00155e e0f0      	LDI  R31,HIGH(_font5x7*2)
00155f 940e 2297 	CALL SUBOPT_0x1A
                 ; 0000 0258 
                 ; 0000 0259     // Global enable interrupts
                 ; 0000 025A     #asm("sei")
001561 9478      	sei
                 ; 0000 025B 
                 ; 0000 025C     glcd_clear();
001562 940e 21f8 	CALL SUBOPT_0x7
                 ; 0000 025D     glcd_outtextxy(0, 0, "Module Init...");
                +
001564 e1ae     +LDI R26 , LOW ( _0x4E + ( 0 ) )
001565 e0b6     +LDI R27 , HIGH ( _0x4E + ( 0 ) )
                 	__POINTW2MN _0x4E,0
001566 940e 1e3d 	CALL _glcd_outtextxy
                 ; 0000 025E     delay_ms(500);
001568 940e 2205 	CALL SUBOPT_0x9
                 ; 0000 025F 
                 ; 0000 0260 //    sim800_restart();
                 ; 0000 0261 //    check_sim();
                 ; 0000 0262 //    if (!check_signal_with_restart()) { glcd_outtextxy(0, 10, "SMS Init Failed!"); while(1); }
                 ; 0000 0263 //    if (!init_sms()) { glcd_outtextxy(0, 10, "SMS Init Failed!"); while(1); }
                 ; 0000 0264 
                 ; 0000 0265     while (1) {
                 _0x4F:
                 ; 0000 0266 //        full_check();
                 ; 0000 0267         sim800_restart();
00156a 940e 1739 	CALL _sim800_restart
                 ; 0000 0268         check_sim();
00156c 940e 182d 	CALL _check_sim
                 ; 0000 0269         check_signal_with_restart();
00156e 940e 189c 	CALL _check_signal_with_restart
                 ; 0000 026A         init_sms();
001570 940e 18bf 	CALL _init_sms
                 ; 0000 026B 
                 ; 0000 026C         if (init_GPRS()) {
001572 940e 18e2 	CALL _init_GPRS
001574 30e0      	CPI  R30,0
001575 f439      	BRNE _0x51
                 ; 0000 026D             //       
                 ; 0000 026E             break;
                 ; 0000 026F         } else {
                 ; 0000 0270             //   
                 ; 0000 0271             glcd_clear();
001576 940e 21f8 	CALL SUBOPT_0x7
                 ; 0000 0272             glcd_outtextxy(0, 0, "GPRS Init Failed!");
                +
001578 e2ad     +LDI R26 , LOW ( _0x4E + ( 15 ) )
001579 e0b6     +LDI R27 , HIGH ( _0x4E + ( 15 ) )
                 	__POINTW2MN _0x4E,15
00157a 940e 229c 	CALL SUBOPT_0x1B
                 ; 0000 0273             delay_ms(100);  //   
                 ; 0000 0274             //     
                 ; 0000 0275         }
                 ; 0000 0276     }
00157c cfed      	RJMP _0x4F
                 _0x51:
                 ; 0000 0277 
                 ; 0000 0278 
                 ; 0000 0279 
                 ; 0000 027A     glcd_clear();
00157d 940e 1ac1 	CALL _glcd_clear
                 ; 0000 027B 
                 ; 0000 027C     while (1){
                 _0x54:
                 ; 0000 027D         static uint8_t processing_sms = 0;
                 ; 0000 027E         draw_bitmap(0, 0, kode_mahsol_payamak_konid, 128, 64);
00157f e0e0      	LDI  R30,LOW(0)
001580 93ea      	ST   -Y,R30
001581 93ea      	ST   -Y,R30
001582 e7e0      	LDI  R30,LOW(_kode_mahsol_payamak_konid*2)
001583 e0f2      	LDI  R31,HIGH(_kode_mahsol_payamak_konid*2)
001584 940e 226c 	CALL SUBOPT_0x13
                 ; 0000 027F         //test_keypad();
                 ; 0000 0280         process_uart_data();
001586 defc      	RCALL _process_uart_data
                 ; 0000 0281 
                 ; 0000 0282         if (sms_received) {
001587 fe21      	SBRS R2,1
001588 c00a      	RJMP _0x57
                 ; 0000 0283             processing_sms = 1;   //   
001589 e0e1      	LDI  R30,LOW(1)
00158a 93e0 0bb5 	STS  _processing_sms_S000000A001,R30
                 ; 0000 0284             handle_sms();
00158c de14      	RCALL _handle_sms
                 ; 0000 0285             processing_sms = 0;   //   
00158d e0e0      	LDI  R30,LOW(0)
00158e 93e0 0bb5 	STS  _processing_sms_S000000A001,R30
                 ; 0000 0286             uart_buffer_reset();
001590 d03c      	RCALL _uart_buffer_reset
                 ; 0000 0287             glcd_clear();
001591 940e 1ac1 	CALL _glcd_clear
                 ; 0000 0288         }
                 ; 0000 0289 
                 ; 0000 028A         if (!processing_sms && (millis() - last_time > 50000)) {
                 _0x57:
001593 91e0 0bb5 	LDS  R30,_processing_sms_S000000A001
001595 30e0      	CPI  R30,0
001596 f4a9      	BRNE _0x59
001597 dcde      	RCALL _millis
001598 01df      	MOVW R26,R30
001599 01cb      	MOVW R24,R22
00159a 91e0 0a82 	LDS  R30,_last_time
00159c 91f0 0a83 	LDS  R31,_last_time+1
00159e 9160 0a84 	LDS  R22,_last_time+2
0015a0 9170 0a85 	LDS  R23,_last_time+3
0015a2 940e 23e0 	CALL __SUBD21
                +
0015a4 35a1     +CPI R26 , LOW ( 0xC351 )
0015a5 ece3     +LDI R30 , HIGH ( 0xC351 )
0015a6 07be     +CPC R27 , R30
0015a7 e0e0     +LDI R30 , BYTE3 ( 0xC351 )
0015a8 078e     +CPC R24 , R30
0015a9 e0e0     +LDI R30 , BYTE4 ( 0xC351 )
0015aa 079e     +CPC R25 , R30
                 	__CPD2N 0xC351
0015ab f408      	BRSH _0x5A
                 _0x59:
0015ac c00e      	RJMP _0x58
                 _0x5A:
                 ; 0000 028B             gprs_keep_alive();
0015ad 940e 1965 	CALL _gprs_keep_alive
                 ; 0000 028C             last_time = millis();
0015af dcc6      	RCALL _millis
0015b0 93e0 0a82 	STS  _last_time,R30
0015b2 93f0 0a83 	STS  _last_time+1,R31
0015b4 9360 0a84 	STS  _last_time+2,R22
0015b6 9370 0a85 	STS  _last_time+3,R23
                 ; 0000 028D             uart_buffer_reset();
0015b8 d014      	RCALL _uart_buffer_reset
                 ; 0000 028E             glcd_clear();
0015b9 940e 1ac1 	CALL _glcd_clear
                 ; 0000 028F         }
                 ; 0000 0290 
                 ; 0000 0291     }
                 _0x58:
0015bb cfc3      	RJMP _0x54
                 ; 0000 0292 }
                 _0x5B:
0015bc cfff      	RJMP _0x5B
                 ; .FEND
                 
                 	.DSEG
                 _0x4E:
00061e           	.BYTE 0x21
                 ;#include "common.h"
                 	#ifndef __SLEEP_DEFINED__
                 	#endif
                 ;#include <string.h>
                 ;#include <delay.h>
                 ;#include <mega64a.h>
                 ;#include <glcd.h>
                 ;
                 ;#define glcd_pixel(x, y, color) glcd_setpixel(x, y)
                 ;#define read_flash_byte(p) (*(p))
                 ;
                 ;// ---   AT ---
                 ;void send_at_command(char *command)
                 ; 0001 000C {
                 
                 	.CSEG
                 _send_at_command:
                 ; .FSTART _send_at_command
                 ; 0001 000D     printf("%s\r\n", command);
0015bd 93ba      	ST   -Y,R27
0015be 93aa      	ST   -Y,R26
                 ;	*command -> Y+0
                +
0015bf eee4     +LDI R30 , LOW ( 2 * _0x20000 + ( 0 ) )
0015c0 e1fd     +LDI R31 , HIGH ( 2 * _0x20000 + ( 0 ) )
                 	__POINTW1FN _0x20000,0
0015c1 93fa      	ST   -Y,R31
0015c2 93ea      	ST   -Y,R30
0015c3 81ea      	LDD  R30,Y+2
0015c4 81fb      	LDD  R31,Y+2+1
0015c5 940e 2273 	CALL SUBOPT_0x14
0015c7 e084      	LDI  R24,4
0015c8 940e 201f 	CALL _printf
0015ca 9626      	ADIW R28,6
                 ; 0001 000E }
0015cb 940c 1a40 	JMP  _0x212000E
                 ; .FEND
                 ;
                 ;// ---    USART0 ---
                 ;void uart_flush0(void)
                 ; 0001 0012 {
                 ; 0001 0013     unsigned char dummy;
                 ; 0001 0014 
                 ; 0001 0015     //    
                 ; 0001 0016     while (UCSR0A & (1<<RXC0)) {
                 ;	dummy -> R17
                 ; 0001 0017         dummy = UDR0;
                 ; 0001 0018     }
                 ; 0001 0019 //
                 ; 0001 001A //    //    
                 ; 0001 001B //    rx_wr_index0 = rx_rd_index0 = 0;
                 ; 0001 001C //    rx_counter0 = 0;
                 ; 0001 001D //    rx_buffer_overflow0 = 0;
                 ; 0001 001E }
                 ;
                 ;
                 ;void uart_buffer_reset(void) {
                 ; 0001 0021 void uart_buffer_reset(void) {
                 _uart_buffer_reset:
                 ; .FSTART _uart_buffer_reset
                 ; 0001 0022     rx_wr_index0 = rx_rd_index0 = 0;
0015cd e0e0      	LDI  R30,LOW(0)
0015ce 93e0 096d 	STS  _rx_rd_index0,R30
0015d0 93e0 096c 	STS  _rx_wr_index0,R30
                 ; 0001 0023     rx_counter0 = 0;
0015d2 93e0 096b 	STS  _rx_counter0,R30
                 ; 0001 0024     rx_buffer_overflow0 = 0;
0015d4 94e8      	CLT
0015d5 f820      	BLD  R2,0
                 ; 0001 0025 }
0015d6 9508      	RET
                 ; .FEND
                 ;
                 ;
                 ;//unsigned char read_serial_timeout_simple(char* buffer, int buffer_size, unsigned long timeout_ms) {
                 ;//    int i = 0;
                 ;//    unsigned long elapsed = 0;
                 ;//
                 ;//    //     
                 ;//    memset(buffer, 0, buffer_size);
                 ;//
                 ;//    //       delay
                 ;//    while (elapsed < timeout_ms && i < buffer_size - 1) {
                 ;//        //    UART  
                 ;//        while (rx_counter0 > 0 && i < buffer_size - 1) {
                 ;//            char c = getchar();  //     UART
                 ;//            buffer[i++] = c;
                 ;//            buffer[i] = '\0';
                 ;//
                 ;//            //    GLCD
                 ;//            glcd_outtextxy(0, 0, buffer);
                 ;//        }
                 ;//        delay_ms(1);
                 ;//        elapsed++;
                 ;//    }
                 ;//
                 ;//    return (i > 0); // 1       
                 ;//}
                 ;
                 ;
                 ;
                 ;//     
                 ;unsigned char read_until_keyword_keep_all(char* buffer, int buffer_size, unsigned long timeout_ms, const char* keyword)  ...
                 ; 0001 0044 unsigned char read_until_keyword_keep_all(char* buffer, int buffer_size, unsigned long timeout_ms, const char* keyword) {
                 _read_until_keyword_keep_all:
                 ; .FSTART _read_until_keyword_keep_all
                 ; 0001 0045     int i = 0;
                 ; 0001 0046     unsigned long elapsed = 0;
                 ; 0001 0047     int found = 0;
                 ; 0001 0048     int keyword_len = strlen(keyword);
                 ; 0001 0049 
                 ; 0001 004A     memset(buffer, 0, buffer_size);
0015d7 93ba      	ST   -Y,R27
0015d8 93aa      	ST   -Y,R26
0015d9 9724      	SBIW R28,4
0015da e0e0      	LDI  R30,LOW(0)
0015db 83e8      	ST   Y,R30
0015dc 83e9      	STD  Y+1,R30
0015dd 83ea      	STD  Y+2,R30
0015de 83eb      	STD  Y+3,R30
0015df 940e 21da 	CALL SUBOPT_0x1
                 ;	*buffer -> Y+18
                 ;	buffer_size -> Y+16
                 ;	timeout_ms -> Y+12
                 ;	*keyword -> Y+10
                 ;	i -> R16,R17
                 ;	elapsed -> Y+6
                 ;	found -> R18,R19
                 ;	keyword_len -> R20,R21
                +
0015e1 e020     +LDI R18 , LOW ( 0 )
0015e2 e030     +LDI R19 , HIGH ( 0 )
                 	__GETWRN 18,19,0
0015e3 85aa      	LDD  R26,Y+10
0015e4 85bb      	LDD  R27,Y+10+1
0015e5 940e 2075 	CALL _strlen
0015e7 01af      	MOVW R20,R30
0015e8 89ea      	LDD  R30,Y+18
0015e9 89fb      	LDD  R31,Y+18+1
0015ea 93fa      	ST   -Y,R31
0015eb 93ea      	ST   -Y,R30
0015ec e0e0      	LDI  R30,LOW(0)
0015ed 93ea      	ST   -Y,R30
0015ee 89ab      	LDD  R26,Y+19
0015ef 89bc      	LDD  R27,Y+19+1
0015f0 940e 2044 	CALL _memset
                 ; 0001 004B 
                 ; 0001 004C     while (elapsed < timeout_ms && i < buffer_size - 1) {
                 _0x20006:
                +
0015f2 85ec     +LDD R30 , Y + 12
0015f3 85fd     +LDD R31 , Y + 12 + 1
0015f4 856e     +LDD R22 , Y + 12 + 2
0015f5 857f     +LDD R23 , Y + 12 + 3
                 	__GETD1S 12
                +
0015f6 81ae     +LDD R26 , Y + 6
0015f7 81bf     +LDD R27 , Y + 6 + 1
0015f8 8588     +LDD R24 , Y + 6 + 2
0015f9 8599     +LDD R25 , Y + 6 + 3
                 	__GETD2S 6
0015fa 940e 2473 	CALL __CPD21
0015fc f430      	BRSH _0x20009
0015fd 89e8      	LDD  R30,Y+16
0015fe 89f9      	LDD  R31,Y+16+1
0015ff 9731      	SBIW R30,1
001600 170e      	CP   R16,R30
001601 071f      	CPC  R17,R31
001602 f00c      	BRLT _0x2000A
                 _0x20009:
001603 c05b      	RJMP _0x20008
                 _0x2000A:
                 ; 0001 004D         while (rx_counter0 > 0 && i < buffer_size - 1) {
                 _0x2000B:
001604 91a0 096b 	LDS  R26,_rx_counter0
001606 30a1      	CPI  R26,LOW(0x1)
001607 f030      	BRLO _0x2000E
001608 89e8      	LDD  R30,Y+16
001609 89f9      	LDD  R31,Y+16+1
00160a 9731      	SBIW R30,1
00160b 170e      	CP   R16,R30
00160c 071f      	CPC  R17,R31
00160d f00c      	BRLT _0x2000F
                 _0x2000E:
00160e c02e      	RJMP _0x2000D
                 _0x2000F:
                 ; 0001 004E             char c = getchar();
                 ; 0001 004F             buffer[i++] = c;
00160f 9721      	SBIW R28,1
                 ;	*buffer -> Y+19
                 ;	buffer_size -> Y+17
                 ;	timeout_ms -> Y+13
                 ;	*keyword -> Y+11
                 ;	elapsed -> Y+7
                 ;	c -> Y+0
001610 940e 11fe 	CALL _getchar
001612 83e8      	ST   Y,R30
001613 01f8      	MOVW R30,R16
                +
001614 5f0f     +SUBI R16 , LOW ( - 1 )
001615 4f1f     +SBCI R17 , HIGH ( - 1 )
                 	__ADDWRN 16,17,1
001616 89ab      	LDD  R26,Y+19
001617 89bc      	LDD  R27,Y+19+1
001618 0fea      	ADD  R30,R26
001619 1ffb      	ADC  R31,R27
00161a 81a8      	LD   R26,Y
00161b 83a0      	STD  Z+0,R26
                 ; 0001 0050             buffer[i] = '\0';
00161c 01f8      	MOVW R30,R16
00161d 89ab      	LDD  R26,Y+19
00161e 89bc      	LDD  R27,Y+19+1
00161f 0fae      	ADD  R26,R30
001620 1fbf      	ADC  R27,R31
001621 e0e0      	LDI  R30,LOW(0)
001622 93ec      	ST   X,R30
                 ; 0001 0051 
                 ; 0001 0052             //   keyword
                 ; 0001 0053             if (!found && i >= keyword_len) {
001623 2e02      	MOV  R0,R18
001624 2a03      	OR   R0,R19
001625 f419      	BRNE _0x20011
                +
001626 1704     +CP R16 , R20
001627 0715     +CPC R17 , R21
                 	__CPWRR 16,17,20,21
001628 f40c      	BRGE _0x20012
                 _0x20011:
001629 c011      	RJMP _0x20010
                 _0x20012:
                 ; 0001 0054                 if (strstr(buffer, keyword) != NULL) {
00162a 89eb      	LDD  R30,Y+19
00162b 89fc      	LDD  R31,Y+19+1
00162c 93fa      	ST   -Y,R31
00162d 93ea      	ST   -Y,R30
00162e 85ad      	LDD  R26,Y+13
00162f 85be      	LDD  R27,Y+13+1
001630 940e 20a5 	CALL _strstr
001632 9730      	SBIW R30,0
001633 f039      	BREQ _0x20013
                 ; 0001 0055                     found = 1;
                +
001634 e021     +LDI R18 , LOW ( 1 )
001635 e030     +LDI R19 , HIGH ( 1 )
                 	__GETWRN 18,19,1
                 ; 0001 0056                     elapsed = 0;   //    ?      
001636 e0e0      	LDI  R30,LOW(0)
                +
001637 83ef     +STD Y + 7 , R30
001638 87e8     +STD Y + 7 + 1 , R30
001639 87e9     +STD Y + 7 + 2 , R30
00163a 87ea     +STD Y + 7 + 3 , R30
                 	__CLRD1S 7
                 ; 0001 0057                 }
                 ; 0001 0058             }
                 _0x20013:
                 ; 0001 0059         }
                 _0x20010:
00163b 9621      	ADIW R28,1
00163c cfc7      	RJMP _0x2000B
                 _0x2000D:
                 ; 0001 005A 
                 ; 0001 005B         if (found && elapsed > 100) {
00163d 2e02      	MOV  R0,R18
00163e 2a03      	OR   R0,R19
00163f f061      	BREQ _0x20015
                +
001640 81ae     +LDD R26 , Y + 6
001641 81bf     +LDD R27 , Y + 6 + 1
001642 8588     +LDD R24 , Y + 6 + 2
001643 8599     +LDD R25 , Y + 6 + 3
                 	__GETD2S 6
                +
001644 36a5     +CPI R26 , LOW ( 0x65 )
001645 e0e0     +LDI R30 , HIGH ( 0x65 )
001646 07be     +CPC R27 , R30
001647 e0e0     +LDI R30 , BYTE3 ( 0x65 )
001648 078e     +CPC R24 , R30
001649 e0e0     +LDI R30 , BYTE4 ( 0x65 )
00164a 079e     +CPC R25 , R30
                 	__CPD2N 0x65
00164b f408      	BRSH _0x20016
                 _0x20015:
00164c c001      	RJMP _0x20014
                 _0x20016:
                 ; 0001 005C             //  100ms      
                 ; 0001 005D             break;
00164d c011      	RJMP _0x20008
                 ; 0001 005E         }
                 ; 0001 005F 
                 ; 0001 0060         delay_ms(1);
                 _0x20014:
00164e e0a1      	LDI  R26,LOW(1)
00164f e0b0      	LDI  R27,0
001650 940e 23d2 	CALL _delay_ms
                 ; 0001 0061         elapsed++;
                +
001652 81ee     +LDD R30 , Y + 6
001653 81ff     +LDD R31 , Y + 6 + 1
001654 8568     +LDD R22 , Y + 6 + 2
001655 8579     +LDD R23 , Y + 6 + 3
                 	__GETD1S 6
                +
001656 5fef     +SUBI R30 , LOW ( - 1 )
001657 4fff     +SBCI R31 , HIGH ( - 1 )
001658 4f6f     +SBCI R22 , BYTE3 ( - 1 )
001659 4f7f     +SBCI R23 , BYTE4 ( - 1 )
                 	__SUBD1N -1
                +
00165a 83ee     +STD Y + 6 , R30
00165b 83ff     +STD Y + 6 + 1 , R31
00165c 8768     +STD Y + 6 + 2 , R22
00165d 8779     +STD Y + 6 + 3 , R23
                 	__PUTD1S 6
                 ; 0001 0062     }
00165e cf93      	RJMP _0x20006
                 _0x20008:
                 ; 0001 0063 
                 ; 0001 0064     return (i > 0);
00165f 01d8      	MOVW R26,R16
001660 e0e0      	LDI  R30,LOW(0)
001661 e0f0      	LDI  R31,HIGH(0)
001662 940e 2407 	CALL __GTW12
001664 940e 247f 	CALL __LOADLOCR6
001666 9664      	ADIW R28,20
001667 9508      	RET
                 ; 0001 0065 }
                 ; .FEND
                 ;
                 ;////     
                 ;//int extract_value_after_keyword(const char* input, const char* keyword, char* out_value, int out_size) {
                 ;//    const char* p = strstr(input, keyword);
                 ;//    int i = 0;
                 ;//    if (p) {
                 ;//        p += strlen(keyword);  //    
                 ;//        while (*p == ' ' || *p == '\t') p++;  //   
                 ;//
                 ;//        //       (,    CRLF)
                 ;//        while (*p && *p != ',' && *p != '\r' && *p != '\n' && *p != ' ' && i < out_size - 1) {
                 ;//            out_value[i++] = *p++;
                 ;//        }
                 ;//        out_value[i] = '\0';
                 ;//        return 1;  // 
                 ;//    }
                 ;//    return 0;  //  
                 ;//}
                 ;
                 ;
                 ;int extract_field_after_keyword(const char* input, const char* keyword, int field_index, char* out_value, int out_size)
                 ; 0001 007B {
                 _extract_field_after_keyword:
                 ; .FSTART _extract_field_after_keyword
                 ; 0001 007C     int current_field = 0;
                 ; 0001 007D     int i = 0;
                 ; 0001 007E     const char* p = strstr(input, keyword);
                 ; 0001 007F 
                 ; 0001 0080     if (!p) return 0; //   
001668 93ba      	ST   -Y,R27
001669 93aa      	ST   -Y,R26
00166a 940e 21da 	CALL SUBOPT_0x1
                 ;	*input -> Y+14
                 ;	*keyword -> Y+12
                 ;	field_index -> Y+10
                 ;	*out_value -> Y+8
                 ;	out_size -> Y+6
                 ;	current_field -> R16,R17
                 ;	i -> R18,R19
                 ;	*p -> R20,R21
                +
00166c e020     +LDI R18 , LOW ( 0 )
00166d e030     +LDI R19 , HIGH ( 0 )
                 	__GETWRN 18,19,0
00166e 85ee      	LDD  R30,Y+14
00166f 85ff      	LDD  R31,Y+14+1
001670 93fa      	ST   -Y,R31
001671 93ea      	ST   -Y,R30
001672 85ae      	LDD  R26,Y+14
001673 85bf      	LDD  R27,Y+14+1
001674 940e 20a5 	CALL _strstr
001676 01af      	MOVW R20,R30
001677 2e04      	MOV  R0,R20
001678 2a05      	OR   R0,R21
001679 f409      	BRNE _0x20017
00167a c06e      	RJMP _0x2120016
                 ; 0001 0081 
                 ; 0001 0082     p += strlen(keyword);      //    
                 _0x20017:
00167b 85ac      	LDD  R26,Y+12
00167c 85bd      	LDD  R27,Y+12+1
00167d 940e 2075 	CALL _strlen
                +
00167f 0f4e     +ADD R20 , R30
001680 1f5f     +ADC R21 , R31
                 	__ADDWRR 20,21,30,31
                 ; 0001 0083 
                 ; 0001 0084     //         
                 ; 0001 0085     while (*p == ' ' || *p == '\t') p++;
                 _0x20018:
001681 01da      	MOVW R26,R20
001682 91ac      	LD   R26,X
001683 32a0      	CPI  R26,LOW(0x20)
001684 f021      	BREQ _0x2001B
001685 01da      	MOVW R26,R20
001686 91ac      	LD   R26,X
001687 30a9      	CPI  R26,LOW(0x9)
001688 f419      	BRNE _0x2001A
                 _0x2001B:
                +
001689 5f4f     +SUBI R20 , LOW ( - 1 )
00168a 4f5f     +SBCI R21 , HIGH ( - 1 )
                 	__ADDWRN 20,21,1
00168b cff5      	RJMP _0x20018
                 _0x2001A:
                 ; 0001 0087 while (*p && current_field <= field_index)
                 _0x2001D:
00168c 01da      	MOVW R26,R20
00168d 91ec      	LD   R30,X
00168e 30e0      	CPI  R30,0
00168f f029      	BREQ _0x20020
001690 85ea      	LDD  R30,Y+10
001691 85fb      	LDD  R31,Y+10+1
001692 17e0      	CP   R30,R16
001693 07f1      	CPC  R31,R17
001694 f40c      	BRGE _0x20021
                 _0x20020:
001695 c053      	RJMP _0x2001F
                 _0x20021:
                 ; 0001 0088     {
                 ; 0001 0089         if (current_field == field_index)
001696 85ea      	LDD  R30,Y+10
001697 85fb      	LDD  R31,Y+10+1
001698 17e0      	CP   R30,R16
001699 07f1      	CPC  R31,R17
00169a f579      	BRNE _0x20022
                 ; 0001 008A         {
                 ; 0001 008B             //       CR, LF  space
                 ; 0001 008C             while (*p && *p != ',' && *p != '\r' && *p != '\n' && i < out_size - 1)
                 _0x20023:
00169b 01da      	MOVW R26,R20
00169c 91ec      	LD   R30,X
00169d 30e0      	CPI  R30,0
00169e f089      	BREQ _0x20026
00169f 91ac      	LD   R26,X
0016a0 32ac      	CPI  R26,LOW(0x2C)
0016a1 f071      	BREQ _0x20026
0016a2 01da      	MOVW R26,R20
0016a3 91ac      	LD   R26,X
0016a4 30ad      	CPI  R26,LOW(0xD)
0016a5 f051      	BREQ _0x20026
0016a6 01da      	MOVW R26,R20
0016a7 91ac      	LD   R26,X
0016a8 30aa      	CPI  R26,LOW(0xA)
0016a9 f031      	BREQ _0x20026
0016aa 81ee      	LDD  R30,Y+6
0016ab 81ff      	LDD  R31,Y+6+1
0016ac 9731      	SBIW R30,1
0016ad 172e      	CP   R18,R30
0016ae 073f      	CPC  R19,R31
0016af f00c      	BRLT _0x20027
                 _0x20026:
0016b0 c00f      	RJMP _0x20025
                 _0x20027:
                 ; 0001 008D             {
                 ; 0001 008E                 out_value[i++] = *p++;
0016b1 01f9      	MOVW R30,R18
                +
0016b2 5f2f     +SUBI R18 , LOW ( - 1 )
0016b3 4f3f     +SBCI R19 , HIGH ( - 1 )
                 	__ADDWRN 18,19,1
0016b4 85a8      	LDD  R26,Y+8
0016b5 85b9      	LDD  R27,Y+8+1
0016b6 0fea      	ADD  R30,R26
0016b7 1ffb      	ADC  R31,R27
0016b8 010f      	MOVW R0,R30
0016b9 01da      	MOVW R26,R20
                +
0016ba 5f4f     +SUBI R20 , LOW ( - 1 )
0016bb 4f5f     +SBCI R21 , HIGH ( - 1 )
                 	__ADDWRN 20,21,1
0016bc 91ec      	LD   R30,X
0016bd 01d0      	MOVW R26,R0
0016be 93ec      	ST   X,R30
                 ; 0001 008F             }
0016bf cfdb      	RJMP _0x20023
                 _0x20025:
                 ; 0001 0090             out_value[i] = '\0';
0016c0 01f9      	MOVW R30,R18
0016c1 85a8      	LDD  R26,Y+8
0016c2 85b9      	LDD  R27,Y+8+1
0016c3 0fae      	ADD  R26,R30
0016c4 1fbf      	ADC  R27,R31
0016c5 e0e0      	LDI  R30,LOW(0)
0016c6 93ec      	ST   X,R30
                 ; 0001 0091             return 1; // 
0016c7 e0e1      	LDI  R30,LOW(1)
0016c8 e0f0      	LDI  R31,HIGH(1)
0016c9 c021      	RJMP _0x2120015
                 ; 0001 0092         }
                 ; 0001 0093 
                 ; 0001 0094         //         
                 ; 0001 0095         while (*p && *p != ',') p++;
                 _0x20022:
                 _0x20028:
0016ca 01da      	MOVW R26,R20
0016cb 91ec      	LD   R30,X
0016cc 30e0      	CPI  R30,0
0016cd f019      	BREQ _0x2002B
0016ce 91ac      	LD   R26,X
0016cf 32ac      	CPI  R26,LOW(0x2C)
0016d0 f409      	BRNE _0x2002C
                 _0x2002B:
0016d1 c003      	RJMP _0x2002A
                 _0x2002C:
                +
0016d2 5f4f     +SUBI R20 , LOW ( - 1 )
0016d3 4f5f     +SBCI R21 , HIGH ( - 1 )
                 	__ADDWRN 20,21,1
0016d4 cff5      	RJMP _0x20028
                 _0x2002A:
                 ; 0001 0096 if (*p == ',') p++;
0016d5 01da      	MOVW R26,R20
0016d6 91ac      	LD   R26,X
0016d7 32ac      	CPI  R26,LOW(0x2C)
0016d8 f411      	BRNE _0x2002D
                +
0016d9 5f4f     +SUBI R20 , LOW ( - 1 )
0016da 4f5f     +SBCI R21 , HIGH ( - 1 )
                 	__ADDWRN 20,21,1
                 ; 0001 0097         while (*p == ' ' || *p == '\t') p++; //      
                 _0x2002D:
                 _0x2002E:
0016db 01da      	MOVW R26,R20
0016dc 91ac      	LD   R26,X
0016dd 32a0      	CPI  R26,LOW(0x20)
0016de f021      	BREQ _0x20031
0016df 01da      	MOVW R26,R20
0016e0 91ac      	LD   R26,X
0016e1 30a9      	CPI  R26,LOW(0x9)
0016e2 f419      	BRNE _0x20030
                 _0x20031:
                +
0016e3 5f4f     +SUBI R20 , LOW ( - 1 )
0016e4 4f5f     +SBCI R21 , HIGH ( - 1 )
                 	__ADDWRN 20,21,1
0016e5 cff5      	RJMP _0x2002E
                 _0x20030:
                 ; 0001 0098 current_field++;
                +
0016e6 5f0f     +SUBI R16 , LOW ( - 1 )
0016e7 4f1f     +SBCI R17 , HIGH ( - 1 )
                 	__ADDWRN 16,17,1
                 ; 0001 0099     }
0016e8 cfa3      	RJMP _0x2001D
                 _0x2001F:
                 ; 0001 009A 
                 ; 0001 009B     return 0; //    
                 _0x2120016:
0016e9 e0e0      	LDI  R30,LOW(0)
0016ea e0f0      	LDI  R31,HIGH(0)
                 _0x2120015:
0016eb 940e 247f 	CALL __LOADLOCR6
0016ed 9660      	ADIW R28,16
0016ee 9508      	RET
                 ; 0001 009C }
                 ; .FEND
                 ;
                 ;
                 ;//
                 ;//int extract_field_after_keyword(const char* input, const char* keyword, int field_index, char* out_value, int out_size ...
                 ;//{
                 ;//    int current_field = 0;
                 ;//    int i = 0;
                 ;//    const char* p = strstr(input, keyword);
                 ;//
                 ;//    if (!p) return 0; //   
                 ;//
                 ;//    p += strlen(keyword);      //    
                 ;//    while (*p == ' ' || *p == '\t') p++; //   
                 ;//
                 ;//    while (*p && current_field <= field_index)
                 ;//    {
                 ;//        if (current_field == field_index)
                 ;//        {
                 ;//            //        CRLF  
                 ;//            while (*p && *p != ',' && *p != '\r' && *p != '\n' && i < out_size - 1)
                 ;//            {
                 ;//                out_value[i++] = *p++;
                 ;//            }
                 ;//            out_value[i] = '\0';
                 ;//            return 1; // 
                 ;//        }
                 ;//
                 ;//        //    
                 ;//        while (*p && *p != ',') p++;
                 ;//        if (*p == ',') p++; //   
                 ;//        current_field++;
                 ;//    }
                 ;//
                 ;//    return 0; //    
                 ;//}
                 ;
                 ;
                 ;
                 ;//unsigned char read_serial_response(char* buffer, int buffer_size, int timeout_ms, const char* end_pattern) {
                 ;//    int i = 0;
                 ;//    unsigned int elapsed = 0;
                 ;//
                 ;//    memset(buffer, 0, buffer_size);
                 ;//
                 ;//    while (elapsed < (unsigned)timeout_ms) {
                 ;//        while (rx_counter0 > 0 && i < buffer_size - 1) {
                 ;//            buffer[i++] = getchar();
                 ;//        }
                 ;//
                 ;//        //    
                 ;//        if (end_pattern != NULL && strstr(buffer, end_pattern)) {
                 ;//            buffer[i] = '\0';
                 ;//            return 1;
                 ;//        }
                 ;//
                 ;//        if (i >= buffer_size - 1) {
                 ;//            buffer[i] = '\0';
                 ;//            return 1;
                 ;//        }
                 ;//
                 ;//        delay_ms(1);
                 ;//        elapsed++;
                 ;//    }
                 ;//
                 ;//    buffer[i] = '\0';
                 ;//    return (i > 0);
                 ;//}
                 ;
                 ;
                 ;//// ---     timeout ---
                 ;//unsigned char read_serial_response(char* buffer, int buffer_size, int timeout_ms, const char* expected_response) {
                 ;//    int i = 0;
                 ;//    unsigned int elapsed = 0;
                 ;//
                 ;//    // ?C? ??I? EC?? ?C?E?
                 ;//    memset(buffer, 0, buffer_size);
                 ;//
                 ;//    while (elapsed < (unsigned)timeout_ms) {
                 ;//        // ?? EC?? E?C? EC?E??C? I? I?E?? ????? UART ?C EI?C??I
                 ;//        while (rx_counter0 > 0 && i < buffer_size - 1) {
                 ;//            buffer[i++] = getchar();  // getchar C? ????? EC?? ???A?I
                 ;//        }
                 ;//        // C?? C?EUC??C? ?C I?I??? ??I E???I??
                 ;//        if (strstr(buffer, expected_response)) {
                 ;//            return 1;
                 ;//        }
                 ;//        delay_ms(1);
                 ;//        elapsed++;
                 ;//    }
                 ;//    // ?? C? ?C?C? EC???C?E ?? ??EC? I??? ?? ???????
                 ;//    return (strstr(buffer, expected_response) != NULL);
                 ;//}
                 ;
                 ;
                 ;#include "keypad.h"
                 	#ifndef __SLEEP_DEFINED__
                 	#endif
                 ;#include "common.h"
                 ;#include <glcd.h>
                 ;#include <font5x7.h>
                 ;
                 ;
                 ;char get_key(void)
                 ; 0002 0008 {
                 
                 	.CSEG
                 _get_key:
                 ; .FSTART _get_key
                 ; 0002 0009     unsigned char row, col;
                 ; 0002 000A     const unsigned char column_pins[3] = {COL1_PIN, COL2_PIN, COL3_PIN};
                 ; 0002 000B     const unsigned char row_pins[4] = {ROW1_PIN, ROW2_PIN, ROW3_PIN, ROW4_PIN};
                 ; 0002 000C 
                 ; 0002 000D //    const char key_map[4][3] = {
                 ; 0002 000E //        {'1', '2', '3'},
                 ; 0002 000F //        {'4', '5', '6'},
                 ; 0002 0010 //        {'7', '8', '9'},
                 ; 0002 0011 //        {'*', '0', '#'}
                 ; 0002 0012 //    };
                 ; 0002 0013 
                 ; 0002 0014     const char key_map[4][3] = {
                 ; 0002 0015         {'#', '0', '*'},  //  1
                 ; 0002 0016         {'9', '8', '7'},  //  2
                 ; 0002 0017         {'6', '5', '4'},  //  3
                 ; 0002 0018         {'3', '2', '1'}   //  4
                 ; 0002 0019     };
                 ; 0002 001A 
                 ; 0002 001B     for (col = 0; col < 3; col++)
0016ef 9763      	SBIW R28,19
0016f0 e183      	LDI  R24,19
0016f1 e0a0      	LDI  R26,LOW(0)
0016f2 e0b0      	LDI  R27,HIGH(0)
0016f3 eeea      	LDI  R30,LOW(_0x40003*2)
0016f4 e1fd      	LDI  R31,HIGH(_0x40003*2)
0016f5 940e 2486 	CALL __INITLOCB
0016f7 931a      	ST   -Y,R17
0016f8 930a      	ST   -Y,R16
                 ;	row -> R17
                 ;	col -> R16
                 ;	column_pins -> Y+18
                 ;	row_pins -> Y+14
                 ;	key_map -> Y+2
0016f9 e000      	LDI  R16,LOW(0)
                 _0x40005:
0016fa 3003      	CPI  R16,3
0016fb f5c0      	BRSH _0x40006
                 ; 0002 001C     {
                 ; 0002 001D         KEYPAD_PORT |= (1 << COL1_PIN) | (1 << COL2_PIN) | (1 << COL3_PIN);
0016fc b3e5      	IN   R30,0x15
0016fd 60e7      	ORI  R30,LOW(0x7)
0016fe bbe5      	OUT  0x15,R30
                 ; 0002 001E         KEYPAD_PORT &= ~(1 << column_pins[col]);
0016ff b215      	IN   R1,21
001700 2fe0      	MOV  R30,R16
001701 e0f0      	LDI  R31,0
001702 01de      	MOVW R26,R28
001703 9652      	ADIW R26,18
001704 0fae      	ADD  R26,R30
001705 1fbf      	ADC  R27,R31
001706 91ec      	LD   R30,X
001707 e0a1      	LDI  R26,LOW(1)
001708 940e 21f3 	CALL SUBOPT_0x6
00170a bbe5      	OUT  0x15,R30
                 ; 0002 001F 
                 ; 0002 0020         for (row = 0; row < 4; row++)
00170b e010      	LDI  R17,LOW(0)
                 _0x40008:
00170c 3014      	CPI  R17,4
00170d f520      	BRSH _0x40009
                 ; 0002 0021         {
                 ; 0002 0022             if (!(KEYPAD_PIN & (1 << row_pins[row])))
00170e 940e 22a2 	CALL SUBOPT_0x1C
001710 2da1      	MOV  R26,R1
001711 940e 21e4 	CALL SUBOPT_0x3
001713 f4e1      	BRNE _0x4000A
                 ; 0002 0023             {
                 ; 0002 0024                 delay_ms(10);
001714 e0aa      	LDI  R26,LOW(10)
001715 e0b0      	LDI  R27,0
001716 940e 23d2 	CALL _delay_ms
                 ; 0002 0025                 if (!(KEYPAD_PIN & (1 << row_pins[row])))
001718 940e 22a2 	CALL SUBOPT_0x1C
00171a 2da1      	MOV  R26,R1
00171b 940e 21e4 	CALL SUBOPT_0x3
00171d f491      	BRNE _0x4000B
                 ; 0002 0026                 {
                 ; 0002 0027                     while (!(KEYPAD_PIN & (1 << row_pins[row])));
                 _0x4000C:
00171e 940e 22a2 	CALL SUBOPT_0x1C
001720 2da1      	MOV  R26,R1
001721 940e 21e4 	CALL SUBOPT_0x3
001723 f3d1      	BREQ _0x4000C
                 ; 0002 0028                     return key_map[row][col];
001724 e0a3      	LDI  R26,LOW(3)
001725 9f1a      	MUL  R17,R26
001726 01f0      	MOVW R30,R0
001727 01de      	MOVW R26,R28
001728 9612      	ADIW R26,2
001729 0fae      	ADD  R26,R30
00172a 1fbf      	ADC  R27,R31
00172b 27ee      	CLR  R30
00172c 0fa0      	ADD  R26,R16
00172d 1fbe      	ADC  R27,R30
00172e 91ec      	LD   R30,X
00172f c005      	RJMP _0x2120014
                 ; 0002 0029                 }
                 ; 0002 002A             }
                 _0x4000B:
                 ; 0002 002B         }
                 _0x4000A:
001730 5f1f      	SUBI R17,-1
001731 cfda      	RJMP _0x40008
                 _0x40009:
                 ; 0002 002C     }
001732 5f0f      	SUBI R16,-1
001733 cfc6      	RJMP _0x40005
                 _0x40006:
                 ; 0002 002D 
                 ; 0002 002E     return 0;
001734 e0e0      	LDI  R30,LOW(0)
                 _0x2120014:
001735 8119      	LDD  R17,Y+1
001736 8108      	LDD  R16,Y+0
001737 9665      	ADIW R28,21
001738 9508      	RET
                 ; 0002 002F }
                 ; .FEND
                 ;
                 ;
                 ;
                 ;void test_keypad(void)
                 ; 0002 0034 {
                 ; 0002 0035     char key;
                 ; 0002 0036     char buf[2];
                 ; 0002 0037 
                 ; 0002 0038 
                 ; 0002 0039     glcd_clear();
                 ;	key -> R17
                 ;	buf -> Y+1
                 ; 0002 003A     glcd_outtextxy(0, 0, "Press a key...");
                 ; 0002 003B 
                 ; 0002 003C     while (1)
                 ; 0002 003D     {
                 ; 0002 003E         key = get_key();  //     
                 ; 0002 003F         if (key != 0)
                 ; 0002 0040         {
                 ; 0002 0041             glcd_clear();
                 ; 0002 0042             glcd_outtextxy(0, 0, "Key Pressed:");
                 ; 0002 0043 
                 ; 0002 0044             buf[0] = key;  //  
                 ; 0002 0045             buf[1] = '\0';
                 ; 0002 0046 
                 ; 0002 0047             glcd_outtextxy(0, 16, buf);  //   GLCD
                 ; 0002 0048             delay_ms(500);               //    
                 ; 0002 0049         }
                 ; 0002 004A     }
                 ; 0002 004B }
                 
                 	.DSEG
                 _0x4000F:
00063f           	.BYTE 0x1C
                 ;#include <stdlib.h>
                 ;#include <stdint.h>
                 ;#include <glcd.h>
                 ;#include <delay.h>
                 ;#include <string.h>
                 ;#include "common.h"
                 	#ifndef __SLEEP_DEFINED__
                 	#endif
                 ;#include "sim800.h"
                 ;
                 ;//#define BUFFER_SIZE 512
                 ;#define MAX_RETRY   3   //   
                 ;
                 ;
                 ;
                 ;//char value[16];
                 ;
                 ;char at_command[30];
                 ;char sim_number[15];
                 ;
                 ;//char buffer[BUFFER_SIZE];
                 ;uint8_t attempts = 0;
                 ;
                 ;
                 ;
                 ;void sim800_restart(void) {
                 ; 0003 0018 void sim800_restart(void) {
                 
                 	.CSEG
                 _sim800_restart:
                 ; .FSTART _sim800_restart
                 ; 0003 0019     glcd_clear();
001739 940e 21f8 	CALL SUBOPT_0x7
                 ; 0003 001A     glcd_outtextxy(0, 0, "Restarting SIM800...");
                +
00173b e5ab     +LDI R26 , LOW ( _0x60003 + ( 0 ) )
00173c e0b6     +LDI R27 , HIGH ( _0x60003 + ( 0 ) )
                 	__POINTW2MN _0x60003,0
00173d 940e 1e3d 	CALL _glcd_outtextxy
                 ; 0003 001B 
                 ; 0003 001C     // --- 1)  HTTP (  ) ---
                 ; 0003 001D     while (1) {
                 _0x60004:
                 ; 0003 001E         uart_buffer_reset();
00173f 940e 15cd 	CALL _uart_buffer_reset
                 ; 0003 001F         send_at_command("AT+HTTPTERM");
                +
001741 e7a0     +LDI R26 , LOW ( _0x60003 + ( 21 ) )
001742 e0b6     +LDI R27 , HIGH ( _0x60003 + ( 21 ) )
                 	__POINTW2MN _0x60003,21
001743 940e 22ab 	CALL SUBOPT_0x1D
                 ; 0003 0020         //  OK  ERROR     ( HTTP   ERROR )
                 ; 0003 0021         if (read_until_keyword_keep_all(buffer, BUFFER_SIZE, 2000, "OK")) break;
001745 940e 22ae 	CALL SUBOPT_0x1E
001747 940e 22b3 	CALL SUBOPT_0x1F
                +
001749 e7ac     +LDI R26 , LOW ( _0x60003 + ( 33 ) )
00174a e0b6     +LDI R27 , HIGH ( _0x60003 + ( 33 ) )
                 	__POINTW2MN _0x60003,33
00174b 940e 15d7 	CALL _read_until_keyword_keep_all
00174d 30e0      	CPI  R30,0
00174e f4b9      	BRNE _0x60006
                 ; 0003 0022         if (read_until_keyword_keep_all(buffer, BUFFER_SIZE, 1000, "ERROR")) break;
00174f 940e 2240 	CALL SUBOPT_0xF
001751 940e 22ae 	CALL SUBOPT_0x1E
                +
001753 eee8     +LDI R30 , LOW ( 0x3E8 )
001754 e0f3     +LDI R31 , HIGH ( 0x3E8 )
001755 e060     +LDI R22 , BYTE3 ( 0x3E8 )
001756 e070     +LDI R23 , BYTE4 ( 0x3E8 )
                 	__GETD1N 0x3E8
001757 940e 244d 	CALL __PUTPARD1
                +
001759 e7af     +LDI R26 , LOW ( _0x60003 + ( 36 ) )
00175a e0b6     +LDI R27 , HIGH ( _0x60003 + ( 36 ) )
                 	__POINTW2MN _0x60003,36
00175b 940e 15d7 	CALL _read_until_keyword_keep_all
00175d 30e0      	CPI  R30,0
00175e f439      	BRNE _0x60006
                 ; 0003 0023         glcd_outtextxy(0, 10, "Waiting HTTPTERM...");
00175f 940e 2288 	CALL SUBOPT_0x17
                +
001761 e8a5     +LDI R26 , LOW ( _0x60003 + ( 42 ) )
001762 e0b6     +LDI R27 , HIGH ( _0x60003 + ( 42 ) )
                 	__POINTW2MN _0x60003,42
001763 940e 229c 	CALL SUBOPT_0x1B
                 ; 0003 0024         delay_ms(100);
                 ; 0003 0025     }
001765 cfd9      	RJMP _0x60004
                 _0x60006:
                 ; 0003 0026 
                 ; 0003 0027     // --- 2)  SAPBR (bearer) ---
                 ; 0003 0028     while (1) {
                 _0x60009:
                 ; 0003 0029         uart_buffer_reset();
001766 940e 15cd 	CALL _uart_buffer_reset
                 ; 0003 002A         send_at_command("AT+SAPBR=0,1");   // close bearer
                +
001768 e9a9     +LDI R26 , LOW ( _0x60003 + ( 62 ) )
001769 e0b6     +LDI R27 , HIGH ( _0x60003 + ( 62 ) )
                 	__POINTW2MN _0x60003,62
00176a 940e 22ab 	CALL SUBOPT_0x1D
                 ; 0003 002B         if (read_until_keyword_keep_all(buffer, BUFFER_SIZE, 3000, "OK")) break;
00176c 940e 22ae 	CALL SUBOPT_0x1E
00176e 940e 22ba 	CALL SUBOPT_0x20
                +
001770 eaa6     +LDI R26 , LOW ( _0x60003 + ( 75 ) )
001771 e0b6     +LDI R27 , HIGH ( _0x60003 + ( 75 ) )
                 	__POINTW2MN _0x60003,75
001772 940e 15d7 	CALL _read_until_keyword_keep_all
001774 30e0      	CPI  R30,0
001775 f439      	BRNE _0x6000B
                 ; 0003 002C         glcd_outtextxy(0, 10, "Waiting SAPBR=0,1...");
001776 940e 2288 	CALL SUBOPT_0x17
                +
001778 eaa9     +LDI R26 , LOW ( _0x60003 + ( 78 ) )
001779 e0b6     +LDI R27 , HIGH ( _0x60003 + ( 78 ) )
                 	__POINTW2MN _0x60003,78
00177a 940e 229c 	CALL SUBOPT_0x1B
                 ; 0003 002D         delay_ms(100);
                 ; 0003 002E     }
00177c cfe9      	RJMP _0x60009
                 _0x6000B:
                 ; 0003 002F 
                 ; 0003 0030     // --- 3)    SAPBR   (  ) ---
                 ; 0003 0031     {
                 ; 0003 0032         int ok = 0;
                 ; 0003 0033         while (!ok) {
00177d 9722      	SBIW R28,2
00177e e0e0      	LDI  R30,LOW(0)
00177f 83e8      	ST   Y,R30
001780 83e9      	STD  Y+1,R30
                 ;	ok -> Y+0
                 _0x6000D:
001781 81e8      	LD   R30,Y
001782 81f9      	LDD  R31,Y+1
001783 9730      	SBIW R30,0
001784 f5a1      	BRNE _0x6000F
                 ; 0003 0034             uart_buffer_reset();
001785 940e 15cd 	CALL _uart_buffer_reset
                 ; 0003 0035             send_at_command("AT+SAPBR=2,1"); // query
                +
001787 ebae     +LDI R26 , LOW ( _0x60003 + ( 99 ) )
001788 e0b6     +LDI R27 , HIGH ( _0x60003 + ( 99 ) )
                 	__POINTW2MN _0x60003,99
001789 940e 22ab 	CALL SUBOPT_0x1D
                 ; 0003 0036             if (read_until_keyword_keep_all(buffer, BUFFER_SIZE, 2000, "SAPBR")) {
00178b 940e 22ae 	CALL SUBOPT_0x1E
00178d 940e 22b3 	CALL SUBOPT_0x1F
                +
00178f ecab     +LDI R26 , LOW ( _0x60003 + ( 112 ) )
001790 e0b6     +LDI R27 , HIGH ( _0x60003 + ( 112 ) )
                 	__POINTW2MN _0x60003,112
001791 940e 15d7 	CALL _read_until_keyword_keep_all
001793 30e0      	CPI  R30,0
001794 f0e9      	BREQ _0x60010
                 ; 0003 0037                 //     +SAPBR: 1,3,"0.0.0.0"  +SAPBR: 1,0,"0.0.0.0"
                 ; 0003 0038                 //  IP 0.0.0.0  status != 1    
                 ; 0003 0039                 if (strstr(buffer, "0.0.0.0") || strstr(buffer, ",0,") || strstr(buffer, ",3,")) {
001795 940e 2240 	CALL SUBOPT_0xF
                +
001797 eda1     +LDI R26 , LOW ( _0x60003 + ( 118 ) )
001798 e0b6     +LDI R27 , HIGH ( _0x60003 + ( 118 ) )
                 	__POINTW2MN _0x60003,118
001799 940e 20a5 	CALL _strstr
00179b 9730      	SBIW R30,0
00179c f481      	BRNE _0x60012
00179d 940e 2240 	CALL SUBOPT_0xF
                +
00179f eda9     +LDI R26 , LOW ( _0x60003 + ( 126 ) )
0017a0 e0b6     +LDI R27 , HIGH ( _0x60003 + ( 126 ) )
                 	__POINTW2MN _0x60003,126
0017a1 940e 20a5 	CALL _strstr
0017a3 9730      	SBIW R30,0
0017a4 f441      	BRNE _0x60012
0017a5 940e 2240 	CALL SUBOPT_0xF
                +
0017a7 edad     +LDI R26 , LOW ( _0x60003 + ( 130 ) )
0017a8 e0b6     +LDI R27 , HIGH ( _0x60003 + ( 130 ) )
                 	__POINTW2MN _0x60003,130
0017a9 940e 20a5 	CALL _strstr
0017ab 9730      	SBIW R30,0
0017ac f029      	BREQ _0x60011
                 _0x60012:
                 ; 0003 003A                     ok = 1; //        connected 
0017ad e0e1      	LDI  R30,LOW(1)
0017ae e0f0      	LDI  R31,HIGH(1)
0017af 83e8      	ST   Y,R30
0017b0 83f9      	STD  Y+1,R31
                 ; 0003 003B                     break;
0017b1 c007      	RJMP _0x6000F
                 ; 0003 003C                 }
                 ; 0003 003D             }
                 _0x60011:
                 ; 0003 003E             //       Connected      
                 ; 0003 003F             glcd_outtextxy(0, 10, "Checking SAPBR closed...");
                 _0x60010:
0017b2 940e 2288 	CALL SUBOPT_0x17
                +
0017b4 eea1     +LDI R26 , LOW ( _0x60003 + ( 134 ) )
0017b5 e0b6     +LDI R27 , HIGH ( _0x60003 + ( 134 ) )
                 	__POINTW2MN _0x60003,134
0017b6 940e 229c 	CALL SUBOPT_0x1B
                 ; 0003 0040             delay_ms(100);
                 ; 0003 0041         }
0017b8 cfc8      	RJMP _0x6000D
                 _0x6000F:
                 ; 0003 0042     }
0017b9 9622      	ADIW R28,2
                 ; 0003 0043 
                 ; 0003 0044     // --- 4) detach  GPRS ---
                 ; 0003 0045     while (1) {
                 _0x60014:
                 ; 0003 0046         uart_buffer_reset();
0017ba 940e 15cd 	CALL _uart_buffer_reset
                 ; 0003 0047         send_at_command("AT+CGATT=0");     // detach
                +
0017bc efaa     +LDI R26 , LOW ( _0x60003 + ( 159 ) )
0017bd e0b6     +LDI R27 , HIGH ( _0x60003 + ( 159 ) )
                 	__POINTW2MN _0x60003,159
0017be 940e 22ab 	CALL SUBOPT_0x1D
                 ; 0003 0048         if (read_until_keyword_keep_all(buffer, BUFFER_SIZE, 3000, "OK")) break;
0017c0 940e 22ae 	CALL SUBOPT_0x1E
0017c2 940e 22ba 	CALL SUBOPT_0x20
                +
0017c4 e0a5     +LDI R26 , LOW ( _0x60003 + ( 170 ) )
0017c5 e0b7     +LDI R27 , HIGH ( _0x60003 + ( 170 ) )
                 	__POINTW2MN _0x60003,170
0017c6 940e 15d7 	CALL _read_until_keyword_keep_all
0017c8 30e0      	CPI  R30,0
0017c9 f439      	BRNE _0x60016
                 ; 0003 0049         glcd_outtextxy(0, 10, "Waiting CGATT=0...");
0017ca 940e 2288 	CALL SUBOPT_0x17
                +
0017cc e0a8     +LDI R26 , LOW ( _0x60003 + ( 173 ) )
0017cd e0b7     +LDI R27 , HIGH ( _0x60003 + ( 173 ) )
                 	__POINTW2MN _0x60003,173
0017ce 940e 229c 	CALL SUBOPT_0x1B
                 ; 0003 004A         delay_ms(100);
                 ; 0003 004B     }
0017d0 cfe9      	RJMP _0x60014
                 _0x60016:
                 ; 0003 004C 
                 ; 0003 004D     // --- 5)    (CFUN=1,1)        ---
                 ; 0003 004E     //                  AT    .
                 ; 0003 004F     while (1) {
                 ; 0003 0050         uart_buffer_reset();
0017d1 940e 15cd 	CALL _uart_buffer_reset
                 ; 0003 0051         send_at_command("AT+CFUN=1,1");
                +
0017d3 e1ab     +LDI R26 , LOW ( _0x60003 + ( 192 ) )
0017d4 e0b7     +LDI R27 , HIGH ( _0x60003 + ( 192 ) )
                 	__POINTW2MN _0x60003,192
0017d5 940e 22ab 	CALL SUBOPT_0x1D
                 ; 0003 0052         //   OK               .
                 ; 0003 0053         //   OK        "AT"  .
                 ; 0003 0054         read_until_keyword_keep_all(buffer, BUFFER_SIZE, 2000, "OK"); // (  )
0017d7 940e 22ae 	CALL SUBOPT_0x1E
0017d9 940e 22b3 	CALL SUBOPT_0x1F
                +
0017db e2a7     +LDI R26 , LOW ( _0x60003 + ( 204 ) )
0017dc e0b7     +LDI R27 , HIGH ( _0x60003 + ( 204 ) )
                 	__POINTW2MN _0x60003,204
0017dd 940e 15d7 	CALL _read_until_keyword_keep_all
                 ; 0003 0055         //       AT  
                 ; 0003 0056         glcd_outtextxy(0, 10, "Rebooting, wait for AT...");
0017df 940e 2288 	CALL SUBOPT_0x17
                +
0017e1 e2aa     +LDI R26 , LOW ( _0x60003 + ( 207 ) )
0017e2 e0b7     +LDI R27 , HIGH ( _0x60003 + ( 207 ) )
                 	__POINTW2MN _0x60003,207
0017e3 940e 1e3d 	CALL _glcd_outtextxy
                 ; 0003 0057         while (1) {
                 _0x6001B:
                 ; 0003 0058             uart_buffer_reset();
0017e5 940e 15cd 	CALL _uart_buffer_reset
                 ; 0003 0059             send_at_command("AT");
                +
0017e7 e4a4     +LDI R26 , LOW ( _0x60003 + ( 233 ) )
0017e8 e0b7     +LDI R27 , HIGH ( _0x60003 + ( 233 ) )
                 	__POINTW2MN _0x60003,233
0017e9 940e 22ab 	CALL SUBOPT_0x1D
                 ; 0003 005A             if (read_until_keyword_keep_all(buffer, BUFFER_SIZE, 2000, "OK")) {
0017eb 940e 22ae 	CALL SUBOPT_0x1E
0017ed 940e 22b3 	CALL SUBOPT_0x1F
                +
0017ef e4a7     +LDI R26 , LOW ( _0x60003 + ( 236 ) )
0017f0 e0b7     +LDI R27 , HIGH ( _0x60003 + ( 236 ) )
                 	__POINTW2MN _0x60003,236
0017f1 940e 15d7 	CALL _read_until_keyword_keep_all
0017f3 30e0      	CPI  R30,0
0017f4 f419      	BRNE _0x6001F
                 ; 0003 005B                 //      
                 ; 0003 005C                 goto after_reboot;
                 ; 0003 005D             }
                 ; 0003 005E             //         delay  
                 ; 0003 005F             delay_ms(100);
0017f5 940e 22c1 	CALL SUBOPT_0x21
                 ; 0003 0060         }
0017f7 cfed      	RJMP _0x6001B
                 ; 0003 0061     }
                 ; 0003 0062 after_reboot:
                 _0x6001F:
                 ; 0003 0063 
                 ; 0003 0064     // --- 6)   Echo ---
                 ; 0003 0065     while (1) {
                 _0x60020:
                 ; 0003 0066         uart_buffer_reset();
0017f8 940e 15cd 	CALL _uart_buffer_reset
                 ; 0003 0067         send_at_command("ATE0");
                +
0017fa e4aa     +LDI R26 , LOW ( _0x60003 + ( 239 ) )
0017fb e0b7     +LDI R27 , HIGH ( _0x60003 + ( 239 ) )
                 	__POINTW2MN _0x60003,239
0017fc 940e 22ab 	CALL SUBOPT_0x1D
                 ; 0003 0068         if (read_until_keyword_keep_all(buffer, BUFFER_SIZE, 2000, "OK")) break;
0017fe 940e 22ae 	CALL SUBOPT_0x1E
001800 940e 22b3 	CALL SUBOPT_0x1F
                +
001802 e4af     +LDI R26 , LOW ( _0x60003 + ( 244 ) )
001803 e0b7     +LDI R27 , HIGH ( _0x60003 + ( 244 ) )
                 	__POINTW2MN _0x60003,244
001804 940e 15d7 	CALL _read_until_keyword_keep_all
001806 30e0      	CPI  R30,0
001807 f439      	BRNE _0x60022
                 ; 0003 0069         glcd_outtextxy(0, 10, "Waiting ATE0...");
001808 940e 2288 	CALL SUBOPT_0x17
                +
00180a e5a2     +LDI R26 , LOW ( _0x60003 + ( 247 ) )
00180b e0b7     +LDI R27 , HIGH ( _0x60003 + ( 247 ) )
                 	__POINTW2MN _0x60003,247
00180c 940e 229c 	CALL SUBOPT_0x1B
                 ; 0003 006A         delay_ms(100);
                 ; 0003 006B     }
00180e cfe9      	RJMP _0x60020
                 _0x60022:
                 ; 0003 006C 
                 ; 0003 006D     // --- 7)    ---
                 ; 0003 006E     while (1) {
                 _0x60024:
                 ; 0003 006F         uart_buffer_reset();
00180f 940e 15cd 	CALL _uart_buffer_reset
                 ; 0003 0070         send_at_command("AT");
                +
001811 e6a2     +LDI R26 , LOW ( _0x60003 + ( 263 ) )
001812 e0b7     +LDI R27 , HIGH ( _0x60003 + ( 263 ) )
                 	__POINTW2MN _0x60003,263
001813 940e 22ab 	CALL SUBOPT_0x1D
                 ; 0003 0071         if (read_until_keyword_keep_all(buffer, BUFFER_SIZE, 2000, "OK")) break;
001815 940e 22ae 	CALL SUBOPT_0x1E
001817 940e 22b3 	CALL SUBOPT_0x1F
                +
001819 e6a5     +LDI R26 , LOW ( _0x60003 + ( 266 ) )
00181a e0b7     +LDI R27 , HIGH ( _0x60003 + ( 266 ) )
                 	__POINTW2MN _0x60003,266
00181b 940e 15d7 	CALL _read_until_keyword_keep_all
00181d 30e0      	CPI  R30,0
00181e f439      	BRNE _0x60026
                 ; 0003 0072         glcd_outtextxy(0, 10, "Final AT check...");
00181f 940e 2288 	CALL SUBOPT_0x17
                +
001821 e6a8     +LDI R26 , LOW ( _0x60003 + ( 269 ) )
001822 e0b7     +LDI R27 , HIGH ( _0x60003 + ( 269 ) )
                 	__POINTW2MN _0x60003,269
001823 940e 229c 	CALL SUBOPT_0x1B
                 ; 0003 0073         delay_ms(100);
                 ; 0003 0074     }
001825 cfe9      	RJMP _0x60024
                 _0x60026:
                 ; 0003 0075 
                 ; 0003 0076     glcd_outtextxy(0, 20, "Restart Done!");
001826 940e 228d 	CALL SUBOPT_0x18
                +
001828 e7aa     +LDI R26 , LOW ( _0x60003 + ( 287 ) )
001829 e0b7     +LDI R27 , HIGH ( _0x60003 + ( 287 ) )
                 	__POINTW2MN _0x60003,287
00182a 940e 1e3d 	CALL _glcd_outtextxy
                 ; 0003 0077 }
00182c 9508      	RET
                 ; .FEND
                 
                 	.DSEG
                 _0x60003:
00065b           	.BYTE 0x12D
                 ;
                 ;
                 ;
                 ;
                 ;
                 ;
                 ;//void sim800_restart(void) {
                 ;//
                 ;//    glcd_clear();
                 ;//    glcd_outtextxy(0, 0, "Restarting SIM800...");
                 ;//
                 ;//    // ---   UART ---
                 ;//    send_at_command("AT+HTTPTERM");
                 ;//    delay_ms(50);
                 ;//
                 ;//    send_at_command("AT+SAPBR=0,1");   //   GPRS
                 ;//    delay_ms(50);
                 ;//
                 ;//    send_at_command("AT+SAPBR=2,1");
                 ;//    delay_ms(50);
                 ;//
                 ;//
                 ;//    send_at_command("AT+CGATT=0");
                 ;//    delay_ms(50);
                 ;//
                 ;////
                 ;////    send_at_command("AT+CGATT=1");
                 ;////    delay_ms(50);
                 ;//
                 ;//    // ---    () ---                      //   
                 ;//
                 ;////    send_at_command("AT+CRESET");
                 ;////    delay_ms(100);
                 ;//
                 ;//    send_at_command("AT+CFUN=0");  //  
                 ;//    delay_ms(100);                       //   
                 ;//
                 ;//
                 ;//    send_at_command("AT+CFUN=1");  //  
                 ;//    delay_ms(100);                       //   
                 ;//
                 ;//
                 ;////    send_at_command("AT+CFUN=1,1");  //  
                 ;////    delay_ms(2000);
                 ;//
                 ;//    // ---   Echo ---
                 ;//    uart_buffer_reset();
                 ;//    send_at_command("ATE0");
                 ;//    delay_ms(50);
                 ;//
                 ;//    // ---     ---
                 ;//    uart_buffer_reset();
                 ;//    send_at_command("AT");
                 ;//    if (!read_until_keyword_keep_all(buffer, BUFFER_SIZE, 2000, "OK")) {
                 ;//        glcd_outtextxy(0, 10, "SIM800 not responding!");
                 ;//        return;  //   
                 ;//    }
                 ;//
                 ;//}
                 ;
                 ;
                 ;unsigned char check_sim(void) {
                 ; 0003 00B5 unsigned char check_sim(void) {
                 
                 	.CSEG
                 _check_sim:
                 ; .FSTART _check_sim
                 ; 0003 00B6     int stat;
                 ; 0003 00B7     char *comma;
                 ; 0003 00B8 
                 ; 0003 00B9     glcd_clear();
00182d 940e 247a 	CALL __SAVELOCR4
                 ;	stat -> R16,R17
                 ;	*comma -> R18,R19
00182f 940e 1ac1 	CALL _glcd_clear
                 ; 0003 00BA     // ---    ---
                 ; 0003 00BB     uart_buffer_reset();
001831 940e 15cd 	CALL _uart_buffer_reset
                 ; 0003 00BC     send_at_command("AT+CPIN?");
                +
001833 e8a8     +LDI R26 , LOW ( _0x60028 + ( 0 ) )
001834 e0b7     +LDI R27 , HIGH ( _0x60028 + ( 0 ) )
                 	__POINTW2MN _0x60028,0
001835 940e 22ab 	CALL SUBOPT_0x1D
                 ; 0003 00BD     if (read_until_keyword_keep_all(buffer, BUFFER_SIZE, 5000, "CPIN")) {
001837 940e 2245 	CALL SUBOPT_0x10
                +
001839 e9a1     +LDI R26 , LOW ( _0x60028 + ( 9 ) )
00183a e0b7     +LDI R27 , HIGH ( _0x60028 + ( 9 ) )
                 	__POINTW2MN _0x60028,9
00183b 940e 15d7 	CALL _read_until_keyword_keep_all
00183d 30e0      	CPI  R30,0
00183e f059      	BREQ _0x60029
                 ; 0003 00BE //        glcd_outtextxy(0, 0, buffer);
                 ; 0003 00BF //        delay_ms(5000);
                 ; 0003 00C0         if (extract_field_after_keyword(buffer, "+CPIN:", 0, value, sizeof(value))) {
00183f 940e 2240 	CALL SUBOPT_0xF
                +
001841 e9e6     +LDI R30 , LOW ( _0x60028 + ( 14 ) )
001842 e0f7     +LDI R31 , HIGH ( _0x60028 + ( 14 ) )
                 	__POINTW1MN _0x60028,14
001843 940e 22c5 	CALL SUBOPT_0x22
001845 f011      	BREQ _0x6002A
                 ; 0003 00C1             glcd_outtextxy(0, 16, value);  //  READY  PIN
001846 940e 22d5 	CALL SUBOPT_0x23
                 ; 0003 00C2         }
                 ; 0003 00C3         delay_ms(100);
                 _0x6002A:
001848 940e 22c1 	CALL SUBOPT_0x21
                 ; 0003 00C4     }
                 ; 0003 00C5 
                 ; 0003 00C6 //    uart_buffer_reset();
                 ; 0003 00C7 //    send_at_command("AT+CREG?");
                 ; 0003 00C8 //    if (read_until_keyword_keep_all(buffer, BUFFER_SIZE, 5000, "+CREG")) {
                 ; 0003 00C9 //        glcd_outtextxy(0, 0, buffer);
                 ; 0003 00CA //        if (extract_value_after_keyword(buffer, "+CREG:", value, sizeof(value))) {
                 ; 0003 00CB //            glcd_outtextxy(0, 16, value);  //  READY  PIN
                 ; 0003 00CC //        }
                 ; 0003 00CD //    }
                 ; 0003 00CE 
                 ; 0003 00CF     // ---       ---
                 ; 0003 00D0     glcd_clear();
                 _0x60029:
00184a d276      	RCALL _glcd_clear
                 ; 0003 00D1     do {
                 _0x6002C:
                 ; 0003 00D2         //glcd_clear();
                 ; 0003 00D3         uart_buffer_reset();
00184b 940e 15cd 	CALL _uart_buffer_reset
                 ; 0003 00D4         send_at_command("AT+CREG?");
                +
00184d e9ad     +LDI R26 , LOW ( _0x60028 + ( 21 ) )
00184e e0b7     +LDI R27 , HIGH ( _0x60028 + ( 21 ) )
                 	__POINTW2MN _0x60028,21
00184f 940e 22ab 	CALL SUBOPT_0x1D
                 ; 0003 00D5         if (read_until_keyword_keep_all(buffer, BUFFER_SIZE, 2000, "CREG")) {
001851 940e 22ae 	CALL SUBOPT_0x1E
001853 940e 22b3 	CALL SUBOPT_0x1F
                +
001855 eaa6     +LDI R26 , LOW ( _0x60028 + ( 30 ) )
001856 e0b7     +LDI R27 , HIGH ( _0x60028 + ( 30 ) )
                 	__POINTW2MN _0x60028,30
001857 940e 15d7 	CALL _read_until_keyword_keep_all
001859 30e0      	CPI  R30,0
00185a f071      	BREQ _0x6002E
                 ; 0003 00D6 //            glcd_outtextxy(0, 10, buffer);  //   
                 ; 0003 00D7 
                 ; 0003 00D8 
                 ; 0003 00D9             if (extract_field_after_keyword(buffer, "+CREG:", 1, value, sizeof(value))) {
00185b 940e 2240 	CALL SUBOPT_0xF
                +
00185d eaeb     +LDI R30 , LOW ( _0x60028 + ( 35 ) )
00185e e0f7     +LDI R31 , HIGH ( _0x60028 + ( 35 ) )
                 	__POINTW1MN _0x60028,35
00185f 940e 2250 	CALL SUBOPT_0x11
001861 9730      	SBIW R30,0
001862 f031      	BREQ _0x6002F
                 ; 0003 00DA //                glcd_outtextxy(0, 10, value);
                 ; 0003 00DB //                delay_ms(100);
                 ; 0003 00DC //                stat = atoi(value);
                 ; 0003 00DD                 if (atoi(value) == 1) break;
001863 940e 22dd 	CALL SUBOPT_0x24
001865 30e1      	CPI  R30,LOW(0x1)
001866 e0a0      	LDI  R26,HIGH(0x1)
001867 07fa      	CPC  R31,R26
001868 f049      	BREQ _0x6002D
                 ; 0003 00DE             }
                 ; 0003 00DF         }
                 _0x6002F:
                 ; 0003 00E0         glcd_outtextxy(0, 15, "Waiting for network...");
                 _0x6002E:
001869 e0e0      	LDI  R30,LOW(0)
00186a 93ea      	ST   -Y,R30
00186b e0ef      	LDI  R30,LOW(15)
00186c 93ea      	ST   -Y,R30
                +
00186d eba2     +LDI R26 , LOW ( _0x60028 + ( 42 ) )
00186e e0b7     +LDI R27 , HIGH ( _0x60028 + ( 42 ) )
                 	__POINTW2MN _0x60028,42
00186f 940e 1e3d 	CALL _glcd_outtextxy
                 ; 0003 00E1 
                 ; 0003 00E2     } while (1);
001871 cfd9      	RJMP _0x6002C
                 _0x6002D:
                 ; 0003 00E3 
                 ; 0003 00E4     glcd_clear();
001872 d24e      	RCALL _glcd_clear
                 ; 0003 00E5     glcd_outtextxy(0, 20, "Network OK!");
001873 940e 228d 	CALL SUBOPT_0x18
                +
001875 eca9     +LDI R26 , LOW ( _0x60028 + ( 65 ) )
001876 e0b7     +LDI R27 , HIGH ( _0x60028 + ( 65 ) )
                 	__POINTW2MN _0x60028,65
001877 940e 229c 	CALL SUBOPT_0x1B
                 ; 0003 00E6     delay_ms(100);
                 ; 0003 00E7 
                 ; 0003 00E8 //    uart_buffer_reset();
                 ; 0003 00E9 //    send_at_command("AT+CUSD=1,\"*733*2#\"");
                 ; 0003 00EA //    if (read_until_keyword_keep_all(buffer, sizeof(buffer), 3000, "CUSD")) {
                 ; 0003 00EB //        glcd_clear();
                 ; 0003 00EC //        glcd_outtextxy(0, 0, buffer);  //   GLCD   
                 ; 0003 00ED //        delay_ms(1000);        //   
                 ; 0003 00EE //
                 ; 0003 00EF //        if (extract_field_after_keyword(buffer, "+CUSD:", 1, sim_number, sizeof(sim_number))){
                 ; 0003 00F0 //            glcd_clear();
                 ; 0003 00F1 //            glcd_outtextxy(0, 0, sim_number);  //   GLCD   
                 ; 0003 00F2 //            delay_ms(1000);
                 ; 0003 00F3 //        }
                 ; 0003 00F4 //    }
                 ; 0003 00F5 
                 ; 0003 00F6     return 1;  // 
001879 e0e1      	LDI  R30,LOW(1)
00187a c268      	RJMP _0x212000D
                 ; 0003 00F7 
                 ; 0003 00F8 }
                 ; .FEND
                 
                 	.DSEG
                 _0x60028:
000788           	.BYTE 0x4D
                 ;
                 ;
                 ;
                 ;unsigned char check_signal_quality(void) {
                 ; 0003 00FC unsigned char check_signal_quality(void) {
                 
                 	.CSEG
                 _check_signal_quality:
                 ; .FSTART _check_signal_quality
                 ; 0003 00FD 
                 ; 0003 00FE     uart_buffer_reset();
00187b 940e 15cd 	CALL _uart_buffer_reset
                 ; 0003 00FF     send_at_command("AT+CSQ");
                +
00187d eda5     +LDI R26 , LOW ( _0x60031 + ( 0 ) )
00187e e0b7     +LDI R27 , HIGH ( _0x60031 + ( 0 ) )
                 	__POINTW2MN _0x60031,0
00187f 940e 22ab 	CALL SUBOPT_0x1D
                 ; 0003 0100 
                 ; 0003 0101     if (read_until_keyword_keep_all(buffer, BUFFER_SIZE, 5000, "CSQ")) {
001881 940e 2245 	CALL SUBOPT_0x10
                +
001883 edac     +LDI R26 , LOW ( _0x60031 + ( 7 ) )
001884 e0b7     +LDI R27 , HIGH ( _0x60031 + ( 7 ) )
                 	__POINTW2MN _0x60031,7
001885 940e 15d7 	CALL _read_until_keyword_keep_all
001887 30e0      	CPI  R30,0
001888 f091      	BREQ _0x60032
                 ; 0003 0102 //        glcd_clear();
                 ; 0003 0103 //        glcd_outtextxy(0, 0, buffer);
                 ; 0003 0104 
                 ; 0003 0105         if (extract_field_after_keyword(buffer, "+CSQ:", 0, value, sizeof(value))) {
001889 940e 2240 	CALL SUBOPT_0xF
                +
00188b eee0     +LDI R30 , LOW ( _0x60031 + ( 11 ) )
00188c e0f7     +LDI R31 , HIGH ( _0x60031 + ( 11 ) )
                 	__POINTW1MN _0x60031,11
00188d 940e 22c5 	CALL SUBOPT_0x22
00188f f059      	BREQ _0x60033
                 ; 0003 0106 //            int csq = atoi(value);  //    
                 ; 0003 0107             glcd_clear();
001890 d230      	RCALL _glcd_clear
                 ; 0003 0108             glcd_outtextxy(0, 16, value);  //   
001891 940e 22d5 	CALL SUBOPT_0x23
                 ; 0003 0109             delay_ms(500);
001893 940e 2205 	CALL SUBOPT_0x9
                 ; 0003 010A             //stat = atoi(value);
                 ; 0003 010B             if (atoi(value) < 5) {
001895 940e 22dd 	CALL SUBOPT_0x24
001897 9735      	SBIW R30,5
001898 f40c      	BRGE _0x60034
                 ; 0003 010C                 //   =>   
                 ; 0003 010D                 return 0;
001899 c0c9      	RJMP _0x2120010
                 ; 0003 010E             } else {
                 _0x60034:
                 ; 0003 010F                 return 1;
00189a c0bc      	RJMP _0x2120012
                 ; 0003 0110             }
                 ; 0003 0111         }
                 ; 0003 0112     }
                 _0x60033:
                 ; 0003 0113     return 0; //    
                 _0x60032:
00189b c0c7      	RJMP _0x2120010
                 ; 0003 0114 }
                 ; .FEND
                 
                 	.DSEG
                 _0x60031:
0007d5           	.BYTE 0x11
                 ;
                 ;
                 ;
                 ;
                 ;unsigned char check_signal_with_restart() {
                 ; 0003 0119 unsigned char check_signal_with_restart() {
                 
                 	.CSEG
                 _check_signal_with_restart:
                 ; .FSTART _check_signal_with_restart
                 ; 0003 011A     int i;
                 ; 0003 011B     for (i = 0; i < MAX_RETRY; i++) {
00189c 931a      	ST   -Y,R17
00189d 930a      	ST   -Y,R16
                 ;	i -> R16,R17
                +
00189e e000     +LDI R16 , LOW ( 0 )
00189f e010     +LDI R17 , HIGH ( 0 )
                 	__GETWRN 16,17,0
                 _0x60037:
                +
0018a0 3003     +CPI R16 , LOW ( 3 )
0018a1 e0e0     +LDI R30 , HIGH ( 3 )
0018a2 071e     +CPC R17 , R30
                 	__CPWRN 16,17,3
0018a3 f454      	BRGE _0x60038
                 ; 0003 011C         if (check_signal_quality()) {
0018a4 dfd6      	RCALL _check_signal_quality
0018a5 30e0      	CPI  R30,0
0018a6 f011      	BREQ _0x60039
                 ; 0003 011D             //      
                 ; 0003 011E             return 1;
0018a7 e0e1      	LDI  R30,LOW(1)
0018a8 c013      	RJMP _0x2120013
                 ; 0003 011F         }
                 ; 0003 0120         //   :
                 ; 0003 0121         sim800_restart();   //  
                 _0x60039:
0018a9 de8f      	RCALL _sim800_restart
                 ; 0003 0122         check_sim();
0018aa df82      	RCALL _check_sim
                 ; 0003 0123     }
                +
0018ab 5f0f     +SUBI R16 , LOW ( - 1 )
0018ac 4f1f     +SBCI R17 , HIGH ( - 1 )
                 	__ADDWRN 16,17,1
0018ad cff2      	RJMP _0x60037
                 _0x60038:
                 ; 0003 0124     //       3     
                 ; 0003 0125     //       
                 ; 0003 0126     printf("No signal after %d retries!\n", MAX_RETRY);
                +
0018ae e8ec     +LDI R30 , LOW ( 2 * _0x60000 + ( 370 ) )
0018af e1ff     +LDI R31 , HIGH ( 2 * _0x60000 + ( 370 ) )
                 	__POINTW1FN _0x60000,370
0018b0 93fa      	ST   -Y,R31
0018b1 93ea      	ST   -Y,R30
                +
0018b2 e0e3     +LDI R30 , LOW ( 0x3 )
0018b3 e0f0     +LDI R31 , HIGH ( 0x3 )
0018b4 e060     +LDI R22 , BYTE3 ( 0x3 )
0018b5 e070     +LDI R23 , BYTE4 ( 0x3 )
                 	__GETD1N 0x3
0018b6 940e 244d 	CALL __PUTPARD1
0018b8 e084      	LDI  R24,4
0018b9 940e 201f 	CALL _printf
0018bb 9626      	ADIW R28,6
                 ; 0003 0127 }
                 _0x2120013:
0018bc 9109      	LD   R16,Y+
0018bd 9119      	LD   R17,Y+
0018be 9508      	RET
                 ; .FEND
                 ;
                 ;
                 ;
                 ;unsigned char init_sms(void)
                 ; 0003 012C {
                 _init_sms:
                 ; .FSTART _init_sms
                 ; 0003 012D     glcd_clear();
0018bf 940e 21f8 	CALL SUBOPT_0x7
                 ; 0003 012E     glcd_outtextxy(0, 0, "Setting SMS Mode...");
                +
0018c1 eea6     +LDI R26 , LOW ( _0x6003A + ( 0 ) )
0018c2 e0b7     +LDI R27 , HIGH ( _0x6003A + ( 0 ) )
                 	__POINTW2MN _0x6003A,0
0018c3 940e 1e3d 	CALL _glcd_outtextxy
                 ; 0003 012F 
                 ; 0003 0130     send_at_command("AT+CFUN=1");
                +
0018c5 efaa     +LDI R26 , LOW ( _0x6003A + ( 20 ) )
0018c6 e0b7     +LDI R27 , HIGH ( _0x6003A + ( 20 ) )
                 	__POINTW2MN _0x6003A,20
0018c7 940e 22e1 	CALL SUBOPT_0x25
                 ; 0003 0131     delay_ms(50);
                 ; 0003 0132 
                 ; 0003 0133     send_at_command("AT+CSCLK=0");
                +
0018c9 e0a4     +LDI R26 , LOW ( _0x6003A + ( 30 ) )
0018ca e0b8     +LDI R27 , HIGH ( _0x6003A + ( 30 ) )
                 	__POINTW2MN _0x6003A,30
0018cb 940e 22e1 	CALL SUBOPT_0x25
                 ; 0003 0134     delay_ms(50);
                 ; 0003 0135 
                 ; 0003 0136     //  SMS
                 ; 0003 0137     send_at_command("AT+CMGF=1");
                +
0018cd e0af     +LDI R26 , LOW ( _0x6003A + ( 41 ) )
0018ce e0b8     +LDI R27 , HIGH ( _0x6003A + ( 41 ) )
                 	__POINTW2MN _0x6003A,41
0018cf 940e 22e1 	CALL SUBOPT_0x25
                 ; 0003 0138     delay_ms(50);
                 ; 0003 0139 
                 ; 0003 013A     send_at_command("AT+CNMI=2,2,0,0,0");
                +
0018d1 e1a9     +LDI R26 , LOW ( _0x6003A + ( 51 ) )
0018d2 e0b8     +LDI R27 , HIGH ( _0x6003A + ( 51 ) )
                 	__POINTW2MN _0x6003A,51
0018d3 940e 22e1 	CALL SUBOPT_0x25
                 ; 0003 013B     delay_ms(50);
                 ; 0003 013C 
                 ; 0003 013D     send_at_command("AT+CMGDA=\"DEL ALL\"");
                +
0018d5 e2ab     +LDI R26 , LOW ( _0x6003A + ( 69 ) )
0018d6 e0b8     +LDI R27 , HIGH ( _0x6003A + ( 69 ) )
                 	__POINTW2MN _0x6003A,69
0018d7 940e 22e1 	CALL SUBOPT_0x25
                 ; 0003 013E     delay_ms(50);
                 ; 0003 013F 
                 ; 0003 0140     glcd_outtextxy(0, 10, "SMS Ready.");
0018d9 940e 2288 	CALL SUBOPT_0x17
                +
0018db e3ae     +LDI R26 , LOW ( _0x6003A + ( 88 ) )
0018dc e0b8     +LDI R27 , HIGH ( _0x6003A + ( 88 ) )
                 	__POINTW2MN _0x6003A,88
0018dd 940e 1e3d 	CALL _glcd_outtextxy
                 ; 0003 0141     delay_ms(50);
0018df e3a2      	LDI  R26,LOW(50)
0018e0 e0b0      	LDI  R27,0
0018e1 c073      	RJMP _0x2120011
                 ; 0003 0142 
                 ; 0003 0143     return 1;
                 ; 0003 0144 }
                 ; .FEND
                 
                 	.DSEG
                 _0x6003A:
0007e6           	.BYTE 0x63
                 ;
                 ;
                 ;
                 ;unsigned char init_GPRS(void)
                 ; 0003 0149 {
                 
                 	.CSEG
                 _init_GPRS:
                 ; .FSTART _init_GPRS
                 ; 0003 014A 
                 ; 0003 014B     glcd_clear();
0018e2 940e 21f8 	CALL SUBOPT_0x7
                 ; 0003 014C     glcd_outtextxy(0, 0, "Connecting to GPRS...");
                +
0018e4 e4a9     +LDI R26 , LOW ( _0x6003B + ( 0 ) )
0018e5 e0b8     +LDI R27 , HIGH ( _0x6003B + ( 0 ) )
                 	__POINTW2MN _0x6003B,0
0018e6 940e 1e3d 	CALL _glcd_outtextxy
                 ; 0003 014D 
                 ; 0003 014E     send_at_command("AT+SAPBR=3,1,\"Contype\",\"GPRS\"");
                +
0018e8 e5af     +LDI R26 , LOW ( _0x6003B + ( 22 ) )
0018e9 e0b8     +LDI R27 , HIGH ( _0x6003B + ( 22 ) )
                 	__POINTW2MN _0x6003B,22
0018ea 940e 15bd 	CALL _send_at_command
                 ; 0003 014F     delay_ms(100);
0018ec 940e 22c1 	CALL SUBOPT_0x21
                 ; 0003 0150 
                 ; 0003 0151     sprintf(at_command, "AT+SAPBR=3,1,\"APN\",\"%s\"", APN);
0018ee ebe6      	LDI  R30,LOW(_at_command)
0018ef e0fb      	LDI  R31,HIGH(_at_command)
0018f0 93fa      	ST   -Y,R31
0018f1 93ea      	ST   -Y,R30
                +
0018f2 e4e0     +LDI R30 , LOW ( 2 * _0x60000 + ( 550 ) )
0018f3 e2f0     +LDI R31 , HIGH ( 2 * _0x60000 + ( 550 ) )
                 	__POINTW1FN _0x60000,550
0018f4 93fa      	ST   -Y,R31
0018f5 93ea      	ST   -Y,R30
0018f6 e7e0      	LDI  R30,LOW(_APN*2)
0018f7 e1fc      	LDI  R31,HIGH(_APN*2)
0018f8 940e 2273 	CALL SUBOPT_0x14
0018fa 940e 21ee 	CALL SUBOPT_0x5
                 ; 0003 0152     send_at_command(at_command);
0018fc eba6      	LDI  R26,LOW(_at_command)
0018fd e0bb      	LDI  R27,HIGH(_at_command)
0018fe 940e 2218 	CALL SUBOPT_0xB
                 ; 0003 0153     delay_ms(100);
                 ; 0003 0154 
                 ; 0003 0155     uart_buffer_reset();
                 ; 0003 0156 
                 ; 0003 0157     send_at_command("AT+SAPBR=1,1");
                +
001900 e7ad     +LDI R26 , LOW ( _0x6003B + ( 52 ) )
001901 e0b8     +LDI R27 , HIGH ( _0x6003B + ( 52 ) )
                 	__POINTW2MN _0x6003B,52
001902 940e 22ab 	CALL SUBOPT_0x1D
                 ; 0003 0158     if (read_until_keyword_keep_all(buffer, BUFFER_SIZE, 5000, "OK")) {
001904 940e 2245 	CALL SUBOPT_0x10
                +
001906 e8aa     +LDI R26 , LOW ( _0x6003B + ( 65 ) )
001907 e0b8     +LDI R27 , HIGH ( _0x6003B + ( 65 ) )
                 	__POINTW2MN _0x6003B,65
001908 940e 15d7 	CALL _read_until_keyword_keep_all
00190a 30e0      	CPI  R30,0
00190b f039      	BREQ _0x6003C
                 ; 0003 0159         glcd_outtextxy(0, 0, buffer);  //    "+CSQ: 11,0"  "OK"  
00190c e0e0      	LDI  R30,LOW(0)
00190d 93ea      	ST   -Y,R30
00190e 93ea      	ST   -Y,R30
00190f e7ae      	LDI  R26,LOW(_buffer)
001910 e0b9      	LDI  R27,HIGH(_buffer)
001911 940e 229c 	CALL SUBOPT_0x1B
                 ; 0003 015A         delay_ms(100);
                 ; 0003 015B     }
                 ; 0003 015C 
                 ; 0003 015D     glcd_clear();
                 _0x6003C:
001913 940e 21f8 	CALL SUBOPT_0x7
                 ; 0003 015E     glcd_outtextxy(0, 0, "Fetching IP...");
                +
001915 e8ad     +LDI R26 , LOW ( _0x6003B + ( 68 ) )
001916 e0b8     +LDI R27 , HIGH ( _0x6003B + ( 68 ) )
                 	__POINTW2MN _0x6003B,68
001917 940e 1e3d 	CALL _glcd_outtextxy
                 ; 0003 015F 
                 ; 0003 0160     while (attempts < 3) {
                 _0x6003D:
001919 e0e3      	LDI  R30,LOW(3)
00191a 16be      	CP   R11,R30
00191b f008      	BRLO PC+2
00191c c040      	RJMP _0x6003F
                 ; 0003 0161         uart_buffer_reset();
00191d 940e 15cd 	CALL _uart_buffer_reset
                 ; 0003 0162         send_at_command("AT+SAPBR=2,1");
                +
00191f e9ac     +LDI R26 , LOW ( _0x6003B + ( 83 ) )
001920 e0b8     +LDI R27 , HIGH ( _0x6003B + ( 83 ) )
                 	__POINTW2MN _0x6003B,83
001921 940e 22ab 	CALL SUBOPT_0x1D
                 ; 0003 0163 
                 ; 0003 0164         if (read_until_keyword_keep_all(buffer, BUFFER_SIZE, 5000, "SAPBR")) {
001923 940e 2245 	CALL SUBOPT_0x10
                +
001925 eaa9     +LDI R26 , LOW ( _0x6003B + ( 96 ) )
001926 e0b8     +LDI R27 , HIGH ( _0x6003B + ( 96 ) )
                 	__POINTW2MN _0x6003B,96
001927 940e 15d7 	CALL _read_until_keyword_keep_all
001929 30e0      	CPI  R30,0
00192a f171      	BREQ _0x60040
                 ; 0003 0165             //  status (    +SAPBR:)
                 ; 0003 0166             if (extract_field_after_keyword(buffer, "+SAPBR:", 1, value, sizeof(value))) {
00192b 940e 2240 	CALL SUBOPT_0xF
                +
00192d eaef     +LDI R30 , LOW ( _0x6003B + ( 102 ) )
00192e e0f8     +LDI R31 , HIGH ( _0x6003B + ( 102 ) )
                 	__POINTW1MN _0x6003B,102
00192f 940e 2250 	CALL SUBOPT_0x11
001931 9730      	SBIW R30,0
001932 f131      	BREQ _0x60041
                 ; 0003 0167                 if (atoi(value) == 1) {
001933 940e 22dd 	CALL SUBOPT_0x24
001935 30e1      	CPI  R30,LOW(0x1)
001936 e0a0      	LDI  R26,HIGH(0x1)
001937 07fa      	CPC  R31,R26
001938 f501      	BRNE _0x60042
                 ; 0003 0168                     //  status=1     IP   
                 ; 0003 0169                     if (extract_field_after_keyword(buffer, "+SAPBR:", 2, value, sizeof(value))) {
001939 940e 2240 	CALL SUBOPT_0xF
                +
00193b ebe7     +LDI R30 , LOW ( _0x6003B + ( 110 ) )
00193c e0f8     +LDI R31 , HIGH ( _0x6003B + ( 110 ) )
                 	__POINTW1MN _0x6003B,110
00193d 93fa      	ST   -Y,R31
00193e 93ea      	ST   -Y,R30
00193f e0e2      	LDI  R30,LOW(2)
001940 e0f0      	LDI  R31,HIGH(2)
001941 93fa      	ST   -Y,R31
001942 93ea      	ST   -Y,R30
001943 e6ee      	LDI  R30,LOW(_value)
001944 e0f9      	LDI  R31,HIGH(_value)
001945 93fa      	ST   -Y,R31
001946 93ea      	ST   -Y,R30
001947 e1a0      	LDI  R26,LOW(16)
001948 e0b0      	LDI  R27,0
001949 940e 1668 	CALL _extract_field_after_keyword
00194b 9730      	SBIW R30,0
00194c f061      	BREQ _0x60043
                 ; 0003 016A                         glcd_clear();
00194d 940e 21f8 	CALL SUBOPT_0x7
                 ; 0003 016B                         glcd_outtextxy(0, 0, value);
00194f e6ae      	LDI  R26,LOW(_value)
001950 e0b9      	LDI  R27,HIGH(_value)
001951 940e 1e3d 	CALL _glcd_outtextxy
                 ; 0003 016C                         delay_ms(300);
001953 e2ac      	LDI  R26,LOW(300)
001954 e0b1      	LDI  R27,HIGH(300)
                 _0x2120011:
001955 940e 23d2 	CALL _delay_ms
                 ; 0003 016D                         return 1; // 
                 _0x2120012:
001957 e0e1      	LDI  R30,LOW(1)
001958 9508      	RET
                 ; 0003 016E                     }
                 ; 0003 016F                 }
                 _0x60043:
                 ; 0003 0170             }
                 _0x60042:
                 ; 0003 0171         }
                 _0x60041:
                 ; 0003 0172 
                 ; 0003 0173         //       
                 ; 0003 0174         attempts++;
                 _0x60040:
001959 94b3      	INC  R11
                 ; 0003 0175         delay_ms(100);
00195a 940e 22c1 	CALL SUBOPT_0x21
                 ; 0003 0176     }
00195c cfbc      	RJMP _0x6003D
                 _0x6003F:
                 ; 0003 0177 
                 ; 0003 0178     //   3   
                 ; 0003 0179     glcd_clear();
00195d 940e 21f8 	CALL SUBOPT_0x7
                 ; 0003 017A     glcd_outtextxy(0, 0, "No IP");
                +
00195f ebaf     +LDI R26 , LOW ( _0x6003B + ( 118 ) )
001960 e0b8     +LDI R27 , HIGH ( _0x6003B + ( 118 ) )
                 	__POINTW2MN _0x6003B,118
001961 940e 1e3d 	CALL _glcd_outtextxy
                 ; 0003 017B     return 0; // 
                 _0x2120010:
001963 e0e0      	LDI  R30,LOW(0)
001964 9508      	RET
                 ; 0003 017C }
                 ; .FEND
                 
                 	.DSEG
                 _0x6003B:
000849           	.BYTE 0x7C
                 ;
                 ;
                 ;void gprs_keep_alive(void) {
                 ; 0003 017F void gprs_keep_alive(void) {
                 
                 	.CSEG
                 _gprs_keep_alive:
                 ; .FSTART _gprs_keep_alive
                 ; 0003 0180 //    glcd_clear();
                 ; 0003 0181 //    glcd_outtextxy(0, 0, "Checking Internet...");
                 ; 0003 0182 
                 ; 0003 0183     uart_buffer_reset();
001965 940e 15cd 	CALL _uart_buffer_reset
                 ; 0003 0184     send_at_command("AT+HTTPTERM");
                +
001967 eca5     +LDI R26 , LOW ( _0x60044 + ( 0 ) )
001968 e0b8     +LDI R27 , HIGH ( _0x60044 + ( 0 ) )
                 	__POINTW2MN _0x60044,0
001969 940e 2218 	CALL SUBOPT_0xB
                 ; 0003 0185     delay_ms(100);
                 ; 0003 0186 
                 ; 0003 0187     // ---  HTTP ---
                 ; 0003 0188     uart_buffer_reset();
                 ; 0003 0189     send_at_command("AT+HTTPINIT");
                +
00196b eda1     +LDI R26 , LOW ( _0x60044 + ( 12 ) )
00196c e0b8     +LDI R27 , HIGH ( _0x60044 + ( 12 ) )
                 	__POINTW2MN _0x60044,12
00196d 940e 2218 	CALL SUBOPT_0xB
                 ; 0003 018A     delay_ms(100);
                 ; 0003 018B 
                 ; 0003 018C     // ---   GPRS ---
                 ; 0003 018D     uart_buffer_reset();
                 ; 0003 018E     send_at_command("AT+HTTPPARA=\"CID\",1");
                +
00196f edad     +LDI R26 , LOW ( _0x60044 + ( 24 ) )
001970 e0b8     +LDI R27 , HIGH ( _0x60044 + ( 24 ) )
                 	__POINTW2MN _0x60044,24
001971 940e 2218 	CALL SUBOPT_0xB
                 ; 0003 018F     delay_ms(100);
                 ; 0003 0190 
                 ; 0003 0191     // ---  URL ---
                 ; 0003 0192     uart_buffer_reset();
                 ; 0003 0193     send_at_command("AT+HTTPPARA=\"URL\",\"http://www.google.com\"");
                +
001973 efa1     +LDI R26 , LOW ( _0x60044 + ( 44 ) )
001974 e0b8     +LDI R27 , HIGH ( _0x60044 + ( 44 ) )
                 	__POINTW2MN _0x60044,44
001975 940e 2218 	CALL SUBOPT_0xB
                 ; 0003 0194     delay_ms(100);
                 ; 0003 0195 
                 ; 0003 0196     // ---   GET ---
                 ; 0003 0197     uart_buffer_reset();
                 ; 0003 0198     send_at_command("AT+HTTPACTION=0"); // 0=GET
                +
001977 e1ab     +LDI R26 , LOW ( _0x60044 + ( 86 ) )
001978 e0b9     +LDI R27 , HIGH ( _0x60044 + ( 86 ) )
                 	__POINTW2MN _0x60044,86
001979 940e 2218 	CALL SUBOPT_0xB
                 ; 0003 0199     delay_ms(100); //    HTTP
                 ; 0003 019A 
                 ; 0003 019B     // ---   ---
                 ; 0003 019C     uart_buffer_reset();
                 ; 0003 019D     if (read_until_keyword_keep_all(buffer, BUFFER_SIZE, 5000, "HTTPACTION")) {
00197b 940e 2240 	CALL SUBOPT_0xF
00197d 940e 2245 	CALL SUBOPT_0x10
                +
00197f e2ab     +LDI R26 , LOW ( _0x60044 + ( 102 ) )
001980 e0b9     +LDI R27 , HIGH ( _0x60044 + ( 102 ) )
                 	__POINTW2MN _0x60044,102
001981 940e 15d7 	CALL _read_until_keyword_keep_all
001983 30e0      	CPI  R30,0
001984 f081      	BREQ _0x60045
                 ; 0003 019E         //  : +HTTPACTION:0,200,1256
                 ; 0003 019F //        int status = 0;
                 ; 0003 01A0 
                 ; 0003 01A1         //     +HTTPACTION:    HTTP 
                 ; 0003 01A2         if (extract_field_after_keyword(buffer, "+HTTPACTION", 1, value, sizeof(value))) {
001985 940e 2240 	CALL SUBOPT_0xF
                +
001987 e3e6     +LDI R30 , LOW ( _0x60044 + ( 113 ) )
001988 e0f9     +LDI R31 , HIGH ( _0x60044 + ( 113 ) )
                 	__POINTW1MN _0x60044,113
001989 940e 2250 	CALL SUBOPT_0x11
00198b 9730      	SBIW R30,0
00198c f041      	BREQ _0x60046
                 ; 0003 01A3 //            status = atoi(value);  //    
                 ; 0003 01A4             glcd_outtextxy(0, 16, value);
00198d e0e0      	LDI  R30,LOW(0)
00198e 93ea      	ST   -Y,R30
00198f e1e0      	LDI  R30,LOW(16)
001990 93ea      	ST   -Y,R30
001991 e6ae      	LDI  R26,LOW(_value)
001992 e0b9      	LDI  R27,HIGH(_value)
001993 940e 229c 	CALL SUBOPT_0x1B
                 ; 0003 01A5             delay_ms(100);
                 ; 0003 01A6 //
                 ; 0003 01A7 //            if (atoi(value) == 200) {
                 ; 0003 01A8 //                glcd_outtextxy(0, 16, "Internet OK");
                 ; 0003 01A9 //            } else {
                 ; 0003 01AA //                glcd_outtextxy(0, 16, "Internet Failed");
                 ; 0003 01AB //            }
                 ; 0003 01AC         }
                 ; 0003 01AD //        else {
                 ; 0003 01AE //            glcd_outtextxy(0, 16, "Parsing Error!");
                 ; 0003 01AF //        }
                 ; 0003 01B0     }
                 _0x60046:
                 ; 0003 01B1 //    else {
                 ; 0003 01B2 //        glcd_outtextxy(0, 16, "No response!");
                 ; 0003 01B3 //    }
                 ; 0003 01B4 
                 ; 0003 01B5 
                 ; 0003 01B6 
                 ; 0003 01B7     // ---  HTTP ---
                 ; 0003 01B8     uart_buffer_reset();
                 _0x60045:
001995 940e 15cd 	CALL _uart_buffer_reset
                 ; 0003 01B9     send_at_command("AT+HTTPTERM");
                +
001997 e4a2     +LDI R26 , LOW ( _0x60044 + ( 125 ) )
001998 e0b9     +LDI R27 , HIGH ( _0x60044 + ( 125 ) )
                 	__POINTW2MN _0x60044,125
001999 940e 15bd 	CALL _send_at_command
                 ; 0003 01BA     delay_ms(100);
00199b 940e 22c1 	CALL SUBOPT_0x21
                 ; 0003 01BB }
00199d 9508      	RET
                 ; .FEND
                 
                 	.DSEG
                 _0x60044:
0008c5           	.BYTE 0x89
                 ;
                 ;
                 ;//
                 ;//void full_check(void){
                 ;//
                 ;//        sim800_restart();
                 ;//        check_sim();
                 ;//        check_signal_with_restart();
                 ;//        init_sms();
                 ;//
                 ;//        if (init_GPRS()) {
                 ;//            //       
                 ;//            break;
                 ;//        } else {
                 ;//            //   
                 ;//            glcd_clear();
                 ;//            glcd_outtextxy(0, 0, "GPRS Init Failed!");
                 ;//            delay_ms(100);  //   
                 ;//            //     
                 ;//        }
                 ;//
                 ;//}
                 	#ifndef __SLEEP_DEFINED__
                 	#endif
                 
                 	.CSEG
                 _ks0108_enable_G100:
                 ; .FSTART _ks0108_enable_G100
00199e 0000      	nop
00199f 91e0 0062 	LDS  R30,98
0019a1 61e0      	ORI  R30,0x10
0019a2 93e0 0062 	STS  98,R30
0019a4 0000      	nop
0019a5 9508      	RET
                 ; .FEND
                 _ks0108_disable_G100:
                 ; .FSTART _ks0108_disable_G100
0019a6 91e0 0062 	LDS  R30,98
0019a8 7eef      	ANDI R30,0xEF
0019a9 940e 22e7 	CALL SUBOPT_0x26
0019ab 7def      	ANDI R30,0xDF
0019ac 940e 22e7 	CALL SUBOPT_0x26
0019ae 7bef      	ANDI R30,0xBF
0019af 93e0 0062 	STS  98,R30
0019b1 9508      	RET
                 ; .FEND
                 _ks0108_rdbus_G100:
                 ; .FSTART _ks0108_rdbus_G100
0019b2 931a      	ST   -Y,R17
0019b3 dfea      	RCALL _ks0108_enable_G100
0019b4 b319      	IN   R17,25
0019b5 91e0 0062 	LDS  R30,98
0019b7 7eef      	ANDI R30,0xEF
0019b8 93e0 0062 	STS  98,R30
0019ba 2fe1      	MOV  R30,R17
                 _0x212000F:
0019bb 9119      	LD   R17,Y+
0019bc 9508      	RET
                 ; .FEND
                 _ks0108_busy_G100:
                 ; .FSTART _ks0108_busy_G100
0019bd 93aa      	ST   -Y,R26
0019be 931a      	ST   -Y,R17
0019bf 940e 22ec 	CALL SUBOPT_0x27
0019c1 7feb      	ANDI R30,0xFB
0019c2 93e0 0062 	STS  98,R30
0019c4 81e9      	LDD  R30,Y+1
0019c5 5fef      	SUBI R30,-LOW(1)
0019c6 2f1e      	MOV  R17,R30
0019c7 ff10      	SBRS R17,0
0019c8 c004      	RJMP _0x2000003
0019c9 91e0 0062 	LDS  R30,98
0019cb 62e0      	ORI  R30,0x20
0019cc c003      	RJMP _0x20000AC
                 _0x2000003:
0019cd 91e0 0062 	LDS  R30,98
0019cf 7def      	ANDI R30,0xDF
                 _0x20000AC:
0019d0 93e0 0062 	STS  98,R30
0019d2 ff11      	SBRS R17,1
0019d3 c004      	RJMP _0x2000005
0019d4 91e0 0062 	LDS  R30,98
0019d6 64e0      	ORI  R30,0x40
0019d7 c003      	RJMP _0x20000AD
                 _0x2000005:
0019d8 91e0 0062 	LDS  R30,98
0019da 7bef      	ANDI R30,0xBF
                 _0x20000AD:
0019db 93e0 0062 	STS  98,R30
                 _0x2000007:
0019dd dfd4      	RCALL _ks0108_rdbus_G100
0019de 78e0      	ANDI R30,LOW(0x80)
0019df f7e9      	BRNE _0x2000007
0019e0 8118      	LDD  R17,Y+0
0019e1 c05e      	RJMP _0x212000E
                 ; .FEND
                 _ks0108_wrcmd_G100:
                 ; .FSTART _ks0108_wrcmd_G100
0019e2 93aa      	ST   -Y,R26
0019e3 81a9      	LDD  R26,Y+1
0019e4 dfd8      	RCALL _ks0108_busy_G100
0019e5 91e0 0062 	LDS  R30,98
0019e7 940e 22f2 	CALL SUBOPT_0x28
0019e9 c056      	RJMP _0x212000E
                 ; .FEND
                 _ks0108_setloc_G100:
                 ; .FSTART _ks0108_setloc_G100
                +
0019ea 91e0 0bd5+LDS R30 , _ks0108_coord_G100 + ( 1 )
                 	__GETB1MN _ks0108_coord_G100,1
0019ec 93ea      	ST   -Y,R30
0019ed 91e0 0bd4 	LDS  R30,_ks0108_coord_G100
0019ef 73ef      	ANDI R30,LOW(0x3F)
0019f0 64e0      	ORI  R30,0x40
0019f1 2fae      	MOV  R26,R30
0019f2 dfef      	RCALL _ks0108_wrcmd_G100
                +
0019f3 91e0 0bd5+LDS R30 , _ks0108_coord_G100 + ( 1 )
                 	__GETB1MN _ks0108_coord_G100,1
0019f5 93ea      	ST   -Y,R30
                +
0019f6 91e0 0bd6+LDS R30 , _ks0108_coord_G100 + ( 2 )
                 	__GETB1MN _ks0108_coord_G100,2
0019f8 6be8      	ORI  R30,LOW(0xB8)
0019f9 2fae      	MOV  R26,R30
0019fa dfe7      	RCALL _ks0108_wrcmd_G100
0019fb 9508      	RET
                 ; .FEND
                 _ks0108_gotoxp_G100:
                 ; .FSTART _ks0108_gotoxp_G100
0019fc 93aa      	ST   -Y,R26
0019fd 81e9      	LDD  R30,Y+1
0019fe 93e0 0bd4 	STS  _ks0108_coord_G100,R30
001a00 95e2      	SWAP R30
001a01 70ef      	ANDI R30,0xF
001a02 95e6      	LSR  R30
001a03 95e6      	LSR  R30
                +
001a04 93e0 0bd5+STS _ks0108_coord_G100 + ( 1 ) , R30
                 	__PUTB1MN _ks0108_coord_G100,1
001a06 81e8      	LD   R30,Y
                +
001a07 93e0 0bd6+STS _ks0108_coord_G100 + ( 2 ) , R30
                 	__PUTB1MN _ks0108_coord_G100,2
001a09 dfe0      	RCALL _ks0108_setloc_G100
001a0a c035      	RJMP _0x212000E
                 ; .FEND
                 _ks0108_nextx_G100:
                 ; .FSTART _ks0108_nextx_G100
001a0b 91a0 0bd4 	LDS  R26,_ks0108_coord_G100
001a0d 5faf      	SUBI R26,-LOW(1)
001a0e 93a0 0bd4 	STS  _ks0108_coord_G100,R26
001a10 38a0      	CPI  R26,LOW(0x80)
001a11 f018      	BRLO _0x200000A
001a12 e0e0      	LDI  R30,LOW(0)
001a13 93e0 0bd4 	STS  _ks0108_coord_G100,R30
                 _0x200000A:
001a15 91e0 0bd4 	LDS  R30,_ks0108_coord_G100
001a17 73ef      	ANDI R30,LOW(0x3F)
001a18 f431      	BRNE _0x200000B
001a19 91e0 0bd4 	LDS  R30,_ks0108_coord_G100
001a1b 93ea      	ST   -Y,R30
                +
001a1c 91a0 0bd6+LDS R26 , _ks0108_coord_G100 + ( 2 )
                 	__GETB2MN _ks0108_coord_G100,2
001a1e dfdd      	RCALL _ks0108_gotoxp_G100
                 _0x200000B:
001a1f 9508      	RET
                 ; .FEND
                 _ks0108_wrdata_G100:
                 ; .FSTART _ks0108_wrdata_G100
001a20 93aa      	ST   -Y,R26
                +
001a21 91a0 0bd5+LDS R26 , _ks0108_coord_G100 + ( 1 )
                 	__GETB2MN _ks0108_coord_G100,1
001a23 df99      	RCALL _ks0108_busy_G100
001a24 91e0 0062 	LDS  R30,98
001a26 60e4      	ORI  R30,4
001a27 940e 22e7 	CALL SUBOPT_0x26
001a29 940e 22f2 	CALL SUBOPT_0x28
001a2b 940c 1e64 	JMP  _0x2120009
                 ; .FEND
                 _ks0108_rddata_G100:
                 ; .FSTART _ks0108_rddata_G100
                +
001a2d 91a0 0bd5+LDS R26 , _ks0108_coord_G100 + ( 1 )
                 	__GETB2MN _ks0108_coord_G100,1
001a2f df8d      	RCALL _ks0108_busy_G100
001a30 940e 22ec 	CALL SUBOPT_0x27
001a32 60e4      	ORI  R30,4
001a33 93e0 0062 	STS  98,R30
001a35 df7c      	RCALL _ks0108_rdbus_G100
001a36 9508      	RET
                 ; .FEND
                 _ks0108_rdbyte_G100:
                 ; .FSTART _ks0108_rdbyte_G100
001a37 93aa      	ST   -Y,R26
001a38 81e9      	LDD  R30,Y+1
001a39 93ea      	ST   -Y,R30
001a3a 81e9      	LDD  R30,Y+1
001a3b 940e 22fd 	CALL SUBOPT_0x29
001a3d dfef      	RCALL _ks0108_rddata_G100
001a3e dfab      	RCALL _ks0108_setloc_G100
001a3f dfed      	RCALL _ks0108_rddata_G100
                 _0x212000E:
001a40 9622      	ADIW R28,2
001a41 9508      	RET
                 ; .FEND
                 _glcd_init:
                 ; .FSTART _glcd_init
001a42 93ba      	ST   -Y,R27
001a43 93aa      	ST   -Y,R26
001a44 931a      	ST   -Y,R17
001a45 91e0 0061 	LDS  R30,97
001a47 61e0      	ORI  R30,0x10
001a48 940e 2303 	CALL SUBOPT_0x2A
001a4a 60e8      	ORI  R30,8
001a4b 940e 2303 	CALL SUBOPT_0x2A
001a4d 60e4      	ORI  R30,4
001a4e 940e 2303 	CALL SUBOPT_0x2A
001a50 68e0      	ORI  R30,0x80
001a51 93e0 0061 	STS  97,R30
001a53 91e0 0062 	LDS  R30,98
001a55 68e0      	ORI  R30,0x80
001a56 93e0 0062 	STS  98,R30
001a58 91e0 0061 	LDS  R30,97
001a5a 62e0      	ORI  R30,0x20
001a5b 940e 2303 	CALL SUBOPT_0x2A
001a5d 64e0      	ORI  R30,0x40
001a5e 93e0 0061 	STS  97,R30
001a60 df45      	RCALL _ks0108_disable_G100
001a61 91e0 0062 	LDS  R30,98
001a63 77ef      	ANDI R30,0x7F
001a64 93e0 0062 	STS  98,R30
001a66 940e 22c1 	CALL SUBOPT_0x21
001a68 91e0 0062 	LDS  R30,98
001a6a 68e0      	ORI  R30,0x80
001a6b 93e0 0062 	STS  98,R30
001a6d e010      	LDI  R17,LOW(0)
                 _0x200000C:
001a6e 3012      	CPI  R17,2
001a6f f440      	BRSH _0x200000E
001a70 931a      	ST   -Y,R17
001a71 e3af      	LDI  R26,LOW(63)
001a72 df6f      	RCALL _ks0108_wrcmd_G100
001a73 931a      	ST   -Y,R17
001a74 9513      	INC  R17
001a75 eca0      	LDI  R26,LOW(192)
001a76 df6b      	RCALL _ks0108_wrcmd_G100
001a77 cff6      	RJMP _0x200000C
                 _0x200000E:
001a78 e0e1      	LDI  R30,LOW(1)
001a79 93e0 094e 	STS  _glcd_state,R30
001a7b e0e0      	LDI  R30,LOW(0)
                +
001a7c 93e0 094f+STS _glcd_state + ( 1 ) , R30
                 	__PUTB1MN _glcd_state,1
001a7e 81e9      	LDD  R30,Y+1
001a7f 81fa      	LDD  R31,Y+1+1
001a80 9730      	SBIW R30,0
001a81 f0a9      	BREQ _0x200000F
001a82 81a9      	LDD  R26,Y+1
001a83 81ba      	LDD  R27,Y+1+1
001a84 940e 243b 	CALL __GETW1P
001a86 940e 2297 	CALL SUBOPT_0x1A
001a88 81a9      	LDD  R26,Y+1
001a89 81ba      	LDD  R27,Y+1+1
001a8a 9612      	ADIW R26,2
001a8b 940e 243b 	CALL __GETW1P
                +
001a8d 93e0 0967+STS _glcd_state + ( 25 ) , R30
001a8f 93f0 0968+STS _glcd_state + ( 25 ) + 1 , R31
                 	__PUTW1MN _glcd_state,25
001a91 81a9      	LDD  R26,Y+1
001a92 81ba      	LDD  R27,Y+1+1
001a93 9614      	ADIW R26,4
001a94 940e 243b 	CALL __GETW1P
001a96 c00a      	RJMP _0x20000AE
                 _0x200000F:
001a97 e0e0      	LDI  R30,LOW(0)
001a98 e0f0      	LDI  R31,HIGH(0)
001a99 940e 2297 	CALL SUBOPT_0x1A
001a9b e0e0      	LDI  R30,LOW(0)
001a9c e0f0      	LDI  R31,HIGH(0)
                +
001a9d 93e0 0967+STS _glcd_state + ( 25 ) , R30
001a9f 93f0 0968+STS _glcd_state + ( 25 ) + 1 , R31
                 	__PUTW1MN _glcd_state,25
                 _0x20000AE:
                +
001aa1 93e0 0969+STS _glcd_state + ( 27 ) , R30
001aa3 93f0 096a+STS _glcd_state + ( 27 ) + 1 , R31
                 	__PUTW1MN _glcd_state,27
001aa5 e0e1      	LDI  R30,LOW(1)
                +
001aa6 93e0 0954+STS _glcd_state + ( 6 ) , R30
                 	__PUTB1MN _glcd_state,6
                +
001aa8 93e0 0955+STS _glcd_state + ( 7 ) , R30
                 	__PUTB1MN _glcd_state,7
                +
001aaa 93e0 0956+STS _glcd_state + ( 8 ) , R30
                 	__PUTB1MN _glcd_state,8
001aac efef      	LDI  R30,LOW(255)
                +
001aad 93e0 0957+STS _glcd_state + ( 9 ) , R30
                 	__PUTB1MN _glcd_state,9
001aaf e0e1      	LDI  R30,LOW(1)
                +
001ab0 93e0 095e+STS _glcd_state + ( 16 ) , R30
                 	__PUTB1MN _glcd_state,16
                +
001ab2 e5ef     +LDI R30 , LOW ( _glcd_state + ( 17 ) )
001ab3 e0f9     +LDI R31 , HIGH ( _glcd_state + ( 17 ) )
                 	__POINTW1MN _glcd_state,17
001ab4 93fa      	ST   -Y,R31
001ab5 93ea      	ST   -Y,R30
001ab6 efef      	LDI  R30,LOW(255)
001ab7 93ea      	ST   -Y,R30
001ab8 e0a8      	LDI  R26,LOW(8)
001ab9 e0b0      	LDI  R27,0
001aba 940e 2044 	CALL _memset
001abc d004      	RCALL _glcd_clear
001abd e0e1      	LDI  R30,LOW(1)
001abe 8118      	LDD  R17,Y+0
001abf 9623      	ADIW R28,3
001ac0 9508      	RET
                 ; .FEND
                 _glcd_clear:
                 ; .FSTART _glcd_clear
001ac1 940e 247a 	CALL __SAVELOCR4
001ac3 e000      	LDI  R16,0
001ac4 e030      	LDI  R19,0
                +
001ac5 91e0 094f+LDS R30 , _glcd_state + ( 1 )
                 	__GETB1MN _glcd_state,1
001ac7 30e0      	CPI  R30,0
001ac8 f009      	BREQ _0x2000015
001ac9 ef0f      	LDI  R16,LOW(255)
                 _0x2000015:
                 _0x2000016:
001aca 3038      	CPI  R19,8
001acb f478      	BRSH _0x2000018
001acc e0e0      	LDI  R30,LOW(0)
001acd 93ea      	ST   -Y,R30
001ace 2fa3      	MOV  R26,R19
001acf 5f3f      	SUBI R19,-1
001ad0 df2b      	RCALL _ks0108_gotoxp_G100
001ad1 e010      	LDI  R17,LOW(0)
                 _0x2000019:
001ad2 2fa1      	MOV  R26,R17
001ad3 5f1f      	SUBI R17,-1
001ad4 38a0      	CPI  R26,LOW(0x80)
001ad5 f420      	BRSH _0x200001B
001ad6 2fa0      	MOV  R26,R16
001ad7 940e 2308 	CALL SUBOPT_0x2B
001ad9 cff8      	RJMP _0x2000019
                 _0x200001B:
001ada cfef      	RJMP _0x2000016
                 _0x2000018:
001adb e0e0      	LDI  R30,LOW(0)
001adc 93ea      	ST   -Y,R30
001add e0a0      	LDI  R26,LOW(0)
001ade df1d      	RCALL _ks0108_gotoxp_G100
001adf e0e0      	LDI  R30,LOW(0)
001ae0 93ea      	ST   -Y,R30
001ae1 e0a0      	LDI  R26,LOW(0)
001ae2 d36f      	RCALL _glcd_moveto
                 _0x212000D:
001ae3 940e 2481 	CALL __LOADLOCR4
001ae5 9624      	ADIW R28,4
001ae6 9508      	RET
                 ; .FEND
                 _glcd_putpixel:
                 ; .FSTART _glcd_putpixel
001ae7 93aa      	ST   -Y,R26
001ae8 931a      	ST   -Y,R17
001ae9 930a      	ST   -Y,R16
001aea 81ac      	LDD  R26,Y+4
001aeb 38a0      	CPI  R26,LOW(0x80)
001aec f418      	BRSH _0x200001D
001aed 81ab      	LDD  R26,Y+3
001aee 34a0      	CPI  R26,LOW(0x40)
001aef f020      	BRLO _0x200001C
                 _0x200001D:
001af0 8119      	LDD  R17,Y+1
001af1 8108      	LDD  R16,Y+0
001af2 940c 2052 	JMP  _0x2120006
                 _0x200001C:
001af4 81ec      	LDD  R30,Y+4
001af5 93ea      	ST   -Y,R30
001af6 81ac      	LDD  R26,Y+4
001af7 df3f      	RCALL _ks0108_rdbyte_G100
001af8 2f1e      	MOV  R17,R30
001af9 def0      	RCALL _ks0108_setloc_G100
001afa 81eb      	LDD  R30,Y+3
001afb 70e7      	ANDI R30,LOW(0x7)
001afc e0a1      	LDI  R26,LOW(1)
001afd 940e 23e9 	CALL __LSLB12
001aff 2f0e      	MOV  R16,R30
001b00 81ea      	LDD  R30,Y+2
001b01 30e0      	CPI  R30,0
001b02 f011      	BREQ _0x200001F
001b03 2b10      	OR   R17,R16
001b04 c003      	RJMP _0x2000020
                 _0x200001F:
001b05 2fe0      	MOV  R30,R16
001b06 95e0      	COM  R30
001b07 231e      	AND  R17,R30
                 _0x2000020:
001b08 2fa1      	MOV  R26,R17
001b09 df16      	RCALL _ks0108_wrdata_G100
001b0a 8119      	LDD  R17,Y+1
001b0b 8108      	LDD  R16,Y+0
001b0c 940c 2052 	JMP  _0x2120006
                 ; .FEND
                 _ks0108_wrmasked_G100:
                 ; .FSTART _ks0108_wrmasked_G100
001b0e 93aa      	ST   -Y,R26
001b0f 931a      	ST   -Y,R17
001b10 81ed      	LDD  R30,Y+5
001b11 93ea      	ST   -Y,R30
001b12 81ad      	LDD  R26,Y+5
001b13 df23      	RCALL _ks0108_rdbyte_G100
001b14 2f1e      	MOV  R17,R30
001b15 ded4      	RCALL _ks0108_setloc_G100
001b16 81e9      	LDD  R30,Y+1
001b17 30e7      	CPI  R30,LOW(0x7)
001b18 f011      	BREQ _0x200002B
001b19 30e8      	CPI  R30,LOW(0x8)
001b1a f439      	BRNE _0x200002C
                 _0x200002B:
001b1b 81eb      	LDD  R30,Y+3
001b1c 93ea      	ST   -Y,R30
001b1d 81aa      	LDD  R26,Y+2
001b1e 940e 2157 	CALL _glcd_mappixcolor1bit
001b20 83eb      	STD  Y+3,R30
001b21 c008      	RJMP _0x200002D
                 _0x200002C:
001b22 30e3      	CPI  R30,LOW(0x3)
001b23 f421      	BRNE _0x200002F
001b24 81eb      	LDD  R30,Y+3
001b25 95e0      	COM  R30
001b26 83eb      	STD  Y+3,R30
001b27 c002      	RJMP _0x2000030
                 _0x200002F:
001b28 30e0      	CPI  R30,0
001b29 f421      	BRNE _0x2000031
                 _0x2000030:
                 _0x200002D:
001b2a 81ea      	LDD  R30,Y+2
001b2b 95e0      	COM  R30
001b2c 231e      	AND  R17,R30
001b2d c002      	RJMP _0x2000032
                 _0x2000031:
001b2e 30e2      	CPI  R30,LOW(0x2)
001b2f f429      	BRNE _0x2000033
                 _0x2000032:
001b30 81ea      	LDD  R30,Y+2
001b31 81ab      	LDD  R26,Y+3
001b32 23ea      	AND  R30,R26
001b33 2b1e      	OR   R17,R30
001b34 c00e      	RJMP _0x2000029
                 _0x2000033:
001b35 30e1      	CPI  R30,LOW(0x1)
001b36 f429      	BRNE _0x2000034
001b37 81ea      	LDD  R30,Y+2
001b38 81ab      	LDD  R26,Y+3
001b39 23ea      	AND  R30,R26
001b3a 271e      	EOR  R17,R30
001b3b c007      	RJMP _0x2000029
                 _0x2000034:
001b3c 30e4      	CPI  R30,LOW(0x4)
001b3d f429      	BRNE _0x2000029
001b3e 81ea      	LDD  R30,Y+2
001b3f 95e0      	COM  R30
001b40 81ab      	LDD  R26,Y+3
001b41 2bea      	OR   R30,R26
001b42 231e      	AND  R17,R30
                 _0x2000029:
001b43 2fa1      	MOV  R26,R17
001b44 940e 2308 	CALL SUBOPT_0x2B
001b46 8118      	LDD  R17,Y+0
001b47 940c 2113 	JMP  _0x2120005
                 ; .FEND
                 _glcd_block:
                 ; .FSTART _glcd_block
001b49 93aa      	ST   -Y,R26
001b4a 9723      	SBIW R28,3
001b4b 940e 2478 	CALL __SAVELOCR6
001b4d 89a8      	LDD  R26,Y+16
001b4e 38a0      	CPI  R26,LOW(0x80)
001b4f f448      	BRSH _0x2000037
001b50 85af      	LDD  R26,Y+15
001b51 34a0      	CPI  R26,LOW(0x40)
001b52 f430      	BRSH _0x2000037
001b53 85ae      	LDD  R26,Y+14
001b54 30a0      	CPI  R26,LOW(0x0)
001b55 f019      	BREQ _0x2000037
001b56 85ad      	LDD  R26,Y+13
001b57 30a0      	CPI  R26,LOW(0x0)
001b58 f409      	BRNE _0x2000036
                 _0x2000037:
001b59 c1c6      	RJMP _0x212000C
                 _0x2000036:
001b5a 85ee      	LDD  R30,Y+14
001b5b 87e8      	STD  Y+8,R30
001b5c 89a8      	LDD  R26,Y+16
001b5d 27bb      	CLR  R27
001b5e 85ee      	LDD  R30,Y+14
001b5f e0f0      	LDI  R31,0
001b60 0fae      	ADD  R26,R30
001b61 1fbf      	ADC  R27,R31
001b62 38a1      	CPI  R26,LOW(0x81)
001b63 e0e0      	LDI  R30,HIGH(0x81)
001b64 07be      	CPC  R27,R30
001b65 f020      	BRLO _0x2000039
001b66 89a8      	LDD  R26,Y+16
001b67 e8e0      	LDI  R30,LOW(128)
001b68 1bea      	SUB  R30,R26
001b69 87ee      	STD  Y+14,R30
                 _0x2000039:
001b6a 852d      	LDD  R18,Y+13
001b6b 85af      	LDD  R26,Y+15
001b6c 27bb      	CLR  R27
001b6d 85ed      	LDD  R30,Y+13
001b6e e0f0      	LDI  R31,0
001b6f 0fae      	ADD  R26,R30
001b70 1fbf      	ADC  R27,R31
001b71 34a1      	CPI  R26,LOW(0x41)
001b72 e0e0      	LDI  R30,HIGH(0x41)
001b73 07be      	CPC  R27,R30
001b74 f020      	BRLO _0x200003A
001b75 85af      	LDD  R26,Y+15
001b76 e4e0      	LDI  R30,LOW(64)
001b77 1bea      	SUB  R30,R26
001b78 87ed      	STD  Y+13,R30
                 _0x200003A:
001b79 85a9      	LDD  R26,Y+9
001b7a 30a6      	CPI  R26,LOW(0x6)
001b7b f009      	BREQ PC+2
001b7c c05b      	RJMP _0x200003B
001b7d 85ec      	LDD  R30,Y+12
001b7e 30e1      	CPI  R30,LOW(0x1)
001b7f f409      	BRNE _0x200003F
001b80 c19f      	RJMP _0x212000C
                 _0x200003F:
001b81 30e3      	CPI  R30,LOW(0x3)
001b82 f439      	BRNE _0x2000042
                +
001b83 91e0 0969+LDS R30 , _glcd_state + ( 27 )
001b85 91f0 096a+LDS R31 , _glcd_state + ( 27 ) + 1
                 	__GETW1MN _glcd_state,27
001b87 9730      	SBIW R30,0
001b88 f409      	BRNE _0x2000041
001b89 c196      	RJMP _0x212000C
                 _0x2000041:
                 _0x2000042:
001b8a 8508      	LDD  R16,Y+8
001b8b 85ed      	LDD  R30,Y+13
001b8c 95e6      	LSR  R30
001b8d 95e6      	LSR  R30
001b8e 95e6      	LSR  R30
001b8f 2f3e      	MOV  R19,R30
001b90 2fe2      	MOV  R30,R18
001b91 70e7      	ANDI R30,LOW(0x7)
001b92 f419      	BRNE _0x2000044
001b93 85ad      	LDD  R26,Y+13
001b94 172a      	CP   R18,R26
001b95 f0e9      	BREQ _0x2000043
                 _0x2000044:
001b96 2fa0      	MOV  R26,R16
001b97 27bb      	CLR  R27
001b98 2fe3      	MOV  R30,R19
001b99 e0f0      	LDI  R31,0
001b9a 940e 240d 	CALL __MULW12U
001b9c 85aa      	LDD  R26,Y+10
001b9d 85bb      	LDD  R27,Y+10+1
001b9e 940e 230c 	CALL SUBOPT_0x2C
001ba0 9526      	LSR  R18
001ba1 9526      	LSR  R18
001ba2 9526      	LSR  R18
001ba3 2f53      	MOV  R21,R19
                 _0x2000046:
001ba4 935f      	PUSH R21
001ba5 5f5f      	SUBI R21,-1
001ba6 2fe2      	MOV  R30,R18
001ba7 91af      	POP  R26
001ba8 17ea      	CP   R30,R26
001ba9 f048      	BRLO _0x2000048
001baa 2f10      	MOV  R17,R16
                 _0x2000049:
001bab 2fe1      	MOV  R30,R17
001bac 5011      	SUBI R17,1
001bad 30e0      	CPI  R30,0
001bae f019      	BREQ _0x200004B
001baf 940e 2311 	CALL SUBOPT_0x2D
001bb1 cff9      	RJMP _0x2000049
                 _0x200004B:
001bb2 cff1      	RJMP _0x2000046
                 _0x2000048:
                 _0x2000043:
001bb3 85ae      	LDD  R26,Y+14
001bb4 170a      	CP   R16,R26
001bb5 f111      	BREQ _0x200004C
001bb6 85ee      	LDD  R30,Y+14
001bb7 85aa      	LDD  R26,Y+10
001bb8 85bb      	LDD  R27,Y+10+1
001bb9 e0f0      	LDI  R31,0
001bba 940e 230c 	CALL SUBOPT_0x2C
001bbc 85ed      	LDD  R30,Y+13
001bbd 70e7      	ANDI R30,LOW(0x7)
001bbe f009      	BREQ _0x200004D
001bbf 5f3f      	SUBI R19,-LOW(1)
                 _0x200004D:
001bc0 e020      	LDI  R18,LOW(0)
                 _0x200004E:
001bc1 932f      	PUSH R18
001bc2 5f2f      	SUBI R18,-1
001bc3 2fe3      	MOV  R30,R19
001bc4 91af      	POP  R26
001bc5 17ae      	CP   R26,R30
001bc6 f488      	BRSH _0x2000050
001bc7 851e      	LDD  R17,Y+14
                 _0x2000051:
001bc8 931f      	PUSH R17
001bc9 5f1f      	SUBI R17,-1
001bca 2fe0      	MOV  R30,R16
001bcb 91af      	POP  R26
001bcc 17ae      	CP   R26,R30
001bcd f418      	BRSH _0x2000053
001bce 940e 2311 	CALL SUBOPT_0x2D
001bd0 cff7      	RJMP _0x2000051
                 _0x2000053:
001bd1 85ee      	LDD  R30,Y+14
001bd2 81ae      	LDD  R26,Y+6
001bd3 81bf      	LDD  R27,Y+6+1
001bd4 e0f0      	LDI  R31,0
001bd5 940e 230c 	CALL SUBOPT_0x2C
001bd7 cfe9      	RJMP _0x200004E
                 _0x2000050:
                 _0x200004C:
                 _0x200003B:
001bd8 85ef      	LDD  R30,Y+15
001bd9 70e7      	ANDI R30,LOW(0x7)
001bda 2f3e      	MOV  R19,R30
                 _0x2000054:
001bdb 85ed      	LDD  R30,Y+13
001bdc 30e0      	CPI  R30,0
001bdd f409      	BRNE PC+2
001bde c141      	RJMP _0x2000056
001bdf 85ea      	LDD  R30,Y+10
001be0 85fb      	LDD  R31,Y+10+1
001be1 83ee      	STD  Y+6,R30
001be2 83ff      	STD  Y+6+1,R31
001be3 e010      	LDI  R17,LOW(0)
001be4 8908      	LDD  R16,Y+16
001be5 3030      	CPI  R19,0
001be6 f009      	BREQ PC+2
001be7 c065      	RJMP _0x2000057
001be8 85ad      	LDD  R26,Y+13
001be9 30a8      	CPI  R26,LOW(0x8)
001bea f408      	BRSH PC+2
001beb c05c      	RJMP _0x2000058
001bec 85e9      	LDD  R30,Y+9
001bed 30e0      	CPI  R30,0
001bee f011      	BREQ _0x200005D
001bef 30e3      	CPI  R30,LOW(0x3)
001bf0 f409      	BRNE _0x200005E
                 _0x200005D:
001bf1 c002      	RJMP _0x200005F
                 _0x200005E:
001bf2 30e7      	CPI  R30,LOW(0x7)
001bf3 f409      	BRNE _0x2000060
                 _0x200005F:
001bf4 c002      	RJMP _0x2000061
                 _0x2000060:
001bf5 30e8      	CPI  R30,LOW(0x8)
001bf6 f409      	BRNE _0x2000062
                 _0x2000061:
001bf7 c002      	RJMP _0x2000063
                 _0x2000062:
001bf8 30e6      	CPI  R30,LOW(0x6)
001bf9 f409      	BRNE _0x2000064
                 _0x2000063:
001bfa c002      	RJMP _0x2000065
                 _0x2000064:
001bfb 30e9      	CPI  R30,LOW(0x9)
001bfc f409      	BRNE _0x2000066
                 _0x2000065:
001bfd c002      	RJMP _0x2000067
                 _0x2000066:
001bfe 30ea      	CPI  R30,LOW(0xA)
001bff f421      	BRNE _0x200005B
                 _0x2000067:
001c00 930a      	ST   -Y,R16
001c01 89e8      	LDD  R30,Y+16
001c02 940e 22fd 	CALL SUBOPT_0x29
                 _0x200005B:
                 _0x2000069:
001c04 931f      	PUSH R17
001c05 5f1f      	SUBI R17,-1
001c06 85ee      	LDD  R30,Y+14
001c07 91af      	POP  R26
001c08 17ae      	CP   R26,R30
001c09 f5b8      	BRSH _0x200006B
001c0a 85a9      	LDD  R26,Y+9
001c0b 30a6      	CPI  R26,LOW(0x6)
001c0c f461      	BRNE _0x200006C
001c0d de1f      	RCALL _ks0108_rddata_G100
001c0e dddb      	RCALL _ks0108_setloc_G100
001c0f 940e 231e 	CALL SUBOPT_0x2E
001c11 93fa      	ST   -Y,R31
001c12 93ea      	ST   -Y,R30
001c13 de19      	RCALL _ks0108_rddata_G100
001c14 2fae      	MOV  R26,R30
001c15 940e 219e 	CALL _glcd_writemem
001c17 ddf3      	RCALL _ks0108_nextx_G100
001c18 c027      	RJMP _0x200006D
                 _0x200006C:
001c19 85e9      	LDD  R30,Y+9
001c1a 30e9      	CPI  R30,LOW(0x9)
001c1b f411      	BRNE _0x2000071
001c1c e050      	LDI  R21,LOW(0)
001c1d c00e      	RJMP _0x2000072
                 _0x2000071:
001c1e 30ea      	CPI  R30,LOW(0xA)
001c1f f411      	BRNE _0x2000070
001c20 ef5f      	LDI  R21,LOW(255)
001c21 c00a      	RJMP _0x2000072
                 _0x2000070:
001c22 940e 231e 	CALL SUBOPT_0x2E
001c24 940e 2327 	CALL SUBOPT_0x2F
001c26 2f5e      	MOV  R21,R30
001c27 85e9      	LDD  R30,Y+9
001c28 30e7      	CPI  R30,LOW(0x7)
001c29 f011      	BREQ _0x2000079
001c2a 30e8      	CPI  R30,LOW(0x8)
001c2b f421      	BRNE _0x200007A
                 _0x2000079:
                 _0x2000072:
001c2c 940e 232d 	CALL SUBOPT_0x30
001c2e 2f5e      	MOV  R21,R30
001c2f c006      	RJMP _0x200007B
                 _0x200007A:
001c30 30e3      	CPI  R30,LOW(0x3)
001c31 f411      	BRNE _0x200007D
001c32 9550      	COM  R21
001c33 c002      	RJMP _0x200007E
                 _0x200007D:
001c34 30e0      	CPI  R30,0
001c35 f421      	BRNE _0x2000080
                 _0x200007E:
                 _0x200007B:
001c36 2fa5      	MOV  R26,R21
001c37 940e 2308 	CALL SUBOPT_0x2B
001c39 c006      	RJMP _0x2000077
                 _0x2000080:
001c3a 940e 2331 	CALL SUBOPT_0x31
001c3c efef      	LDI  R30,LOW(255)
001c3d 93ea      	ST   -Y,R30
001c3e 85ad      	LDD  R26,Y+13
001c3f dece      	RCALL _ks0108_wrmasked_G100
                 _0x2000077:
                 _0x200006D:
001c40 cfc3      	RJMP _0x2000069
                 _0x200006B:
001c41 85ef      	LDD  R30,Y+15
001c42 5fe8      	SUBI R30,-LOW(8)
001c43 87ef      	STD  Y+15,R30
001c44 85ed      	LDD  R30,Y+13
001c45 50e8      	SUBI R30,LOW(8)
001c46 87ed      	STD  Y+13,R30
001c47 c0cf      	RJMP _0x2000081
                 _0x2000058:
001c48 855d      	LDD  R21,Y+13
001c49 e020      	LDI  R18,LOW(0)
001c4a e0e0      	LDI  R30,LOW(0)
001c4b 87ed      	STD  Y+13,R30
001c4c c07a      	RJMP _0x2000082
                 _0x2000057:
001c4d 2fe3      	MOV  R30,R19
001c4e 85ad      	LDD  R26,Y+13
001c4f 0fae      	ADD  R26,R30
001c50 30a9      	CPI  R26,LOW(0x9)
001c51 f420      	BRSH _0x2000083
001c52 852d      	LDD  R18,Y+13
001c53 e0e0      	LDI  R30,LOW(0)
001c54 87ed      	STD  Y+13,R30
001c55 c003      	RJMP _0x2000084
                 _0x2000083:
001c56 e0e8      	LDI  R30,LOW(8)
001c57 1be3      	SUB  R30,R19
001c58 2f2e      	MOV  R18,R30
                 _0x2000084:
001c59 933a      	ST   -Y,R19
001c5a 2fa2      	MOV  R26,R18
001c5b 940e 214c 	CALL _glcd_getmask
001c5d 2f4e      	MOV  R20,R30
001c5e 85e9      	LDD  R30,Y+9
001c5f 30e6      	CPI  R30,LOW(0x6)
001c60 f4f1      	BRNE _0x2000088
                 _0x2000089:
001c61 931f      	PUSH R17
001c62 5f1f      	SUBI R17,-1
001c63 85ee      	LDD  R30,Y+14
001c64 91af      	POP  R26
001c65 17ae      	CP   R26,R30
001c66 f4b8      	BRSH _0x200008B
001c67 940e 2337 	CALL SUBOPT_0x32
001c69 2fae      	MOV  R26,R30
001c6a 2fe3      	MOV  R30,R19
001c6b 940e 23f1 	CALL __LSRB12
001c6d 940e 233e 	CALL SUBOPT_0x33
001c6f 2fe3      	MOV  R30,R19
001c70 2fa4      	MOV  R26,R20
001c71 940e 23f1 	CALL __LSRB12
001c73 95e0      	COM  R30
001c74 21e1      	AND  R30,R1
001c75 2b5e      	OR   R21,R30
001c76 940e 231e 	CALL SUBOPT_0x2E
001c78 93fa      	ST   -Y,R31
001c79 93ea      	ST   -Y,R30
001c7a 2fa5      	MOV  R26,R21
001c7b 940e 219e 	CALL _glcd_writemem
001c7d cfe3      	RJMP _0x2000089
                 _0x200008B:
001c7e c02c      	RJMP _0x2000087
                 _0x2000088:
001c7f 30e9      	CPI  R30,LOW(0x9)
001c80 f411      	BRNE _0x200008C
001c81 e050      	LDI  R21,LOW(0)
001c82 c003      	RJMP _0x200008D
                 _0x200008C:
001c83 30ea      	CPI  R30,LOW(0xA)
001c84 f4a9      	BRNE _0x2000093
001c85 ef5f      	LDI  R21,LOW(255)
                 _0x200008D:
001c86 940e 232d 	CALL SUBOPT_0x30
001c88 2fae      	MOV  R26,R30
001c89 2fe3      	MOV  R30,R19
001c8a 940e 23e9 	CALL __LSLB12
001c8c 2f5e      	MOV  R21,R30
                 _0x2000090:
001c8d 931f      	PUSH R17
001c8e 5f1f      	SUBI R17,-1
001c8f 85ee      	LDD  R30,Y+14
001c90 91af      	POP  R26
001c91 17ae      	CP   R26,R30
001c92 f430      	BRSH _0x2000092
001c93 940e 2331 	CALL SUBOPT_0x31
001c95 934a      	ST   -Y,R20
001c96 e0a0      	LDI  R26,LOW(0)
001c97 de76      	RCALL _ks0108_wrmasked_G100
001c98 cff4      	RJMP _0x2000090
                 _0x2000092:
001c99 c011      	RJMP _0x2000087
                 _0x2000093:
                 _0x2000094:
001c9a 931f      	PUSH R17
001c9b 5f1f      	SUBI R17,-1
001c9c 85ee      	LDD  R30,Y+14
001c9d 91af      	POP  R26
001c9e 17ae      	CP   R26,R30
001c9f f458      	BRSH _0x2000096
001ca0 940e 2349 	CALL SUBOPT_0x34
001ca2 2fae      	MOV  R26,R30
001ca3 2fe3      	MOV  R30,R19
001ca4 940e 23e9 	CALL __LSLB12
001ca6 93ea      	ST   -Y,R30
001ca7 934a      	ST   -Y,R20
001ca8 85ad      	LDD  R26,Y+13
001ca9 de64      	RCALL _ks0108_wrmasked_G100
001caa cfef      	RJMP _0x2000094
                 _0x2000096:
                 _0x2000087:
001cab 85ed      	LDD  R30,Y+13
001cac 30e0      	CPI  R30,0
001cad f409      	BRNE _0x2000097
001cae c071      	RJMP _0x2000056
                 _0x2000097:
001caf 85ad      	LDD  R26,Y+13
001cb0 30a8      	CPI  R26,LOW(0x8)
001cb1 f428      	BRSH _0x2000098
001cb2 85ed      	LDD  R30,Y+13
001cb3 1be2      	SUB  R30,R18
001cb4 2f5e      	MOV  R21,R30
001cb5 e0e0      	LDI  R30,LOW(0)
001cb6 c003      	RJMP _0x20000AF
                 _0x2000098:
001cb7 2f53      	MOV  R21,R19
001cb8 85ed      	LDD  R30,Y+13
001cb9 50e8      	SUBI R30,LOW(8)
                 _0x20000AF:
001cba 87ed      	STD  Y+13,R30
001cbb e010      	LDI  R17,LOW(0)
001cbc 85ef      	LDD  R30,Y+15
001cbd 5fe8      	SUBI R30,-LOW(8)
001cbe 87ef      	STD  Y+15,R30
001cbf e0e8      	LDI  R30,LOW(8)
001cc0 1be3      	SUB  R30,R19
001cc1 2f2e      	MOV  R18,R30
001cc2 8908      	LDD  R16,Y+16
001cc3 85ea      	LDD  R30,Y+10
001cc4 85fb      	LDD  R31,Y+10+1
001cc5 83ee      	STD  Y+6,R30
001cc6 83ff      	STD  Y+6+1,R31
                 _0x2000082:
001cc7 2fe5      	MOV  R30,R21
001cc8 e0f0      	LDI  R31,0
001cc9 58e8      	SUBI R30,LOW(-__glcd_mask*2)
001cca 4ef3      	SBCI R31,HIGH(-__glcd_mask*2)
001ccb 9144      	LPM  R20,Z
001ccc 85e9      	LDD  R30,Y+9
001ccd 30e6      	CPI  R30,LOW(0x6)
001cce f4e1      	BRNE _0x200009D
                 _0x200009E:
001ccf 931f      	PUSH R17
001cd0 5f1f      	SUBI R17,-1
001cd1 85ee      	LDD  R30,Y+14
001cd2 91af      	POP  R26
001cd3 17ae      	CP   R26,R30
001cd4 f4a8      	BRSH _0x20000A0
001cd5 940e 2337 	CALL SUBOPT_0x32
001cd7 2fae      	MOV  R26,R30
001cd8 2fe2      	MOV  R30,R18
001cd9 940e 23e9 	CALL __LSLB12
001cdb 940e 233e 	CALL SUBOPT_0x33
001cdd 2fe2      	MOV  R30,R18
001cde 2fa4      	MOV  R26,R20
001cdf 940e 21f3 	CALL SUBOPT_0x6
001ce1 2b5e      	OR   R21,R30
001ce2 940e 231e 	CALL SUBOPT_0x2E
001ce4 93fa      	ST   -Y,R31
001ce5 93ea      	ST   -Y,R30
001ce6 2fa5      	MOV  R26,R21
001ce7 940e 219e 	CALL _glcd_writemem
001ce9 cfe5      	RJMP _0x200009E
                 _0x20000A0:
001cea c02c      	RJMP _0x200009C
                 _0x200009D:
001ceb 30e9      	CPI  R30,LOW(0x9)
001cec f411      	BRNE _0x20000A1
001ced e050      	LDI  R21,LOW(0)
001cee c003      	RJMP _0x20000A2
                 _0x20000A1:
001cef 30ea      	CPI  R30,LOW(0xA)
001cf0 f4a9      	BRNE _0x20000A8
001cf1 ef5f      	LDI  R21,LOW(255)
                 _0x20000A2:
001cf2 940e 232d 	CALL SUBOPT_0x30
001cf4 2fae      	MOV  R26,R30
001cf5 2fe2      	MOV  R30,R18
001cf6 940e 23f1 	CALL __LSRB12
001cf8 2f5e      	MOV  R21,R30
                 _0x20000A5:
001cf9 931f      	PUSH R17
001cfa 5f1f      	SUBI R17,-1
001cfb 85ee      	LDD  R30,Y+14
001cfc 91af      	POP  R26
001cfd 17ae      	CP   R26,R30
001cfe f430      	BRSH _0x20000A7
001cff 940e 2331 	CALL SUBOPT_0x31
001d01 934a      	ST   -Y,R20
001d02 e0a0      	LDI  R26,LOW(0)
001d03 de0a      	RCALL _ks0108_wrmasked_G100
001d04 cff4      	RJMP _0x20000A5
                 _0x20000A7:
001d05 c011      	RJMP _0x200009C
                 _0x20000A8:
                 _0x20000A9:
001d06 931f      	PUSH R17
001d07 5f1f      	SUBI R17,-1
001d08 85ee      	LDD  R30,Y+14
001d09 91af      	POP  R26
001d0a 17ae      	CP   R26,R30
001d0b f458      	BRSH _0x20000AB
001d0c 940e 2349 	CALL SUBOPT_0x34
001d0e 2fae      	MOV  R26,R30
001d0f 2fe2      	MOV  R30,R18
001d10 940e 23f1 	CALL __LSRB12
001d12 93ea      	ST   -Y,R30
001d13 934a      	ST   -Y,R20
001d14 85ad      	LDD  R26,Y+13
001d15 ddf8      	RCALL _ks0108_wrmasked_G100
001d16 cfef      	RJMP _0x20000A9
                 _0x20000AB:
                 _0x200009C:
                 _0x2000081:
001d17 85e8      	LDD  R30,Y+8
001d18 85aa      	LDD  R26,Y+10
001d19 85bb      	LDD  R27,Y+10+1
001d1a e0f0      	LDI  R31,0
001d1b 0fea      	ADD  R30,R26
001d1c 1ffb      	ADC  R31,R27
001d1d 87ea      	STD  Y+10,R30
001d1e 87fb      	STD  Y+10+1,R31
001d1f cebb      	RJMP _0x2000054
                 _0x2000056:
                 _0x212000C:
001d20 940e 247f 	CALL __LOADLOCR6
001d22 9661      	ADIW R28,17
001d23 9508      	RET
                 ; .FEND
                 
                 	.CSEG
                 _glcd_clipx:
                 ; .FSTART _glcd_clipx
001d24 940e 2356 	CALL SUBOPT_0x35
001d26 f024      	BRLT _0x2020003
001d27 e0e0      	LDI  R30,LOW(0)
001d28 e0f0      	LDI  R31,HIGH(0)
001d29 940c 2155 	JMP  _0x2120003
                 _0x2020003:
001d2b 81a8      	LD   R26,Y
001d2c 81b9      	LDD  R27,Y+1
001d2d 38a0      	CPI  R26,LOW(0x80)
001d2e e0e0      	LDI  R30,HIGH(0x80)
001d2f 07be      	CPC  R27,R30
001d30 f024      	BRLT _0x2020004
001d31 e7ef      	LDI  R30,LOW(127)
001d32 e0f0      	LDI  R31,HIGH(127)
001d33 940c 2155 	JMP  _0x2120003
                 _0x2020004:
001d35 81e8      	LD   R30,Y
001d36 81f9      	LDD  R31,Y+1
001d37 940c 2155 	JMP  _0x2120003
                 ; .FEND
                 _glcd_clipy:
                 ; .FSTART _glcd_clipy
001d39 940e 2356 	CALL SUBOPT_0x35
001d3b f024      	BRLT _0x2020005
001d3c e0e0      	LDI  R30,LOW(0)
001d3d e0f0      	LDI  R31,HIGH(0)
001d3e 940c 2155 	JMP  _0x2120003
                 _0x2020005:
001d40 81a8      	LD   R26,Y
001d41 81b9      	LDD  R27,Y+1
001d42 34a0      	CPI  R26,LOW(0x40)
001d43 e0e0      	LDI  R30,HIGH(0x40)
001d44 07be      	CPC  R27,R30
001d45 f024      	BRLT _0x2020006
001d46 e3ef      	LDI  R30,LOW(63)
001d47 e0f0      	LDI  R31,HIGH(63)
001d48 940c 2155 	JMP  _0x2120003
                 _0x2020006:
001d4a 81e8      	LD   R30,Y
001d4b 81f9      	LDD  R31,Y+1
001d4c 940c 2155 	JMP  _0x2120003
                 ; .FEND
                 _glcd_setpixel:
                 ; .FSTART _glcd_setpixel
001d4e 93aa      	ST   -Y,R26
001d4f 81e9      	LDD  R30,Y+1
001d50 93ea      	ST   -Y,R30
001d51 81e9      	LDD  R30,Y+1
001d52 93ea      	ST   -Y,R30
001d53 91a0 094e 	LDS  R26,_glcd_state
001d55 dd91      	RCALL _glcd_putpixel
001d56 940c 2155 	JMP  _0x2120003
                 ; .FEND
                 _glcd_getcharw_G101:
                 ; .FSTART _glcd_getcharw_G101
001d58 93ba      	ST   -Y,R27
001d59 93aa      	ST   -Y,R26
001d5a 9723      	SBIW R28,3
001d5b 940e 235d 	CALL SUBOPT_0x36
001d5d 018f      	MOVW R16,R30
001d5e 2e00      	MOV  R0,R16
001d5f 2a01      	OR   R0,R17
001d60 f419      	BRNE _0x202000B
001d61 e0e0      	LDI  R30,LOW(0)
001d62 e0f0      	LDI  R31,HIGH(0)
001d63 c05f      	RJMP _0x212000B
                 _0x202000B:
001d64 940e 2364 	CALL SUBOPT_0x37
001d66 820f      	STD  Y+7,R0
001d67 940e 2364 	CALL SUBOPT_0x37
001d69 820e      	STD  Y+6,R0
001d6a 940e 2364 	CALL SUBOPT_0x37
001d6c 8608      	STD  Y+8,R0
001d6d 85eb      	LDD  R30,Y+11
001d6e 85a8      	LDD  R26,Y+8
001d6f 17ea      	CP   R30,R26
001d70 f418      	BRSH _0x202000C
001d71 e0e0      	LDI  R30,LOW(0)
001d72 e0f0      	LDI  R31,HIGH(0)
001d73 c04f      	RJMP _0x212000B
                 _0x202000C:
001d74 01f8      	MOVW R30,R16
                +
001d75 5f0f     +SUBI R16 , LOW ( - 1 )
001d76 4f1f     +SBCI R17 , HIGH ( - 1 )
                 	__ADDWRN 16,17,1
001d77 9154      	LPM  R21,Z
001d78 85a8      	LDD  R26,Y+8
001d79 27bb      	CLR  R27
001d7a 27ee      	CLR  R30
001d7b 0fa5      	ADD  R26,R21
001d7c 1fbe      	ADC  R27,R30
001d7d 85eb      	LDD  R30,Y+11
001d7e e0f0      	LDI  R31,0
001d7f 17ea      	CP   R30,R26
001d80 07fb      	CPC  R31,R27
001d81 f018      	BRLO _0x202000D
001d82 e0e0      	LDI  R30,LOW(0)
001d83 e0f0      	LDI  R31,HIGH(0)
001d84 c03e      	RJMP _0x212000B
                 _0x202000D:
001d85 81ee      	LDD  R30,Y+6
001d86 95e6      	LSR  R30
001d87 95e6      	LSR  R30
001d88 95e6      	LSR  R30
001d89 2f4e      	MOV  R20,R30
001d8a 81ee      	LDD  R30,Y+6
001d8b 70e7      	ANDI R30,LOW(0x7)
001d8c f009      	BREQ _0x202000E
001d8d 5f4f      	SUBI R20,-LOW(1)
                 _0x202000E:
001d8e 81ef      	LDD  R30,Y+7
001d8f 30e0      	CPI  R30,0
001d90 f0a1      	BREQ _0x202000F
001d91 85a9      	LDD  R26,Y+9
001d92 85ba      	LDD  R27,Y+9+1
001d93 93ec      	ST   X,R30
001d94 85a8      	LDD  R26,Y+8
001d95 85eb      	LDD  R30,Y+11
001d96 1bea      	SUB  R30,R26
001d97 e0f0      	LDI  R31,0
001d98 01df      	MOVW R26,R30
001d99 81ef      	LDD  R30,Y+7
001d9a e0f0      	LDI  R31,0
001d9b 940e 240d 	CALL __MULW12U
001d9d 01df      	MOVW R26,R30
001d9e 2fe4      	MOV  R30,R20
001d9f e0f0      	LDI  R31,0
001da0 940e 240d 	CALL __MULW12U
001da2 0fe0      	ADD  R30,R16
001da3 1ff1      	ADC  R31,R17
001da4 c01e      	RJMP _0x212000B
                 _0x202000F:
001da5 0198      	MOVW R18,R16
001da6 2fe5      	MOV  R30,R21
001da7 e0f0      	LDI  R31,0
                +
001da8 0f0e     +ADD R16 , R30
001da9 1f1f     +ADC R17 , R31
                 	__ADDWRR 16,17,30,31
                 _0x2020010:
001daa 85a8      	LDD  R26,Y+8
001dab 5faf      	SUBI R26,-LOW(1)
001dac 87a8      	STD  Y+8,R26
001dad 50a1      	SUBI R26,LOW(1)
001dae 85eb      	LDD  R30,Y+11
001daf 17ae      	CP   R26,R30
001db0 f460      	BRSH _0x2020012
001db1 01f9      	MOVW R30,R18
                +
001db2 5f2f     +SUBI R18 , LOW ( - 1 )
001db3 4f3f     +SBCI R19 , HIGH ( - 1 )
                 	__ADDWRN 18,19,1
001db4 91a4      	LPM  R26,Z
001db5 e0b0      	LDI  R27,0
001db6 2fe4      	MOV  R30,R20
001db7 e0f0      	LDI  R31,0
001db8 940e 240d 	CALL __MULW12U
                +
001dba 0f0e     +ADD R16 , R30
001dbb 1f1f     +ADC R17 , R31
                 	__ADDWRR 16,17,30,31
001dbc cfed      	RJMP _0x2020010
                 _0x2020012:
001dbd 01f9      	MOVW R30,R18
001dbe 91e4      	LPM  R30,Z
001dbf 85a9      	LDD  R26,Y+9
001dc0 85ba      	LDD  R27,Y+9+1
001dc1 93ec      	ST   X,R30
001dc2 01f8      	MOVW R30,R16
                 _0x212000B:
001dc3 940e 247f 	CALL __LOADLOCR6
001dc5 962c      	ADIW R28,12
001dc6 9508      	RET
                 ; .FEND
                 _glcd_new_line_G101:
                 ; .FSTART _glcd_new_line_G101
001dc7 e0e0      	LDI  R30,LOW(0)
                +
001dc8 93e0 0950+STS _glcd_state + ( 2 ) , R30
                 	__PUTB1MN _glcd_state,2
                +
001dca 91a0 0951+LDS R26 , _glcd_state + ( 3 )
                 	__GETB2MN _glcd_state,3
001dcc 27bb      	CLR  R27
001dcd 940e 2369 	CALL SUBOPT_0x38
001dcf e0f0      	LDI  R31,0
001dd0 0fae      	ADD  R26,R30
001dd1 1fbf      	ADC  R27,R31
                +
001dd2 91e0 0955+LDS R30 , _glcd_state + ( 7 )
                 	__GETB1MN _glcd_state,7
001dd4 e0f0      	LDI  R31,0
001dd5 0fae      	ADD  R26,R30
001dd6 1fbf      	ADC  R27,R31
001dd7 df61      	RCALL _glcd_clipy
                +
001dd8 93e0 0951+STS _glcd_state + ( 3 ) , R30
                 	__PUTB1MN _glcd_state,3
001dda 9508      	RET
                 ; .FEND
                 _glcd_putchar:
                 ; .FSTART _glcd_putchar
001ddb 93aa      	ST   -Y,R26
001ddc 9721      	SBIW R28,1
001ddd 940e 235d 	CALL SUBOPT_0x36
001ddf 9730      	SBIW R30,0
001de0 f409      	BRNE PC+2
001de1 c055      	RJMP _0x202001F
001de2 81af      	LDD  R26,Y+7
001de3 30aa      	CPI  R26,LOW(0xA)
001de4 f409      	BRNE _0x2020020
001de5 c04f      	RJMP _0x2020021
                 _0x2020020:
001de6 81ef      	LDD  R30,Y+7
001de7 93ea      	ST   -Y,R30
001de8 01de      	MOVW R26,R28
001de9 9617      	ADIW R26,7
001dea df6d      	RCALL _glcd_getcharw_G101
001deb 01af      	MOVW R20,R30
001dec 9730      	SBIW R30,0
001ded f409      	BRNE _0x2020022
001dee c04a      	RJMP _0x212000A
                 _0x2020022:
                +
001def 91e0 0954+LDS R30 , _glcd_state + ( 6 )
                 	__GETB1MN _glcd_state,6
001df1 81ae      	LDD  R26,Y+6
001df2 0fea      	ADD  R30,R26
001df3 2f3e      	MOV  R19,R30
                +
001df4 91a0 0950+LDS R26 , _glcd_state + ( 2 )
                 	__GETB2MN _glcd_state,2
001df6 27bb      	CLR  R27
001df7 e0f0      	LDI  R31,0
001df8 0fea      	ADD  R30,R26
001df9 1ffb      	ADC  R31,R27
001dfa 018f      	MOVW R16,R30
                +
001dfb 3801     +CPI R16 , LOW ( 129 )
001dfc e0e0     +LDI R30 , HIGH ( 129 )
001dfd 071e     +CPC R17 , R30
                 	__CPWRN 16,17,129
001dfe f018      	BRLO _0x2020023
001dff 2f03      	MOV  R16,R19
001e00 2711      	CLR  R17
001e01 dfc5      	RCALL _glcd_new_line_G101
                 _0x2020023:
                +
001e02 91e0 0950+LDS R30 , _glcd_state + ( 2 )
                 	__GETB1MN _glcd_state,2
001e04 93ea      	ST   -Y,R30
                +
001e05 91e0 0951+LDS R30 , _glcd_state + ( 3 )
                 	__GETB1MN _glcd_state,3
001e07 93ea      	ST   -Y,R30
001e08 85e8      	LDD  R30,Y+8
001e09 93ea      	ST   -Y,R30
001e0a 940e 2369 	CALL SUBOPT_0x38
001e0c 93ea      	ST   -Y,R30
001e0d e0e1      	LDI  R30,LOW(1)
001e0e 93ea      	ST   -Y,R30
001e0f 935a      	ST   -Y,R21
001e10 934a      	ST   -Y,R20
001e11 e0a7      	LDI  R26,LOW(7)
001e12 dd36      	RCALL _glcd_block
                +
001e13 91e0 0950+LDS R30 , _glcd_state + ( 2 )
                 	__GETB1MN _glcd_state,2
001e15 81ae      	LDD  R26,Y+6
001e16 0fea      	ADD  R30,R26
001e17 93ea      	ST   -Y,R30
                +
001e18 91e0 0951+LDS R30 , _glcd_state + ( 3 )
                 	__GETB1MN _glcd_state,3
001e1a 93ea      	ST   -Y,R30
                +
001e1b 91e0 0954+LDS R30 , _glcd_state + ( 6 )
                 	__GETB1MN _glcd_state,6
001e1d 93ea      	ST   -Y,R30
001e1e 940e 2369 	CALL SUBOPT_0x38
001e20 940e 2370 	CALL SUBOPT_0x39
                +
001e22 91e0 0950+LDS R30 , _glcd_state + ( 2 )
                 	__GETB1MN _glcd_state,2
001e24 93ea      	ST   -Y,R30
                +
001e25 91a0 0951+LDS R26 , _glcd_state + ( 3 )
                 	__GETB2MN _glcd_state,3
001e27 940e 2369 	CALL SUBOPT_0x38
001e29 0fea      	ADD  R30,R26
001e2a 93ea      	ST   -Y,R30
001e2b 933a      	ST   -Y,R19
                +
001e2c 91e0 0955+LDS R30 , _glcd_state + ( 7 )
                 	__GETB1MN _glcd_state,7
001e2e 940e 2370 	CALL SUBOPT_0x39
001e30 e8e0      	LDI  R30,LOW(128)
001e31 e0f0      	LDI  R31,HIGH(128)
001e32 17e0      	CP   R30,R16
001e33 07f1      	CPC  R31,R17
001e34 f411      	BRNE _0x2020024
                 _0x2020021:
001e35 df91      	RCALL _glcd_new_line_G101
001e36 c002      	RJMP _0x212000A
                 _0x2020024:
                 _0x202001F:
                +
001e37 9300 0950+STS _glcd_state + ( 2 ) , R16
                 	__PUTBMRN _glcd_state,2,16
                 _0x212000A:
001e39 940e 247f 	CALL __LOADLOCR6
001e3b 9628      	ADIW R28,8
001e3c 9508      	RET
                 ; .FEND
                 _glcd_outtextxy:
                 ; .FSTART _glcd_outtextxy
001e3d 93ba      	ST   -Y,R27
001e3e 93aa      	ST   -Y,R26
001e3f 931a      	ST   -Y,R17
001e40 81ec      	LDD  R30,Y+4
001e41 93ea      	ST   -Y,R30
001e42 81ac      	LDD  R26,Y+4
001e43 d00e      	RCALL _glcd_moveto
                 _0x2020025:
001e44 81a9      	LDD  R26,Y+1
001e45 81ba      	LDD  R27,Y+1+1
001e46 91ed      	LD   R30,X+
001e47 83a9      	STD  Y+1,R26
001e48 83ba      	STD  Y+1+1,R27
001e49 2f1e      	MOV  R17,R30
001e4a 30e0      	CPI  R30,0
001e4b f019      	BREQ _0x2020027
001e4c 2fa1      	MOV  R26,R17
001e4d df8d      	RCALL _glcd_putchar
001e4e cff5      	RJMP _0x2020025
                 _0x2020027:
001e4f 8118      	LDD  R17,Y+0
001e50 940c 2052 	JMP  _0x2120006
                 ; .FEND
                 _glcd_moveto:
                 ; .FSTART _glcd_moveto
001e52 93aa      	ST   -Y,R26
001e53 81a9      	LDD  R26,Y+1
001e54 27bb      	CLR  R27
001e55 dece      	RCALL _glcd_clipx
                +
001e56 93e0 0950+STS _glcd_state + ( 2 ) , R30
                 	__PUTB1MN _glcd_state,2
001e58 81a8      	LD   R26,Y
001e59 27bb      	CLR  R27
001e5a dede      	RCALL _glcd_clipy
                +
001e5b 93e0 0951+STS _glcd_state + ( 3 ) , R30
                 	__PUTB1MN _glcd_state,3
001e5d 940c 2155 	JMP  _0x2120003
                 ; .FEND
                 	#ifndef __SLEEP_DEFINED__
                 	#endif
                 
                 	.CSEG
                 _putchar:
                 ; .FSTART _putchar
001e5f 93aa      	ST   -Y,R26
                 putchar0:
001e60 9b5d           sbis usr,udre
001e61 cffe           rjmp putchar0
001e62 81e8           ld   r30,y
001e63 b9ec           out  udr,r30
                 _0x2120009:
001e64 9621      	ADIW R28,1
001e65 9508      	RET
                 ; .FEND
                 _put_usart_G103:
                 ; .FSTART _put_usart_G103
001e66 93ba      	ST   -Y,R27
001e67 93aa      	ST   -Y,R26
001e68 81aa      	LDD  R26,Y+2
001e69 dff5      	RCALL _putchar
001e6a 81a8      	LD   R26,Y
001e6b 81b9      	LDD  R27,Y+1
001e6c 940e 237a 	CALL SUBOPT_0x3A
001e6e 940c 219c 	JMP  _0x2120002
                 ; .FEND
                 _put_buff_G103:
                 ; .FSTART _put_buff_G103
001e70 93ba      	ST   -Y,R27
001e71 93aa      	ST   -Y,R26
001e72 931a      	ST   -Y,R17
001e73 930a      	ST   -Y,R16
001e74 81aa      	LDD  R26,Y+2
001e75 81bb      	LDD  R27,Y+2+1
001e76 9612      	ADIW R26,2
001e77 940e 243b 	CALL __GETW1P
001e79 9730      	SBIW R30,0
001e7a f129      	BREQ _0x2060010
001e7b 81aa      	LDD  R26,Y+2
001e7c 81bb      	LDD  R27,Y+2+1
001e7d 9614      	ADIW R26,4
001e7e 940e 243b 	CALL __GETW1P
001e80 018f      	MOVW R16,R30
001e81 9730      	SBIW R30,0
001e82 f061      	BREQ _0x2060012
                +
001e83 3002     +CPI R16 , LOW ( 2 )
001e84 e0e0     +LDI R30 , HIGH ( 2 )
001e85 071e     +CPC R17 , R30
                 	__CPWRN 16,17,2
001e86 f080      	BRLO _0x2060013
001e87 01f8      	MOVW R30,R16
001e88 9731      	SBIW R30,1
001e89 018f      	MOVW R16,R30
                +
001e8a 81aa     +LDD R26 , Y + 2
001e8b 81bb     +LDD R27 , Y + 2 + 1
001e8c 9614     +ADIW R26 , 4
001e8d 93ed     +ST X + , R30
001e8e 93fc     +ST X , R31
                 	__PUTW1SNS 2,4
                 _0x2060012:
001e8f 81aa      	LDD  R26,Y+2
001e90 81bb      	LDD  R27,Y+2+1
001e91 9612      	ADIW R26,2
001e92 940e 237a 	CALL SUBOPT_0x3A
001e94 9731      	SBIW R30,1
001e95 81ac      	LDD  R26,Y+4
001e96 83a0      	STD  Z+0,R26
                 _0x2060013:
001e97 81aa      	LDD  R26,Y+2
001e98 81bb      	LDD  R27,Y+2+1
001e99 940e 243b 	CALL __GETW1P
001e9b 23ff      	TST  R31
001e9c f012      	BRMI _0x2060014
001e9d 940e 237a 	CALL SUBOPT_0x3A
                 _0x2060014:
001e9f c006      	RJMP _0x2060015
                 _0x2060010:
001ea0 81aa      	LDD  R26,Y+2
001ea1 81bb      	LDD  R27,Y+2+1
001ea2 efef      	LDI  R30,LOW(65535)
001ea3 efff      	LDI  R31,HIGH(65535)
001ea4 93ed      	ST   X+,R30
001ea5 93fc      	ST   X,R31
                 _0x2060015:
001ea6 8119      	LDD  R17,Y+1
001ea7 8108      	LDD  R16,Y+0
001ea8 c1a9      	RJMP _0x2120006
                 ; .FEND
                 __print_G103:
                 ; .FSTART __print_G103
001ea9 93ba      	ST   -Y,R27
001eaa 93aa      	ST   -Y,R26
001eab 9726      	SBIW R28,6
001eac 940e 2478 	CALL __SAVELOCR6
001eae e010      	LDI  R17,0
001eaf 85ac      	LDD  R26,Y+12
001eb0 85bd      	LDD  R27,Y+12+1
001eb1 e0e0      	LDI  R30,LOW(0)
001eb2 e0f0      	LDI  R31,HIGH(0)
001eb3 93ed      	ST   X+,R30
001eb4 93fc      	ST   X,R31
                 _0x2060016:
001eb5 89ea      	LDD  R30,Y+18
001eb6 89fb      	LDD  R31,Y+18+1
001eb7 9631      	ADIW R30,1
001eb8 8bea      	STD  Y+18,R30
001eb9 8bfb      	STD  Y+18+1,R31
001eba 9731      	SBIW R30,1
001ebb 91e4      	LPM  R30,Z
001ebc 2f2e      	MOV  R18,R30
001ebd 30e0      	CPI  R30,0
001ebe f409      	BRNE PC+2
001ebf c115      	RJMP _0x2060018
001ec0 2fe1      	MOV  R30,R17
001ec1 30e0      	CPI  R30,0
001ec2 f439      	BRNE _0x206001C
001ec3 3225      	CPI  R18,37
001ec4 f411      	BRNE _0x206001D
001ec5 e011      	LDI  R17,LOW(1)
001ec6 c002      	RJMP _0x206001E
                 _0x206001D:
001ec7 940e 2380 	CALL SUBOPT_0x3B
                 _0x206001E:
001ec9 c10a      	RJMP _0x206001B
                 _0x206001C:
001eca 30e1      	CPI  R30,LOW(0x1)
001ecb f4a9      	BRNE _0x206001F
001ecc 3225      	CPI  R18,37
001ecd f419      	BRNE _0x2060020
001ece 940e 2380 	CALL SUBOPT_0x3B
001ed0 c102      	RJMP _0x20600CC
                 _0x2060020:
001ed1 e012      	LDI  R17,LOW(2)
001ed2 e040      	LDI  R20,LOW(0)
001ed3 e000      	LDI  R16,LOW(0)
001ed4 322d      	CPI  R18,45
001ed5 f411      	BRNE _0x2060021
001ed6 e001      	LDI  R16,LOW(1)
001ed7 c0fc      	RJMP _0x206001B
                 _0x2060021:
001ed8 322b      	CPI  R18,43
001ed9 f411      	BRNE _0x2060022
001eda e24b      	LDI  R20,LOW(43)
001edb c0f8      	RJMP _0x206001B
                 _0x2060022:
001edc 3220      	CPI  R18,32
001edd f411      	BRNE _0x2060023
001ede e240      	LDI  R20,LOW(32)
001edf c0f4      	RJMP _0x206001B
                 _0x2060023:
001ee0 c002      	RJMP _0x2060024
                 _0x206001F:
001ee1 30e2      	CPI  R30,LOW(0x2)
001ee2 f439      	BRNE _0x2060025
                 _0x2060024:
001ee3 e050      	LDI  R21,LOW(0)
001ee4 e013      	LDI  R17,LOW(3)
001ee5 3320      	CPI  R18,48
001ee6 f411      	BRNE _0x2060026
001ee7 6800      	ORI  R16,LOW(128)
001ee8 c0eb      	RJMP _0x206001B
                 _0x2060026:
001ee9 c003      	RJMP _0x2060027
                 _0x2060025:
001eea 30e3      	CPI  R30,LOW(0x3)
001eeb f009      	BREQ PC+2
001eec c0e7      	RJMP _0x206001B
                 _0x2060027:
001eed 3320      	CPI  R18,48
001eee f010      	BRLO _0x206002A
001eef 332a      	CPI  R18,58
001ef0 f008      	BRLO _0x206002B
                 _0x206002A:
001ef1 c007      	RJMP _0x2060029
                 _0x206002B:
001ef2 e0aa      	LDI  R26,LOW(10)
001ef3 9f5a      	MUL  R21,R26
001ef4 2d50      	MOV  R21,R0
001ef5 2fe2      	MOV  R30,R18
001ef6 53e0      	SUBI R30,LOW(48)
001ef7 0f5e      	ADD  R21,R30
001ef8 c0db      	RJMP _0x206001B
                 _0x2060029:
001ef9 2fe2      	MOV  R30,R18
001efa 36e3      	CPI  R30,LOW(0x63)
001efb f449      	BRNE _0x206002F
001efc 940e 2387 	CALL SUBOPT_0x3C
001efe 89e8      	LDD  R30,Y+16
001eff 89f9      	LDD  R31,Y+16+1
001f00 81a4      	LDD  R26,Z+4
001f01 93aa      	ST   -Y,R26
001f02 940e 238d 	CALL SUBOPT_0x3D
001f04 c0ce      	RJMP _0x2060030
                 _0x206002F:
001f05 37e3      	CPI  R30,LOW(0x73)
001f06 f441      	BRNE _0x2060032
001f07 940e 2387 	CALL SUBOPT_0x3C
001f09 940e 2393 	CALL SUBOPT_0x3E
001f0b 940e 2075 	CALL _strlen
001f0d 2f1e      	MOV  R17,R30
001f0e c00a      	RJMP _0x2060033
                 _0x2060032:
001f0f 37e0      	CPI  R30,LOW(0x70)
001f10 f461      	BRNE _0x2060035
001f11 940e 2387 	CALL SUBOPT_0x3C
001f13 940e 2393 	CALL SUBOPT_0x3E
001f15 940e 2081 	CALL _strlenf
001f17 2f1e      	MOV  R17,R30
001f18 6008      	ORI  R16,LOW(8)
                 _0x2060033:
001f19 6002      	ORI  R16,LOW(2)
001f1a 770f      	ANDI R16,LOW(127)
001f1b e030      	LDI  R19,LOW(0)
001f1c c034      	RJMP _0x2060036
                 _0x2060035:
001f1d 36e4      	CPI  R30,LOW(0x64)
001f1e f011      	BREQ _0x2060039
001f1f 36e9      	CPI  R30,LOW(0x69)
001f20 f411      	BRNE _0x206003A
                 _0x2060039:
001f21 6004      	ORI  R16,LOW(4)
001f22 c002      	RJMP _0x206003B
                 _0x206003A:
001f23 37e5      	CPI  R30,LOW(0x75)
001f24 f431      	BRNE _0x206003C
                 _0x206003B:
001f25 e8e2      	LDI  R30,LOW(_tbl10_G103*2)
001f26 e1fc      	LDI  R31,HIGH(_tbl10_G103*2)
001f27 83ee      	STD  Y+6,R30
001f28 83ff      	STD  Y+6+1,R31
001f29 e015      	LDI  R17,LOW(5)
001f2a c00c      	RJMP _0x206003D
                 _0x206003C:
001f2b 35e8      	CPI  R30,LOW(0x58)
001f2c f411      	BRNE _0x206003F
001f2d 6008      	ORI  R16,LOW(8)
001f2e c003      	RJMP _0x2060040
                 _0x206003F:
001f2f 37e8      	CPI  R30,LOW(0x78)
001f30 f009      	BREQ PC+2
001f31 c0a1      	RJMP _0x2060071
                 _0x2060040:
001f32 e8ec      	LDI  R30,LOW(_tbl16_G103*2)
001f33 e1fc      	LDI  R31,HIGH(_tbl16_G103*2)
001f34 83ee      	STD  Y+6,R30
001f35 83ff      	STD  Y+6+1,R31
001f36 e014      	LDI  R17,LOW(4)
                 _0x206003D:
001f37 ff02      	SBRS R16,2
001f38 c014      	RJMP _0x2060042
001f39 940e 2387 	CALL SUBOPT_0x3C
001f3b 940e 239d 	CALL SUBOPT_0x3F
001f3d 85ab      	LDD  R26,Y+11
001f3e 23aa      	TST  R26
001f3f f43a      	BRPL _0x2060043
001f40 85ea      	LDD  R30,Y+10
001f41 85fb      	LDD  R31,Y+10+1
001f42 940e 23e5 	CALL __ANEGW1
001f44 87ea      	STD  Y+10,R30
001f45 87fb      	STD  Y+10+1,R31
001f46 e24d      	LDI  R20,LOW(45)
                 _0x2060043:
001f47 3040      	CPI  R20,0
001f48 f011      	BREQ _0x2060044
001f49 5f1f      	SUBI R17,-LOW(1)
001f4a c001      	RJMP _0x2060045
                 _0x2060044:
001f4b 7f0b      	ANDI R16,LOW(251)
                 _0x2060045:
001f4c c004      	RJMP _0x2060046
                 _0x2060042:
001f4d 940e 2387 	CALL SUBOPT_0x3C
001f4f 940e 239d 	CALL SUBOPT_0x3F
                 _0x2060046:
                 _0x2060036:
001f51 fd00      	SBRC R16,0
001f52 c011      	RJMP _0x2060047
                 _0x2060048:
001f53 1715      	CP   R17,R21
001f54 f478      	BRSH _0x206004A
001f55 ff07      	SBRS R16,7
001f56 c008      	RJMP _0x206004B
001f57 ff02      	SBRS R16,2
001f58 c004      	RJMP _0x206004C
001f59 7f0b      	ANDI R16,LOW(251)
001f5a 2f24      	MOV  R18,R20
001f5b 5011      	SUBI R17,LOW(1)
001f5c c001      	RJMP _0x206004D
                 _0x206004C:
001f5d e320      	LDI  R18,LOW(48)
                 _0x206004D:
001f5e c001      	RJMP _0x206004E
                 _0x206004B:
001f5f e220      	LDI  R18,LOW(32)
                 _0x206004E:
001f60 940e 2380 	CALL SUBOPT_0x3B
001f62 5051      	SUBI R21,LOW(1)
001f63 cfef      	RJMP _0x2060048
                 _0x206004A:
                 _0x2060047:
001f64 2f31      	MOV  R19,R17
001f65 ff01      	SBRS R16,1
001f66 c017      	RJMP _0x206004F
                 _0x2060050:
001f67 3030      	CPI  R19,0
001f68 f0a1      	BREQ _0x2060052
001f69 ff03      	SBRS R16,3
001f6a c006      	RJMP _0x2060053
001f6b 81ee      	LDD  R30,Y+6
001f6c 81ff      	LDD  R31,Y+6+1
001f6d 9125      	LPM  R18,Z+
001f6e 83ee      	STD  Y+6,R30
001f6f 83ff      	STD  Y+6+1,R31
001f70 c005      	RJMP _0x2060054
                 _0x2060053:
001f71 81ae      	LDD  R26,Y+6
001f72 81bf      	LDD  R27,Y+6+1
001f73 912d      	LD   R18,X+
001f74 83ae      	STD  Y+6,R26
001f75 83bf      	STD  Y+6+1,R27
                 _0x2060054:
001f76 940e 2380 	CALL SUBOPT_0x3B
001f78 3050      	CPI  R21,0
001f79 f009      	BREQ _0x2060055
001f7a 5051      	SUBI R21,LOW(1)
                 _0x2060055:
001f7b 5031      	SUBI R19,LOW(1)
001f7c cfea      	RJMP _0x2060050
                 _0x2060052:
001f7d c04b      	RJMP _0x2060056
                 _0x206004F:
                 _0x2060058:
001f7e e320      	LDI  R18,LOW(48)
001f7f 81ee      	LDD  R30,Y+6
001f80 81ff      	LDD  R31,Y+6+1
001f81 940e 243f 	CALL __GETW1PF
001f83 87e8      	STD  Y+8,R30
001f84 87f9      	STD  Y+8+1,R31
001f85 81ee      	LDD  R30,Y+6
001f86 81ff      	LDD  R31,Y+6+1
001f87 9632      	ADIW R30,2
001f88 83ee      	STD  Y+6,R30
001f89 83ff      	STD  Y+6+1,R31
                 _0x206005A:
001f8a 85e8      	LDD  R30,Y+8
001f8b 85f9      	LDD  R31,Y+8+1
001f8c 85aa      	LDD  R26,Y+10
001f8d 85bb      	LDD  R27,Y+10+1
001f8e 17ae      	CP   R26,R30
001f8f 07bf      	CPC  R27,R31
001f90 f050      	BRLO _0x206005C
001f91 5f2f      	SUBI R18,-LOW(1)
001f92 85a8      	LDD  R26,Y+8
001f93 85b9      	LDD  R27,Y+8+1
001f94 85ea      	LDD  R30,Y+10
001f95 85fb      	LDD  R31,Y+10+1
001f96 1bea      	SUB  R30,R26
001f97 0bfb      	SBC  R31,R27
001f98 87ea      	STD  Y+10,R30
001f99 87fb      	STD  Y+10+1,R31
001f9a cfef      	RJMP _0x206005A
                 _0x206005C:
001f9b 332a      	CPI  R18,58
001f9c f028      	BRLO _0x206005D
001f9d ff03      	SBRS R16,3
001f9e c002      	RJMP _0x206005E
001f9f 5f29      	SUBI R18,-LOW(7)
001fa0 c001      	RJMP _0x206005F
                 _0x206005E:
001fa1 5d29      	SUBI R18,-LOW(39)
                 _0x206005F:
                 _0x206005D:
001fa2 fd04      	SBRC R16,4
001fa3 c01a      	RJMP _0x2060061
001fa4 3321      	CPI  R18,49
001fa5 f420      	BRSH _0x2060063
001fa6 85a8      	LDD  R26,Y+8
001fa7 85b9      	LDD  R27,Y+8+1
001fa8 9711      	SBIW R26,1
001fa9 f409      	BRNE _0x2060062
                 _0x2060063:
001faa c009      	RJMP _0x20600CD
                 _0x2060062:
001fab 1753      	CP   R21,R19
001fac f010      	BRLO _0x2060067
001fad ff00      	SBRS R16,0
001fae c001      	RJMP _0x2060068
                 _0x2060067:
001faf c013      	RJMP _0x2060066
                 _0x2060068:
001fb0 e220      	LDI  R18,LOW(32)
001fb1 ff07      	SBRS R16,7
001fb2 c00b      	RJMP _0x2060069
001fb3 e320      	LDI  R18,LOW(48)
                 _0x20600CD:
001fb4 6100      	ORI  R16,LOW(16)
001fb5 ff02      	SBRS R16,2
001fb6 c007      	RJMP _0x206006A
001fb7 7f0b      	ANDI R16,LOW(251)
001fb8 934a      	ST   -Y,R20
001fb9 940e 238d 	CALL SUBOPT_0x3D
001fbb 3050      	CPI  R21,0
001fbc f009      	BREQ _0x206006B
001fbd 5051      	SUBI R21,LOW(1)
                 _0x206006B:
                 _0x206006A:
                 _0x2060069:
                 _0x2060061:
001fbe 940e 2380 	CALL SUBOPT_0x3B
001fc0 3050      	CPI  R21,0
001fc1 f009      	BREQ _0x206006C
001fc2 5051      	SUBI R21,LOW(1)
                 _0x206006C:
                 _0x2060066:
001fc3 5031      	SUBI R19,LOW(1)
001fc4 85a8      	LDD  R26,Y+8
001fc5 85b9      	LDD  R27,Y+8+1
001fc6 9712      	SBIW R26,2
001fc7 f008      	BRLO _0x2060059
001fc8 cfb5      	RJMP _0x2060058
                 _0x2060059:
                 _0x2060056:
001fc9 ff00      	SBRS R16,0
001fca c008      	RJMP _0x206006D
                 _0x206006E:
001fcb 3050      	CPI  R21,0
001fcc f031      	BREQ _0x2060070
001fcd 5051      	SUBI R21,LOW(1)
001fce e2e0      	LDI  R30,LOW(32)
001fcf 93ea      	ST   -Y,R30
001fd0 940e 238d 	CALL SUBOPT_0x3D
001fd2 cff8      	RJMP _0x206006E
                 _0x2060070:
                 _0x206006D:
                 _0x2060071:
                 _0x2060030:
                 _0x20600CC:
001fd3 e010      	LDI  R17,LOW(0)
                 _0x206001B:
001fd4 cee0      	RJMP _0x2060016
                 _0x2060018:
001fd5 85ac      	LDD  R26,Y+12
001fd6 85bd      	LDD  R27,Y+12+1
001fd7 940e 243b 	CALL __GETW1P
001fd9 940e 247f 	CALL __LOADLOCR6
001fdb 9664      	ADIW R28,20
001fdc 9508      	RET
                 ; .FEND
                 _sprintf:
                 ; .FSTART _sprintf
001fdd 92ff      	PUSH R15
001fde 2ef8      	MOV  R15,R24
001fdf 9726      	SBIW R28,6
001fe0 940e 247a 	CALL __SAVELOCR4
001fe2 940e 23a5 	CALL SUBOPT_0x40
001fe4 9730      	SBIW R30,0
001fe5 f419      	BRNE _0x2060072
001fe6 efef      	LDI  R30,LOW(65535)
001fe7 efff      	LDI  R31,HIGH(65535)
001fe8 c031      	RJMP _0x2120007
                 _0x2060072:
001fe9 01de      	MOVW R26,R28
001fea 9616      	ADIW R26,6
001feb 940e 23dc 	CALL __ADDW2R15
001fed 018d      	MOVW R16,R26
001fee 940e 23a5 	CALL SUBOPT_0x40
001ff0 83ee      	STD  Y+6,R30
001ff1 83ff      	STD  Y+6+1,R31
001ff2 e0e0      	LDI  R30,LOW(0)
001ff3 87e8      	STD  Y+8,R30
001ff4 87e9      	STD  Y+8+1,R30
001ff5 940e 23ac 	CALL SUBOPT_0x41
001ff7 c021      	RJMP _0x2120008
                 ; .FEND
                 _snprintf:
                 ; .FSTART _snprintf
001ff8 92ff      	PUSH R15
001ff9 2ef8      	MOV  R15,R24
001ffa 9726      	SBIW R28,6
001ffb 940e 247a 	CALL __SAVELOCR4
                +
001ffd e020     +LDI R18 , LOW ( 0 )
001ffe e030     +LDI R19 , HIGH ( 0 )
                 	__GETWRN 18,19,0
001fff 940e 23c4 	CALL SUBOPT_0x42
002001 9730      	SBIW R30,0
002002 f419      	BRNE _0x2060073
002003 efef      	LDI  R30,LOW(65535)
002004 efff      	LDI  R31,HIGH(65535)
002005 c014      	RJMP _0x2120007
                 _0x2060073:
002006 940e 23a5 	CALL SUBOPT_0x40
002008 9730      	SBIW R30,0
002009 f079      	BREQ _0x2060074
00200a 01de      	MOVW R26,R28
00200b 9616      	ADIW R26,6
00200c 940e 23dc 	CALL __ADDW2R15
00200e 018d      	MOVW R16,R26
00200f 940e 23c4 	CALL SUBOPT_0x42
002011 83ee      	STD  Y+6,R30
002012 83ff      	STD  Y+6+1,R31
002013 940e 23a5 	CALL SUBOPT_0x40
002015 87e8      	STD  Y+8,R30
002016 87f9      	STD  Y+8+1,R31
002017 940e 23ac 	CALL SUBOPT_0x41
                 _0x2060074:
                 _0x2120008:
002019 01f9      	MOVW R30,R18
                 _0x2120007:
00201a 940e 2481 	CALL __LOADLOCR4
00201c 962a      	ADIW R28,10
00201d 90ff      	POP  R15
00201e 9508      	RET
                 ; .FEND
                 _printf:
                 ; .FSTART _printf
00201f 92ff      	PUSH R15
002020 2ef8      	MOV  R15,R24
002021 9726      	SBIW R28,6
002022 931a      	ST   -Y,R17
002023 930a      	ST   -Y,R16
002024 01de      	MOVW R26,R28
002025 9614      	ADIW R26,4
002026 940e 23dc 	CALL __ADDW2R15
002028 018d      	MOVW R16,R26
002029 e0e0      	LDI  R30,LOW(0)
00202a 83ec      	STD  Y+4,R30
00202b 83ed      	STD  Y+4+1,R30
00202c 83ee      	STD  Y+6,R30
00202d 83ef      	STD  Y+6+1,R30
00202e 01de      	MOVW R26,R28
00202f 9618      	ADIW R26,8
002030 940e 23dc 	CALL __ADDW2R15
002032 940e 243b 	CALL __GETW1P
002034 93fa      	ST   -Y,R31
002035 93ea      	ST   -Y,R30
002036 931a      	ST   -Y,R17
002037 930a      	ST   -Y,R16
002038 e6e6      	LDI  R30,LOW(_put_usart_G103)
002039 e1fe      	LDI  R31,HIGH(_put_usart_G103)
00203a 93fa      	ST   -Y,R31
00203b 93ea      	ST   -Y,R30
00203c 01de      	MOVW R26,R28
00203d 9618      	ADIW R26,8
00203e de6a      	RCALL __print_G103
00203f 8119      	LDD  R17,Y+1
002040 8108      	LDD  R16,Y+0
002041 9628      	ADIW R28,8
002042 90ff      	POP  R15
002043 9508      	RET
                 ; .FEND
                 
                 	.CSEG
                 _memset:
                 ; .FSTART _memset
002044 93ba      	ST   -Y,R27
002045 93aa      	ST   -Y,R26
002046 81b9          ldd  r27,y+1
002047 81a8          ld   r26,y
002048 9610          adiw r26,0
002049 f031          breq memset1
00204a 81fc          ldd  r31,y+4
00204b 81eb          ldd  r30,y+3
00204c 816a          ldd  r22,y+2
                 memset0:
00204d 9361          st   z+,r22
00204e 9711          sbiw r26,1
00204f f7e9          brne memset0
                 memset1:
002050 81eb          ldd  r30,y+3
002051 81fc          ldd  r31,y+4
                 _0x2120006:
002052 9625      	ADIW R28,5
002053 9508      	RET
                 ; .FEND
                 _strcmp:
                 ; .FSTART _strcmp
002054 93ba      	ST   -Y,R27
002055 93aa      	ST   -Y,R26
002056 91e9          ld   r30,y+
002057 91f9          ld   r31,y+
002058 91a9          ld   r26,y+
002059 91b9          ld   r27,y+
                 strcmp0:
00205a 916d          ld   r22,x+
00205b 9171          ld   r23,z+
00205c 1767          cp   r22,r23
00205d f421          brne strcmp1
00205e 2366          tst  r22
00205f f7d1          brne strcmp0
                 strcmp3:
002060 27ee          clr  r30
002061 9508          ret
                 strcmp1:
002062 1b67          sub  r22,r23
002063 f3e1          breq strcmp3
002064 e0e1          ldi  r30,1
002065 f408          brcc strcmp2
002066 50e2          subi r30,2
                 strcmp2:
002067 9508          ret
                 ; .FEND
                 _strcpy:
                 ; .FSTART _strcpy
002068 93ba      	ST   -Y,R27
002069 93aa      	ST   -Y,R26
00206a 91e9          ld   r30,y+
00206b 91f9          ld   r31,y+
00206c 91a9          ld   r26,y+
00206d 91b9          ld   r27,y+
00206e 01cd          movw r24,r26
                 strcpy0:
00206f 9161          ld   r22,z+
002070 936d          st   x+,r22
002071 2366          tst  r22
002072 f7e1          brne strcpy0
002073 01fc          movw r30,r24
002074 9508          ret
                 ; .FEND
                 _strlen:
                 ; .FSTART _strlen
002075 93ba      	ST   -Y,R27
002076 93aa      	ST   -Y,R26
002077 91a9          ld   r26,y+
002078 91b9          ld   r27,y+
002079 27ee          clr  r30
00207a 27ff          clr  r31
                 strlen0:
00207b 916d          ld   r22,x+
00207c 2366          tst  r22
00207d f011          breq strlen1
00207e 9631          adiw r30,1
00207f cffb          rjmp strlen0
                 strlen1:
002080 9508          ret
                 ; .FEND
                 _strlenf:
                 ; .FSTART _strlenf
002081 93ba      	ST   -Y,R27
002082 93aa      	ST   -Y,R26
002083 27aa          clr  r26
002084 27bb          clr  r27
002085 91e9          ld   r30,y+
002086 91f9          ld   r31,y+
                 strlenf0:
002087 9005      	lpm  r0,z+
002088 2000          tst  r0
002089 f011          breq strlenf1
00208a 9611          adiw r26,1
00208b cffb          rjmp strlenf0
                 strlenf1:
00208c 01fd          movw r30,r26
00208d 9508          ret
                 ; .FEND
                 _strpbrkf:
                 ; .FSTART _strpbrkf
00208e 93ba      	ST   -Y,R27
00208f 93aa      	ST   -Y,R26
002090 81bb          ldd  r27,y+3
002091 81aa          ldd  r26,y+2
                 strpbrkf0:
002092 916c          ld   r22,x
002093 2366          tst  r22
002094 f061          breq strpbrkf2
002095 81f9          ldd  r31,y+1
002096 81e8          ld   r30,y
                 strpbrkf1:
002097 95c8      	lpm
002098 2000          tst  r0
002099 f029          breq strpbrkf3
00209a 9631          adiw r30,1
00209b 1560          cp   r22,r0
00209c f7d1          brne strpbrkf1
00209d 01fd          movw r30,r26
00209e c004          rjmp strpbrkf4
                 strpbrkf3:
00209f 9611          adiw r26,1
0020a0 cff1          rjmp strpbrkf0
                 strpbrkf2:
0020a1 27ee          clr  r30
0020a2 27ff          clr  r31
                 strpbrkf4:
0020a3 940c 21bb 	JMP  _0x2120001
                 ; .FEND
                 _strstr:
                 ; .FSTART _strstr
0020a5 93ba      	ST   -Y,R27
0020a6 93aa      	ST   -Y,R26
0020a7 81aa          ldd  r26,y+2
0020a8 81bb          ldd  r27,y+3
0020a9 01cd          movw r24,r26
                 strstr0:
0020aa 81e8          ld   r30,y
0020ab 81f9          ldd  r31,y+1
                 strstr1:
0020ac 9171          ld   r23,z+
0020ad 2377          tst  r23
0020ae f411          brne strstr2
0020af 01fc          movw r30,r24
0020b0 c009          rjmp strstr3
                 strstr2:
0020b1 916d          ld   r22,x+
0020b2 1767          cp   r22,r23
0020b3 f3c1          breq strstr1
0020b4 9601          adiw r24,1
0020b5 01dc          movw r26,r24
0020b6 2366          tst  r22
0020b7 f791          brne strstr0
0020b8 27ee          clr  r30
0020b9 27ff          clr  r31
                 strstr3:
0020ba 940c 21bb 	JMP  _0x2120001
                 ; .FEND
                 _strspnf:
                 ; .FSTART _strspnf
0020bc 93ba      	ST   -Y,R27
0020bd 93aa      	ST   -Y,R26
0020be 81bb          ldd  r27,y+3
0020bf 81aa          ldd  r26,y+2
0020c0 2788          clr  r24
0020c1 2799          clr  r25
                 strspnf0:
0020c2 916d          ld   r22,x+
0020c3 2366          tst  r22
0020c4 f049          breq strspnf2
0020c5 81f9          ldd  r31,y+1
0020c6 81e8          ld   r30,y
                 strspnf1:
0020c7 9005      	lpm  r0,z+
0020c8 2000          tst  r0
0020c9 f021          breq strspnf2
0020ca 1560          cp   r22,r0
0020cb f7d9          brne strspnf1
0020cc 9601          adiw r24,1
0020cd cff4          rjmp strspnf0
                 strspnf2:
0020ce 01fc          movw r30,r24
0020cf 940c 21bb 	JMP  _0x2120001
                 ; .FEND
                 _strtok:
                 ; .FSTART _strtok
0020d1 93ba      	ST   -Y,R27
0020d2 93aa      	ST   -Y,R26
0020d3 931a      	ST   -Y,R17
0020d4 930a      	ST   -Y,R16
0020d5 81ec      	LDD  R30,Y+4
0020d6 81fd      	LDD  R31,Y+4+1
0020d7 9730      	SBIW R30,0
0020d8 f479      	BRNE _0x2080003
0020d9 91e0 0bd7 	LDS  R30,_p_S1040026000
0020db 91f0 0bd8 	LDS  R31,_p_S1040026000+1
0020dd 9730      	SBIW R30,0
0020de f419      	BRNE _0x2080004
0020df e0e0      	LDI  R30,LOW(0)
0020e0 e0f0      	LDI  R31,HIGH(0)
0020e1 c02f      	RJMP _0x2120004
                 _0x2080004:
0020e2 91e0 0bd7 	LDS  R30,_p_S1040026000
0020e4 91f0 0bd8 	LDS  R31,_p_S1040026000+1
0020e6 83ec      	STD  Y+4,R30
0020e7 83fd      	STD  Y+4+1,R31
                 _0x2080003:
0020e8 940e 23cb 	CALL SUBOPT_0x43
0020ea 940e 20bc 	CALL _strspnf
0020ec 81ac      	LDD  R26,Y+4
0020ed 81bd      	LDD  R27,Y+4+1
0020ee 0fea      	ADD  R30,R26
0020ef 1ffb      	ADC  R31,R27
0020f0 83ec      	STD  Y+4,R30
0020f1 83fd      	STD  Y+4+1,R31
0020f2 81ac      	LDD  R26,Y+4
0020f3 81bd      	LDD  R27,Y+4+1
0020f4 91ec      	LD   R30,X
0020f5 30e0      	CPI  R30,0
0020f6 f441      	BRNE _0x2080005
0020f7 e0e0      	LDI  R30,LOW(0)
0020f8 93e0 0bd7 	STS  _p_S1040026000,R30
0020fa 93e0 0bd8 	STS  _p_S1040026000+1,R30
0020fc e0e0      	LDI  R30,LOW(0)
0020fd e0f0      	LDI  R31,HIGH(0)
0020fe c012      	RJMP _0x2120004
                 _0x2080005:
0020ff 940e 23cb 	CALL SUBOPT_0x43
002101 940e 208e 	CALL _strpbrkf
002103 018f      	MOVW R16,R30
002104 9730      	SBIW R30,0
002105 f029      	BREQ _0x2080006
002106 01d8      	MOVW R26,R16
                +
002107 5f0f     +SUBI R16 , LOW ( - 1 )
002108 4f1f     +SBCI R17 , HIGH ( - 1 )
                 	__ADDWRN 16,17,1
002109 e0e0      	LDI  R30,LOW(0)
00210a 93ec      	ST   X,R30
                 _0x2080006:
                +
00210b 9300 0bd7+STS _p_S1040026000 + ( 0 ) , R16
00210d 9310 0bd8+STS _p_S1040026000 + ( 0 ) + 1 , R17
                 	__PUTWMRN _p_S1040026000,0,16,17
00210f 81ec      	LDD  R30,Y+4
002110 81fd      	LDD  R31,Y+4+1
                 _0x2120004:
002111 8119      	LDD  R17,Y+1
002112 8108      	LDD  R16,Y+0
                 _0x2120005:
002113 9626      	ADIW R28,6
002114 9508      	RET
                 ; .FEND
                 
                 	.CSEG
                 _atoi:
                 ; .FSTART _atoi
002115 93ba      	ST   -Y,R27
002116 93aa      	ST   -Y,R26
002117 81b9         	ldd  r27,y+1
002118 81a8         	ld   r26,y
                 __atoi0:
002119 91ec         	ld   r30,x
00211a 2f8a              mov  r24,r26
00211b 2fae      	MOV  R26,R30
00211c 940e 21c6 	CALL _isspace
00211e 2fa8              mov  r26,r24
00211f 23ee         	tst  r30
002120 f011         	breq __atoi1
002121 9611         	adiw r26,1
002122 cff6         	rjmp __atoi0
                 __atoi1:
002123 94e8         	clt
002124 91ec         	ld   r30,x
002125 32ed         	cpi  r30,'-'
002126 f411         	brne __atoi2
002127 9468         	set
002128 c002         	rjmp __atoi3
                 __atoi2:
002129 32eb         	cpi  r30,'+'
00212a f409         	brne __atoi4
                 __atoi3:
00212b 9611         	adiw r26,1
                 __atoi4:
00212c 2766         	clr  r22
00212d 2777         	clr  r23
                 __atoi5:
00212e 91ec         	ld   r30,x
00212f 2f8a              mov  r24,r26
002130 2fae      	MOV  R26,R30
002131 940e 21bd 	CALL _isdigit
002133 2fa8              mov  r26,r24
002134 23ee         	tst  r30
002135 f079         	breq __atoi6
002136 01fb         	movw r30,r22
002137 0f66         	lsl  r22
002138 1f77         	rol  r23
002139 0f66         	lsl  r22
00213a 1f77         	rol  r23
00213b 0f6e         	add  r22,r30
00213c 1f7f         	adc  r23,r31
00213d 0f66         	lsl  r22
00213e 1f77         	rol  r23
00213f 91ed         	ld   r30,x+
002140 27ff         	clr  r31
002141 53e0         	subi r30,'0'
002142 0f6e         	add  r22,r30
002143 1f7f         	adc  r23,r31
002144 cfe9         	rjmp __atoi5
                 __atoi6:
002145 01fb         	movw r30,r22
002146 f41e         	brtc __atoi7
002147 95e0         	com  r30
002148 95f0         	com  r31
002149 9631         	adiw r30,1
                 __atoi7:
00214a 9622         	adiw r28,2
00214b 9508         	ret
                 ; .FEND
                 
                 	.DSEG
                 
                 	.CSEG
                 
                 	.CSEG
                 _glcd_getmask:
                 ; .FSTART _glcd_getmask
00214c 93aa      	ST   -Y,R26
00214d 81e8      	LD   R30,Y
00214e e0f0      	LDI  R31,0
00214f 58e8      	SUBI R30,LOW(-__glcd_mask*2)
002150 4ef3      	SBCI R31,HIGH(-__glcd_mask*2)
002151 91a4      	LPM  R26,Z
002152 81e9      	LDD  R30,Y+1
002153 940e 23e9 	CALL __LSLB12
                 _0x2120003:
002155 9622      	ADIW R28,2
002156 9508      	RET
                 ; .FEND
                 _glcd_mappixcolor1bit:
                 ; .FSTART _glcd_mappixcolor1bit
002157 93aa      	ST   -Y,R26
002158 931a      	ST   -Y,R17
002159 81e9      	LDD  R30,Y+1
00215a 30e7      	CPI  R30,LOW(0x7)
00215b f011      	BREQ _0x20C0007
00215c 30ea      	CPI  R30,LOW(0xA)
00215d f419      	BRNE _0x20C0008
                 _0x20C0007:
00215e 9110 094e 	LDS  R17,_glcd_state
002160 c009      	RJMP _0x20C0009
                 _0x20C0008:
002161 30e9      	CPI  R30,LOW(0x9)
002162 f419      	BRNE _0x20C000B
                +
002163 9110 094f+LDS R17 , _glcd_state + ( 1 )
                 	__GETBRMN 17,_glcd_state,1
002165 c004      	RJMP _0x20C0009
                 _0x20C000B:
002166 30e8      	CPI  R30,LOW(0x8)
002167 f4a1      	BRNE _0x20C0005
                +
002168 9110 095e+LDS R17 , _glcd_state + ( 16 )
                 	__GETBRMN 17,_glcd_state,16
                 _0x20C0009:
                +
00216a 91e0 094f+LDS R30 , _glcd_state + ( 1 )
                 	__GETB1MN _glcd_state,1
00216c 30e0      	CPI  R30,0
00216d f049      	BREQ _0x20C000E
00216e 3010      	CPI  R17,0
00216f f019      	BREQ _0x20C000F
002170 efef      	LDI  R30,LOW(255)
002171 8118      	LDD  R17,Y+0
002172 c029      	RJMP _0x2120002
                 _0x20C000F:
002173 81ea      	LDD  R30,Y+2
002174 95e0      	COM  R30
002175 8118      	LDD  R17,Y+0
002176 c025      	RJMP _0x2120002
                 _0x20C000E:
002177 3010      	CPI  R17,0
002178 f419      	BRNE _0x20C0011
002179 e0e0      	LDI  R30,LOW(0)
00217a 8118      	LDD  R17,Y+0
00217b c020      	RJMP _0x2120002
                 _0x20C0011:
                 _0x20C0005:
00217c 81ea      	LDD  R30,Y+2
00217d 8118      	LDD  R17,Y+0
00217e c01d      	RJMP _0x2120002
                 ; .FEND
                 _glcd_readmem:
                 ; .FSTART _glcd_readmem
00217f 93ba      	ST   -Y,R27
002180 93aa      	ST   -Y,R26
002181 81ea      	LDD  R30,Y+2
002182 30e1      	CPI  R30,LOW(0x1)
002183 f421      	BRNE _0x20C0015
002184 81e8      	LD   R30,Y
002185 81f9      	LDD  R31,Y+1
002186 91e4      	LPM  R30,Z
002187 c014      	RJMP _0x2120002
                 _0x20C0015:
002188 30e2      	CPI  R30,LOW(0x2)
002189 f429      	BRNE _0x20C0016
00218a 81a8      	LD   R26,Y
00218b 81b9      	LDD  R27,Y+1
00218c 940e 2452 	CALL __EEPROMRDB
00218e c00d      	RJMP _0x2120002
                 _0x20C0016:
00218f 30e3      	CPI  R30,LOW(0x3)
002190 f441      	BRNE _0x20C0018
002191 81a8      	LD   R26,Y
002192 81b9      	LDD  R27,Y+1
                +
002193 91e0 0967+LDS R30 , _glcd_state + ( 25 )
002195 91f0 0968+LDS R31 , _glcd_state + ( 25 ) + 1
002197 9509     +ICALL
                 	__CALL1MN _glcd_state,25
002198 c003      	RJMP _0x2120002
                 _0x20C0018:
002199 81a8      	LD   R26,Y
00219a 81b9      	LDD  R27,Y+1
00219b 91ec      	LD   R30,X
                 _0x2120002:
00219c 9623      	ADIW R28,3
00219d 9508      	RET
                 ; .FEND
                 _glcd_writemem:
                 ; .FSTART _glcd_writemem
00219e 93aa      	ST   -Y,R26
00219f 81eb      	LDD  R30,Y+3
0021a0 30e0      	CPI  R30,0
0021a1 f429      	BRNE _0x20C001C
0021a2 81e8      	LD   R30,Y
0021a3 81a9      	LDD  R26,Y+1
0021a4 81ba      	LDD  R27,Y+1+1
0021a5 93ec      	ST   X,R30
0021a6 c014      	RJMP _0x20C001B
                 _0x20C001C:
0021a7 30e2      	CPI  R30,LOW(0x2)
0021a8 f431      	BRNE _0x20C001D
0021a9 81e8      	LD   R30,Y
0021aa 81a9      	LDD  R26,Y+1
0021ab 81ba      	LDD  R27,Y+1+1
0021ac 940e 245e 	CALL __EEPROMWRB
0021ae c00c      	RJMP _0x20C001B
                 _0x20C001D:
0021af 30e3      	CPI  R30,LOW(0x3)
0021b0 f451      	BRNE _0x20C001B
0021b1 81e9      	LDD  R30,Y+1
0021b2 81fa      	LDD  R31,Y+1+1
0021b3 93fa      	ST   -Y,R31
0021b4 93ea      	ST   -Y,R30
0021b5 81aa      	LDD  R26,Y+2
                +
0021b6 91e0 0969+LDS R30 , _glcd_state + ( 27 )
0021b8 91f0 096a+LDS R31 , _glcd_state + ( 27 ) + 1
0021ba 9509     +ICALL
                 	__CALL1MN _glcd_state,27
                 _0x20C001B:
                 _0x2120001:
0021bb 9624      	ADIW R28,4
0021bc 9508      	RET
                 ; .FEND
                 
                 	.CSEG
                 
                 	.CSEG
                 _isdigit:
                 ; .FSTART _isdigit
0021bd 93aa      	ST   -Y,R26
0021be e0e1          ldi  r30,1
0021bf 91f9          ld   r31,y+
0021c0 33f0          cpi  r31,'0'
0021c1 f010          brlo isdigit0
0021c2 33fa          cpi  r31,'9'+1
0021c3 f008          brlo isdigit1
                 isdigit0:
0021c4 27ee          clr  r30
                 isdigit1:
0021c5 9508          ret
                 ; .FEND
                 _isspace:
                 ; .FSTART _isspace
0021c6 93aa      	ST   -Y,R26
0021c7 e0e1          ldi  r30,1
0021c8 91f9          ld   r31,y+
0021c9 32f0          cpi  r31,' '
0021ca f029          breq isspace1
0021cb 30f9          cpi  r31,9
0021cc f010          brlo isspace0
0021cd 30fe          cpi  r31,13+1
0021ce f008          brlo isspace1
                 isspace0:
0021cf 27ee          clr  r30
                 isspace1:
0021d0 9508          ret
                 ; .FEND
                 
                 	.DSEG
                 _glcd_state:
00094e           	.BYTE 0x1D
                 _rx_counter0:
00096b           	.BYTE 0x1
                 _rx_wr_index0:
00096c           	.BYTE 0x1
                 _rx_rd_index0:
00096d           	.BYTE 0x1
                 _value:
00096e           	.BYTE 0x10
                 _buffer:
00097e           	.BYTE 0x100
                 _millis_counter:
000a7e           	.BYTE 0x4
                 _last_time:
000a82           	.BYTE 0x4
                 _header_buffer:
000a86           	.BYTE 0x64
                 _content_buffer:
000aea           	.BYTE 0x64
                 _rx_buffer0:
000b4e           	.BYTE 0x64
                 _phase_S0000009000:
000bb2           	.BYTE 0x1
                 _h_idx_S0000009000:
000bb3           	.BYTE 0x1
                 _c_idx_S0000009000:
000bb4           	.BYTE 0x1
                 _processing_sms_S000000A001:
000bb5           	.BYTE 0x1
                 _at_command:
000bb6           	.BYTE 0x1E
                 _ks0108_coord_G100:
000bd4           	.BYTE 0x3
                 _p_S1040026000:
000bd7           	.BYTE 0x2
                 __seed_G105:
000bd9           	.BYTE 0x4
                 
                 	.CSEG
                 ;OPTIMIZER ADDED SUBROUTINE, CALLED 2 TIMES, CODE SIZE REDUCTION:3 WORDS
                 SUBOPT_0x0:
0021d1 91e0 0a7e 	LDS  R30,_millis_counter
0021d3 91f0 0a7f 	LDS  R31,_millis_counter+1
0021d5 9160 0a80 	LDS  R22,_millis_counter+2
0021d7 9170 0a81 	LDS  R23,_millis_counter+3
0021d9 9508      	RET
                 
                 ;OPTIMIZER ADDED SUBROUTINE, CALLED 3 TIMES, CODE SIZE REDUCTION:1 WORDS
                 SUBOPT_0x1:
0021da 940e 2478 	CALL __SAVELOCR6
                +
0021dc e000     +LDI R16 , LOW ( 0 )
0021dd e010     +LDI R17 , HIGH ( 0 )
                 	__GETWRN 16,17,0
0021de 9508      	RET
                 
                 ;OPTIMIZER ADDED SUBROUTINE, CALLED 4 TIMES, CODE SIZE REDUCTION:3 WORDS
                 SUBOPT_0x2:
0021df e0a1      	LDI  R26,LOW(1)
0021e0 e0b0      	LDI  R27,HIGH(1)
0021e1 940e 23f9 	CALL __LSLW12
0021e3 9508      	RET
                 
                 ;OPTIMIZER ADDED SUBROUTINE, CALLED 4 TIMES, CODE SIZE REDUCTION:3 WORDS
                 SUBOPT_0x3:
0021e4 e0b0      	LDI  R27,0
0021e5 23ea      	AND  R30,R26
0021e6 23fb      	AND  R31,R27
0021e7 9730      	SBIW R30,0
0021e8 9508      	RET
                 
                 ;OPTIMIZER ADDED SUBROUTINE, CALLED 3 TIMES, CODE SIZE REDUCTION:1 WORDS
                 SUBOPT_0x4:
0021e9 940e 2402 	CALL __CWD1
0021eb 940e 244d 	CALL __PUTPARD1
0021ed 9508      	RET
                 
                 ;OPTIMIZER ADDED SUBROUTINE, CALLED 4 TIMES, CODE SIZE REDUCTION:3 WORDS
                 SUBOPT_0x5:
0021ee e084      	LDI  R24,4
0021ef 940e 1fdd 	CALL _sprintf
0021f1 9628      	ADIW R28,8
0021f2 9508      	RET
                 
                 ;OPTIMIZER ADDED SUBROUTINE, CALLED 3 TIMES, CODE SIZE REDUCTION:1 WORDS
                 SUBOPT_0x6:
0021f3 940e 23e9 	CALL __LSLB12
0021f5 95e0      	COM  R30
0021f6 21e1      	AND  R30,R1
0021f7 9508      	RET
                 
                 ;OPTIMIZER ADDED SUBROUTINE, CALLED 14 TIMES, CODE SIZE REDUCTION:49 WORDS
                 SUBOPT_0x7:
0021f8 940e 1ac1 	CALL _glcd_clear
0021fa e0e0      	LDI  R30,LOW(0)
0021fb 93ea      	ST   -Y,R30
0021fc 93ea      	ST   -Y,R30
0021fd 9508      	RET
                 
                 ;OPTIMIZER ADDED SUBROUTINE, CALLED 2 TIMES, CODE SIZE REDUCTION:1 WORDS
                 SUBOPT_0x8:
0021fe e7e0      	LDI  R30,LOW(_mahsol_ra_bardarid*2)
0021ff e0f6      	LDI  R31,HIGH(_mahsol_ra_bardarid*2)
002200 93fa      	ST   -Y,R31
002201 93ea      	ST   -Y,R30
002202 e8e0      	LDI  R30,LOW(128)
002203 93ea      	ST   -Y,R30
002204 9508      	RET
                 
                 ;OPTIMIZER ADDED SUBROUTINE, CALLED 3 TIMES, CODE SIZE REDUCTION:1 WORDS
                 SUBOPT_0x9:
002205 efa4      	LDI  R26,LOW(500)
002206 e0b1      	LDI  R27,HIGH(500)
002207 940c 23d2 	JMP  _delay_ms
                 
                 ;OPTIMIZER ADDED SUBROUTINE, CALLED 2 TIMES, CODE SIZE REDUCTION:10 WORDS
                 SUBOPT_0xA:
002209 93ba      	ST   -Y,R27
00220a 93aa      	ST   -Y,R26
00220b 97ef      	SBIW R28,63
00220c 97a6      	SBIW R28,38
00220d 50d1      	SUBI R29,1
00220e e0e0      	LDI  R30,LOW(0)
00220f 83e8      	ST   Y,R30
002210 83e9      	STD  Y+1,R30
002211 940e 2478 	CALL __SAVELOCR6
                +
002213 e020     +LDI R18 , LOW ( 0 )
002214 e030     +LDI R19 , HIGH ( 0 )
                 	__GETWRN 18,19,0
                +
002215 e040     +LDI R20 , LOW ( 0 )
002216 e050     +LDI R21 , HIGH ( 0 )
                 	__GETWRN 20,21,0
002217 9508      	RET
                 
                 ;OPTIMIZER ADDED SUBROUTINE, CALLED 16 TIMES, CODE SIZE REDUCTION:87 WORDS
                 SUBOPT_0xB:
002218 940e 15bd 	CALL _send_at_command
00221a e6a4      	LDI  R26,LOW(100)
00221b e0b0      	LDI  R27,0
00221c 940e 23d2 	CALL _delay_ms
00221e 940c 15cd 	JMP  _uart_buffer_reset
                 
                 ;OPTIMIZER ADDED SUBROUTINE, CALLED 4 TIMES, CODE SIZE REDUCTION:3 WORDS
                 SUBOPT_0xC:
002220 01fe      	MOVW R30,R28
002221 9638      	ADIW R30,8
002222 93fa      	ST   -Y,R31
002223 93ea      	ST   -Y,R30
002224 9508      	RET
                 
                 ;OPTIMIZER ADDED SUBROUTINE, CALLED 2 TIMES, CODE SIZE REDUCTION:5 WORDS
                 SUBOPT_0xD:
002225 2766      	CLR  R22
002226 2777      	CLR  R23
002227 940e 244d 	CALL __PUTPARD1
                +
002229 01fe     +MOVW R30 , R28
00222a 58e7     +SUBI R30 , LOW ( - 377 )
00222b 4ffe     +SBCI R31 , HIGH ( - 377 )
00222c 9001     +LD R0 , Z +
00222d 81f0     +LD R31 , Z
00222e 2de0     +MOV R30 , R0
                 	__GETW1SX 377
00222f 9508      	RET
                 
                 ;OPTIMIZER ADDED SUBROUTINE, CALLED 2 TIMES, CODE SIZE REDUCTION:12 WORDS
                 SUBOPT_0xE:
002230 01fe      	MOVW R30,R28
002231 5fe9      	SUBI R30,LOW(-(263))
002232 4ffe      	SBCI R31,HIGH(-(263))
002233 93fa      	ST   -Y,R31
002234 93ea      	ST   -Y,R30
                +
002235 e0e5     +LDI R30 , LOW ( 2 * _0x0 + ( 103 ) )
002236 e1fd     +LDI R31 , HIGH ( 2 * _0x0 + ( 103 ) )
                 	__POINTW1FN _0x0,103
002237 93fa      	ST   -Y,R31
002238 93ea      	ST   -Y,R30
002239 01fe      	MOVW R30,R28
00223a 963c      	ADIW R30,12
00223b 2766      	CLR  R22
00223c 2777      	CLR  R23
00223d 940e 244d 	CALL __PUTPARD1
00223f cfae      	RJMP SUBOPT_0x5
                 
                 ;OPTIMIZER ADDED SUBROUTINE, CALLED 28 TIMES, CODE SIZE REDUCTION:51 WORDS
                 SUBOPT_0xF:
002240 e7ee      	LDI  R30,LOW(_buffer)
002241 e0f9      	LDI  R31,HIGH(_buffer)
002242 93fa      	ST   -Y,R31
002243 93ea      	ST   -Y,R30
002244 9508      	RET
                 
                 ;OPTIMIZER ADDED SUBROUTINE, CALLED 7 TIMES, CODE SIZE REDUCTION:45 WORDS
                 SUBOPT_0x10:
002245 e0e0      	LDI  R30,LOW(256)
002246 e0f1      	LDI  R31,HIGH(256)
002247 93fa      	ST   -Y,R31
002248 93ea      	ST   -Y,R30
                +
002249 e8e8     +LDI R30 , LOW ( 0x1388 )
00224a e1f3     +LDI R31 , HIGH ( 0x1388 )
00224b e060     +LDI R22 , BYTE3 ( 0x1388 )
00224c e070     +LDI R23 , BYTE4 ( 0x1388 )
                 	__GETD1N 0x1388
00224d 940e 244d 	CALL __PUTPARD1
00224f 9508      	RET
                 
                 ;OPTIMIZER ADDED SUBROUTINE, CALLED 5 TIMES, CODE SIZE REDUCTION:45 WORDS
                 SUBOPT_0x11:
002250 93fa      	ST   -Y,R31
002251 93ea      	ST   -Y,R30
002252 e0e1      	LDI  R30,LOW(1)
002253 e0f0      	LDI  R31,HIGH(1)
002254 93fa      	ST   -Y,R31
002255 93ea      	ST   -Y,R30
002256 e6ee      	LDI  R30,LOW(_value)
002257 e0f9      	LDI  R31,HIGH(_value)
002258 93fa      	ST   -Y,R31
002259 93ea      	ST   -Y,R30
00225a e1a0      	LDI  R26,LOW(16)
00225b e0b0      	LDI  R27,0
00225c 940c 1668 	JMP  _extract_field_after_keyword
                 
                 ;OPTIMIZER ADDED SUBROUTINE, CALLED 2 TIMES, CODE SIZE REDUCTION:8 WORDS
                 SUBOPT_0x12:
00225e 940e 15bd 	CALL _send_at_command
002260 e6a4      	LDI  R26,LOW(100)
002261 e0b0      	LDI  R27,0
002262 940e 23d2 	CALL _delay_ms
002264 e6ae      	LDI  R26,LOW(_value)
002265 e0b9      	LDI  R27,HIGH(_value)
002266 940e 2115 	CALL _atoi
002268 3ce8      	CPI  R30,LOW(0xC8)
002269 e0a0      	LDI  R26,HIGH(0xC8)
00226a 07fa      	CPC  R31,R26
00226b 9508      	RET
                 
                 ;OPTIMIZER ADDED SUBROUTINE, CALLED 5 TIMES, CODE SIZE REDUCTION:17 WORDS
                 SUBOPT_0x13:
00226c 93fa      	ST   -Y,R31
00226d 93ea      	ST   -Y,R30
00226e e8e0      	LDI  R30,LOW(128)
00226f 93ea      	ST   -Y,R30
002270 e4a0      	LDI  R26,LOW(64)
002271 940c 1239 	JMP  _draw_bitmap
                 
                 ;OPTIMIZER ADDED SUBROUTINE, CALLED 6 TIMES, CODE SIZE REDUCTION:7 WORDS
                 SUBOPT_0x14:
002273 2766      	CLR  R22
002274 2777      	CLR  R23
002275 940e 244d 	CALL __PUTPARD1
002277 9508      	RET
                 
                 ;OPTIMIZER ADDED SUBROUTINE, CALLED 2 TIMES, CODE SIZE REDUCTION:3 WORDS
                 SUBOPT_0x15:
                +
002278 01fe     +MOVW R30 , R28
002279 58ed     +SUBI R30 , LOW ( - 371 )
00227a 4ffe     +SBCI R31 , HIGH ( - 371 )
00227b 9001     +LD R0 , Z +
00227c 81f0     +LD R31 , Z
00227d 2de0     +MOV R30 , R0
                 	__GETW1SX 371
00227e cff4      	RJMP SUBOPT_0x14
                 
                 ;OPTIMIZER ADDED SUBROUTINE, CALLED 2 TIMES, CODE SIZE REDUCTION:3 WORDS
                 SUBOPT_0x16:
00227f 93fa      	ST   -Y,R31
002280 93ea      	ST   -Y,R30
                +
002281 e1aa     +LDI R26 , LOW ( 2 * _0x0 + ( 124 ) )
002282 e1bd     +LDI R27 , HIGH ( 2 * _0x0 + ( 124 ) )
                 	__POINTW2FN _0x0,124
002283 940e 20d1 	CALL _strtok
002285 a3ee      	STD  Y+38,R30
002286 a3ff      	STD  Y+38+1,R31
002287 9508      	RET
                 
                 ;OPTIMIZER ADDED SUBROUTINE, CALLED 9 TIMES, CODE SIZE REDUCTION:13 WORDS
                 SUBOPT_0x17:
002288 e0e0      	LDI  R30,LOW(0)
002289 93ea      	ST   -Y,R30
00228a e0ea      	LDI  R30,LOW(10)
00228b 93ea      	ST   -Y,R30
00228c 9508      	RET
                 
                 ;OPTIMIZER ADDED SUBROUTINE, CALLED 3 TIMES, CODE SIZE REDUCTION:1 WORDS
                 SUBOPT_0x18:
00228d e0e0      	LDI  R30,LOW(0)
00228e 93ea      	ST   -Y,R30
00228f e1e4      	LDI  R30,LOW(20)
002290 93ea      	ST   -Y,R30
002291 9508      	RET
                 
                 ;OPTIMIZER ADDED SUBROUTINE, CALLED 3 TIMES, CODE SIZE REDUCTION:1 WORDS
                 SUBOPT_0x19:
002292 eeea      	LDI  R30,LOW(_content_buffer)
002293 e0fa      	LDI  R31,HIGH(_content_buffer)
002294 93fa      	ST   -Y,R31
002295 93ea      	ST   -Y,R30
002296 9508      	RET
                 
                 ;OPTIMIZER ADDED SUBROUTINE, CALLED 3 TIMES, CODE SIZE REDUCTION:1 WORDS
                 SUBOPT_0x1A:
                +
002297 93e0 0952+STS _glcd_state + ( 4 ) , R30
002299 93f0 0953+STS _glcd_state + ( 4 ) + 1 , R31
                 	__PUTW1MN _glcd_state,4
00229b 9508      	RET
                 
                 ;OPTIMIZER ADDED SUBROUTINE, CALLED 10 TIMES, CODE SIZE REDUCTION:33 WORDS
                 SUBOPT_0x1B:
00229c 940e 1e3d 	CALL _glcd_outtextxy
00229e e6a4      	LDI  R26,LOW(100)
00229f e0b0      	LDI  R27,0
0022a0 940c 23d2 	JMP  _delay_ms
                 
                 ;OPTIMIZER ADDED SUBROUTINE, CALLED 3 TIMES, CODE SIZE REDUCTION:13 WORDS
                 SUBOPT_0x1C:
0022a2 b213      	IN   R1,19
0022a3 2fe1      	MOV  R30,R17
0022a4 e0f0      	LDI  R31,0
0022a5 01de      	MOVW R26,R28
0022a6 961e      	ADIW R26,14
0022a7 0fae      	ADD  R26,R30
0022a8 1fbf      	ADC  R27,R31
0022a9 91ec      	LD   R30,X
0022aa cf34      	RJMP SUBOPT_0x2
                 
                 ;OPTIMIZER ADDED SUBROUTINE, CALLED 13 TIMES, CODE SIZE REDUCTION:21 WORDS
                 SUBOPT_0x1D:
0022ab 940e 15bd 	CALL _send_at_command
0022ad cf92      	RJMP SUBOPT_0xF
                 
                 ;OPTIMIZER ADDED SUBROUTINE, CALLED 10 TIMES, CODE SIZE REDUCTION:15 WORDS
                 SUBOPT_0x1E:
0022ae e0e0      	LDI  R30,LOW(256)
0022af e0f1      	LDI  R31,HIGH(256)
0022b0 93fa      	ST   -Y,R31
0022b1 93ea      	ST   -Y,R30
0022b2 9508      	RET
                 
                 ;OPTIMIZER ADDED SUBROUTINE, CALLED 7 TIMES, CODE SIZE REDUCTION:21 WORDS
                 SUBOPT_0x1F:
                +
0022b3 ede0     +LDI R30 , LOW ( 0x7D0 )
0022b4 e0f7     +LDI R31 , HIGH ( 0x7D0 )
0022b5 e060     +LDI R22 , BYTE3 ( 0x7D0 )
0022b6 e070     +LDI R23 , BYTE4 ( 0x7D0 )
                 	__GETD1N 0x7D0
0022b7 940e 244d 	CALL __PUTPARD1
0022b9 9508      	RET
                 
                 ;OPTIMIZER ADDED SUBROUTINE, CALLED 2 TIMES, CODE SIZE REDUCTION:1 WORDS
                 SUBOPT_0x20:
                +
0022ba ebe8     +LDI R30 , LOW ( 0xBB8 )
0022bb e0fb     +LDI R31 , HIGH ( 0xBB8 )
0022bc e060     +LDI R22 , BYTE3 ( 0xBB8 )
0022bd e070     +LDI R23 , BYTE4 ( 0xBB8 )
                 	__GETD1N 0xBB8
0022be 940e 244d 	CALL __PUTPARD1
0022c0 9508      	RET
                 
                 ;OPTIMIZER ADDED SUBROUTINE, CALLED 6 TIMES, CODE SIZE REDUCTION:7 WORDS
                 SUBOPT_0x21:
0022c1 e6a4      	LDI  R26,LOW(100)
0022c2 e0b0      	LDI  R27,0
0022c3 940c 23d2 	JMP  _delay_ms
                 
                 ;OPTIMIZER ADDED SUBROUTINE, CALLED 2 TIMES, CODE SIZE REDUCTION:10 WORDS
                 SUBOPT_0x22:
0022c5 93fa      	ST   -Y,R31
0022c6 93ea      	ST   -Y,R30
0022c7 e0e0      	LDI  R30,LOW(0)
0022c8 e0f0      	LDI  R31,HIGH(0)
0022c9 93fa      	ST   -Y,R31
0022ca 93ea      	ST   -Y,R30
0022cb e6ee      	LDI  R30,LOW(_value)
0022cc e0f9      	LDI  R31,HIGH(_value)
0022cd 93fa      	ST   -Y,R31
0022ce 93ea      	ST   -Y,R30
0022cf e1a0      	LDI  R26,LOW(16)
0022d0 e0b0      	LDI  R27,0
0022d1 940e 1668 	CALL _extract_field_after_keyword
0022d3 9730      	SBIW R30,0
0022d4 9508      	RET
                 
                 ;OPTIMIZER ADDED SUBROUTINE, CALLED 2 TIMES, CODE SIZE REDUCTION:3 WORDS
                 SUBOPT_0x23:
0022d5 e0e0      	LDI  R30,LOW(0)
0022d6 93ea      	ST   -Y,R30
0022d7 e1e0      	LDI  R30,LOW(16)
0022d8 93ea      	ST   -Y,R30
0022d9 e6ae      	LDI  R26,LOW(_value)
0022da e0b9      	LDI  R27,HIGH(_value)
0022db 940c 1e3d 	JMP  _glcd_outtextxy
                 
                 ;OPTIMIZER ADDED SUBROUTINE, CALLED 3 TIMES, CODE SIZE REDUCTION:1 WORDS
                 SUBOPT_0x24:
0022dd e6ae      	LDI  R26,LOW(_value)
0022de e0b9      	LDI  R27,HIGH(_value)
0022df 940c 2115 	JMP  _atoi
                 
                 ;OPTIMIZER ADDED SUBROUTINE, CALLED 5 TIMES, CODE SIZE REDUCTION:13 WORDS
                 SUBOPT_0x25:
0022e1 940e 15bd 	CALL _send_at_command
0022e3 e3a2      	LDI  R26,LOW(50)
0022e4 e0b0      	LDI  R27,0
0022e5 940c 23d2 	JMP  _delay_ms
                 
                 ;OPTIMIZER ADDED SUBROUTINE, CALLED 5 TIMES, CODE SIZE REDUCTION:5 WORDS
                 SUBOPT_0x26:
0022e7 93e0 0062 	STS  98,R30
0022e9 91e0 0062 	LDS  R30,98
0022eb 9508      	RET
                 
                 ;OPTIMIZER ADDED SUBROUTINE, CALLED 2 TIMES, CODE SIZE REDUCTION:2 WORDS
                 SUBOPT_0x27:
0022ec e0e0      	LDI  R30,LOW(0)
0022ed bbea      	OUT  0x1A,R30
0022ee 91e0 0062 	LDS  R30,98
0022f0 60e8      	ORI  R30,8
0022f1 cff5      	RJMP SUBOPT_0x26
                 
                 ;OPTIMIZER ADDED SUBROUTINE, CALLED 2 TIMES, CODE SIZE REDUCTION:6 WORDS
                 SUBOPT_0x28:
0022f2 7fe7      	ANDI R30,0XF7
0022f3 93e0 0062 	STS  98,R30
0022f5 efef      	LDI  R30,LOW(255)
0022f6 bbea      	OUT  0x1A,R30
0022f7 81e8      	LD   R30,Y
0022f8 bbeb      	OUT  0x1B,R30
0022f9 940e 199e 	CALL _ks0108_enable_G100
0022fb 940c 19a6 	JMP  _ks0108_disable_G100
                 
                 ;OPTIMIZER ADDED SUBROUTINE, CALLED 2 TIMES, CODE SIZE REDUCTION:1 WORDS
                 SUBOPT_0x29:
0022fd 95e6      	LSR  R30
0022fe 95e6      	LSR  R30
0022ff 95e6      	LSR  R30
002300 2fae      	MOV  R26,R30
002301 940c 19fc 	JMP  _ks0108_gotoxp_G100
                 
                 ;OPTIMIZER ADDED SUBROUTINE, CALLED 4 TIMES, CODE SIZE REDUCTION:3 WORDS
                 SUBOPT_0x2A:
002303 93e0 0061 	STS  97,R30
002305 91e0 0061 	LDS  R30,97
002307 9508      	RET
                 
                 ;OPTIMIZER ADDED SUBROUTINE, CALLED 3 TIMES, CODE SIZE REDUCTION:1 WORDS
                 SUBOPT_0x2B:
002308 940e 1a20 	CALL _ks0108_wrdata_G100
00230a 940c 1a0b 	JMP  _ks0108_nextx_G100
                 
                 ;OPTIMIZER ADDED SUBROUTINE, CALLED 3 TIMES, CODE SIZE REDUCTION:1 WORDS
                 SUBOPT_0x2C:
00230c 0fea      	ADD  R30,R26
00230d 1ffb      	ADC  R31,R27
00230e 83ee      	STD  Y+6,R30
00230f 83ff      	STD  Y+6+1,R31
002310 9508      	RET
                 
                 ;OPTIMIZER ADDED SUBROUTINE, CALLED 2 TIMES, CODE SIZE REDUCTION:8 WORDS
                 SUBOPT_0x2D:
002311 85ec      	LDD  R30,Y+12
002312 93ea      	ST   -Y,R30
002313 81ef      	LDD  R30,Y+7
002314 85f8      	LDD  R31,Y+7+1
002315 9631      	ADIW R30,1
002316 83ef      	STD  Y+7,R30
002317 87f8      	STD  Y+7+1,R31
002318 9731      	SBIW R30,1
002319 93fa      	ST   -Y,R31
00231a 93ea      	ST   -Y,R30
00231b e0a0      	LDI  R26,LOW(0)
00231c 940c 219e 	JMP  _glcd_writemem
                 
                 ;OPTIMIZER ADDED SUBROUTINE, CALLED 4 TIMES, CODE SIZE REDUCTION:15 WORDS
                 SUBOPT_0x2E:
00231e 85ec      	LDD  R30,Y+12
00231f 93ea      	ST   -Y,R30
002320 81ef      	LDD  R30,Y+7
002321 85f8      	LDD  R31,Y+7+1
002322 9631      	ADIW R30,1
002323 83ef      	STD  Y+7,R30
002324 87f8      	STD  Y+7+1,R31
002325 9731      	SBIW R30,1
002326 9508      	RET
                 
                 ;OPTIMIZER ADDED SUBROUTINE, CALLED 3 TIMES, CODE SIZE REDUCTION:5 WORDS
                 SUBOPT_0x2F:
002327 2766      	CLR  R22
002328 2777      	CLR  R23
002329 01df      	MOVW R26,R30
00232a 01cb      	MOVW R24,R22
00232b 940c 217f 	JMP  _glcd_readmem
                 
                 ;OPTIMIZER ADDED SUBROUTINE, CALLED 3 TIMES, CODE SIZE REDUCTION:1 WORDS
                 SUBOPT_0x30:
00232d 935a      	ST   -Y,R21
00232e 85aa      	LDD  R26,Y+10
00232f 940c 2157 	JMP  _glcd_mappixcolor1bit
                 
                 ;OPTIMIZER ADDED SUBROUTINE, CALLED 3 TIMES, CODE SIZE REDUCTION:3 WORDS
                 SUBOPT_0x31:
002331 930a      	ST   -Y,R16
002332 9503      	INC  R16
002333 89e8      	LDD  R30,Y+16
002334 93ea      	ST   -Y,R30
002335 935a      	ST   -Y,R21
002336 9508      	RET
                 
                 ;OPTIMIZER ADDED SUBROUTINE, CALLED 2 TIMES, CODE SIZE REDUCTION:1 WORDS
                 SUBOPT_0x32:
002337 930a      	ST   -Y,R16
002338 9503      	INC  R16
002339 89a8      	LDD  R26,Y+16
00233a 940e 1a37 	CALL _ks0108_rdbyte_G100
00233c 23e4      	AND  R30,R20
00233d 9508      	RET
                 
                 ;OPTIMIZER ADDED SUBROUTINE, CALLED 2 TIMES, CODE SIZE REDUCTION:5 WORDS
                 SUBOPT_0x33:
00233e 2f5e      	MOV  R21,R30
00233f 85ec      	LDD  R30,Y+12
002340 93ea      	ST   -Y,R30
002341 81af      	LDD  R26,Y+7
002342 85b8      	LDD  R27,Y+7+1
002343 2788      	CLR  R24
002344 2799      	CLR  R25
002345 940e 217f 	CALL _glcd_readmem
002347 2e1e      	MOV  R1,R30
002348 9508      	RET
                 
                 ;OPTIMIZER ADDED SUBROUTINE, CALLED 2 TIMES, CODE SIZE REDUCTION:9 WORDS
                 SUBOPT_0x34:
002349 930a      	ST   -Y,R16
00234a 9503      	INC  R16
00234b 89e8      	LDD  R30,Y+16
00234c 93ea      	ST   -Y,R30
00234d 85ee      	LDD  R30,Y+14
00234e 93ea      	ST   -Y,R30
00234f 85e9      	LDD  R30,Y+9
002350 85fa      	LDD  R31,Y+9+1
002351 9631      	ADIW R30,1
002352 87e9      	STD  Y+9,R30
002353 87fa      	STD  Y+9+1,R31
002354 9731      	SBIW R30,1
002355 cfd1      	RJMP SUBOPT_0x2F
                 
                 ;OPTIMIZER ADDED SUBROUTINE, CALLED 2 TIMES, CODE SIZE REDUCTION:1 WORDS
                 SUBOPT_0x35:
002356 93ba      	ST   -Y,R27
002357 93aa      	ST   -Y,R26
002358 81a8      	LD   R26,Y
002359 81b9      	LDD  R27,Y+1
00235a 940e 246f 	CALL __CPW02
00235c 9508      	RET
                 
                 ;OPTIMIZER ADDED SUBROUTINE, CALLED 2 TIMES, CODE SIZE REDUCTION:1 WORDS
                 SUBOPT_0x36:
00235d 940e 2478 	CALL __SAVELOCR6
                +
00235f 91e0 0952+LDS R30 , _glcd_state + ( 4 )
002361 91f0 0953+LDS R31 , _glcd_state + ( 4 ) + 1
                 	__GETW1MN _glcd_state,4
002363 9508      	RET
                 
                 ;OPTIMIZER ADDED SUBROUTINE, CALLED 3 TIMES, CODE SIZE REDUCTION:1 WORDS
                 SUBOPT_0x37:
002364 01f8      	MOVW R30,R16
                +
002365 5f0f     +SUBI R16 , LOW ( - 1 )
002366 4f1f     +SBCI R17 , HIGH ( - 1 )
                 	__ADDWRN 16,17,1
002367 9004      	LPM  R0,Z
002368 9508      	RET
                 
                 ;OPTIMIZER ADDED SUBROUTINE, CALLED 4 TIMES, CODE SIZE REDUCTION:9 WORDS
                 SUBOPT_0x38:
                +
002369 91e0 0952+LDS R30 , _glcd_state + ( 4 )
00236b 91f0 0953+LDS R31 , _glcd_state + ( 4 ) + 1
                 	__GETW1MN _glcd_state,4
00236d 9631      	ADIW R30,1
00236e 91e4      	LPM  R30,Z
00236f 9508      	RET
                 
                 ;OPTIMIZER ADDED SUBROUTINE, CALLED 2 TIMES, CODE SIZE REDUCTION:5 WORDS
                 SUBOPT_0x39:
002370 93ea      	ST   -Y,R30
002371 e0e0      	LDI  R30,LOW(0)
002372 93ea      	ST   -Y,R30
002373 e0e0      	LDI  R30,LOW(0)
002374 e0f0      	LDI  R31,HIGH(0)
002375 93fa      	ST   -Y,R31
002376 93ea      	ST   -Y,R30
002377 e0a9      	LDI  R26,LOW(9)
002378 940c 1b49 	JMP  _glcd_block
                 
                 ;OPTIMIZER ADDED SUBROUTINE, CALLED 3 TIMES, CODE SIZE REDUCTION:3 WORDS
                 SUBOPT_0x3A:
00237a 91ed      	LD   R30,X+
00237b 91fd      	LD   R31,X+
00237c 9631      	ADIW R30,1
00237d 93fe      	ST   -X,R31
00237e 93ee      	ST   -X,R30
00237f 9508      	RET
                 
                 ;OPTIMIZER ADDED SUBROUTINE, CALLED 5 TIMES, CODE SIZE REDUCTION:13 WORDS
                 SUBOPT_0x3B:
002380 932a      	ST   -Y,R18
002381 85ad      	LDD  R26,Y+13
002382 85be      	LDD  R27,Y+13+1
002383 85ef      	LDD  R30,Y+15
002384 89f8      	LDD  R31,Y+15+1
002385 9509      	ICALL
002386 9508      	RET
                 
                 ;OPTIMIZER ADDED SUBROUTINE, CALLED 5 TIMES, CODE SIZE REDUCTION:9 WORDS
                 SUBOPT_0x3C:
002387 89e8      	LDD  R30,Y+16
002388 89f9      	LDD  R31,Y+16+1
002389 9734      	SBIW R30,4
00238a 8be8      	STD  Y+16,R30
00238b 8bf9      	STD  Y+16+1,R31
00238c 9508      	RET
                 
                 ;OPTIMIZER ADDED SUBROUTINE, CALLED 3 TIMES, CODE SIZE REDUCTION:3 WORDS
                 SUBOPT_0x3D:
00238d 85ad      	LDD  R26,Y+13
00238e 85be      	LDD  R27,Y+13+1
00238f 85ef      	LDD  R30,Y+15
002390 89f8      	LDD  R31,Y+15+1
002391 9509      	ICALL
002392 9508      	RET
                 
                 ;OPTIMIZER ADDED SUBROUTINE, CALLED 2 TIMES, CODE SIZE REDUCTION:4 WORDS
                 SUBOPT_0x3E:
002393 89a8      	LDD  R26,Y+16
002394 89b9      	LDD  R27,Y+16+1
002395 9614      	ADIW R26,4
002396 940e 243b 	CALL __GETW1P
002398 83ee      	STD  Y+6,R30
002399 83ff      	STD  Y+6+1,R31
00239a 81ae      	LDD  R26,Y+6
00239b 81bf      	LDD  R27,Y+6+1
00239c 9508      	RET
                 
                 ;OPTIMIZER ADDED SUBROUTINE, CALLED 2 TIMES, CODE SIZE REDUCTION:2 WORDS
                 SUBOPT_0x3F:
00239d 89a8      	LDD  R26,Y+16
00239e 89b9      	LDD  R27,Y+16+1
00239f 9614      	ADIW R26,4
0023a0 940e 243b 	CALL __GETW1P
0023a2 87ea      	STD  Y+10,R30
0023a3 87fb      	STD  Y+10+1,R31
0023a4 9508      	RET
                 
                 ;OPTIMIZER ADDED SUBROUTINE, CALLED 4 TIMES, CODE SIZE REDUCTION:9 WORDS
                 SUBOPT_0x40:
0023a5 01de      	MOVW R26,R28
0023a6 961c      	ADIW R26,12
0023a7 940e 23dc 	CALL __ADDW2R15
0023a9 940e 243b 	CALL __GETW1P
0023ab 9508      	RET
                 
                 ;OPTIMIZER ADDED SUBROUTINE, CALLED 2 TIMES, CODE SIZE REDUCTION:18 WORDS
                 SUBOPT_0x41:
0023ac 01de      	MOVW R26,R28
0023ad 961a      	ADIW R26,10
0023ae 940e 23dc 	CALL __ADDW2R15
0023b0 940e 243b 	CALL __GETW1P
0023b2 93fa      	ST   -Y,R31
0023b3 93ea      	ST   -Y,R30
0023b4 931a      	ST   -Y,R17
0023b5 930a      	ST   -Y,R16
0023b6 e7e0      	LDI  R30,LOW(_put_buff_G103)
0023b7 e1fe      	LDI  R31,HIGH(_put_buff_G103)
0023b8 93fa      	ST   -Y,R31
0023b9 93ea      	ST   -Y,R30
0023ba 01de      	MOVW R26,R28
0023bb 961a      	ADIW R26,10
0023bc 940e 1ea9 	CALL __print_G103
0023be 019f      	MOVW R18,R30
0023bf 81ae      	LDD  R26,Y+6
0023c0 81bf      	LDD  R27,Y+6+1
0023c1 e0e0      	LDI  R30,LOW(0)
0023c2 93ec      	ST   X,R30
0023c3 9508      	RET
                 
                 ;OPTIMIZER ADDED SUBROUTINE, CALLED 2 TIMES, CODE SIZE REDUCTION:1 WORDS
                 SUBOPT_0x42:
0023c4 01de      	MOVW R26,R28
0023c5 961e      	ADIW R26,14
0023c6 940e 23dc 	CALL __ADDW2R15
0023c8 940e 243b 	CALL __GETW1P
0023ca 9508      	RET
                 
                 ;OPTIMIZER ADDED SUBROUTINE, CALLED 2 TIMES, CODE SIZE REDUCTION:1 WORDS
                 SUBOPT_0x43:
0023cb 81ec      	LDD  R30,Y+4
0023cc 81fd      	LDD  R31,Y+4+1
0023cd 93fa      	ST   -Y,R31
0023ce 93ea      	ST   -Y,R30
0023cf 81ac      	LDD  R26,Y+4
0023d0 81bd      	LDD  R27,Y+4+1
0023d1 9508      	RET
                 
                 
                 	.CSEG
                 _delay_ms:
0023d2 9610      	adiw r26,0
0023d3 f039      	breq __delay_ms1
                 __delay_ms0:
0023d4 95a8      	wdr
                +
0023d5 ed80     +LDI R24 , LOW ( 0x7D0 )
0023d6 e097     +LDI R25 , HIGH ( 0x7D0 )
                +__DELAY_USW_LOOP :
0023d7 9701     +SBIW R24 , 1
0023d8 f7f1     +BRNE __DELAY_USW_LOOP
                 	__DELAY_USW 0x7D0
0023d9 9711      	sbiw r26,1
0023da f7c9      	brne __delay_ms0
                 __delay_ms1:
0023db 9508      	ret
                 
                 __ADDW2R15:
0023dc 2400      	CLR  R0
0023dd 0daf      	ADD  R26,R15
0023de 1db0      	ADC  R27,R0
0023df 9508      	RET
                 
                 __SUBD21:
0023e0 1bae      	SUB  R26,R30
0023e1 0bbf      	SBC  R27,R31
0023e2 0b86      	SBC  R24,R22
0023e3 0b97      	SBC  R25,R23
0023e4 9508      	RET
                 
                 __ANEGW1:
0023e5 95f1      	NEG  R31
0023e6 95e1      	NEG  R30
0023e7 40f0      	SBCI R31,0
0023e8 9508      	RET
                 
                 __LSLB12:
0023e9 23ee      	TST  R30
0023ea 2e0e      	MOV  R0,R30
0023eb 2fea      	MOV  R30,R26
0023ec f019      	BREQ __LSLB12R
                 __LSLB12L:
0023ed 0fee      	LSL  R30
0023ee 940a      	DEC  R0
0023ef f7e9      	BRNE __LSLB12L
                 __LSLB12R:
0023f0 9508      	RET
                 
                 __LSRB12:
0023f1 23ee      	TST  R30
0023f2 2e0e      	MOV  R0,R30
0023f3 2fea      	MOV  R30,R26
0023f4 f019      	BREQ __LSRB12R
                 __LSRB12L:
0023f5 95e6      	LSR  R30
0023f6 940a      	DEC  R0
0023f7 f7e9      	BRNE __LSRB12L
                 __LSRB12R:
0023f8 9508      	RET
                 
                 __LSLW12:
0023f9 23ee      	TST  R30
0023fa 2e0e      	MOV  R0,R30
0023fb 01fd      	MOVW R30,R26
0023fc f021      	BREQ __LSLW12R
                 __LSLW12L:
0023fd 0fee      	LSL  R30
0023fe 1fff      	ROL  R31
0023ff 940a      	DEC  R0
002400 f7e1      	BRNE __LSLW12L
                 __LSLW12R:
002401 9508      	RET
                 
                 __CWD1:
002402 2f6f      	MOV  R22,R31
002403 0f66      	ADD  R22,R22
002404 0b66      	SBC  R22,R22
002405 2f76      	MOV  R23,R22
002406 9508      	RET
                 
                 __GTW12:
002407 17ea      	CP   R30,R26
002408 07fb      	CPC  R31,R27
002409 e0e1      	LDI  R30,1
00240a f00c      	BRLT __GTW12T
00240b 27ee      	CLR  R30
                 __GTW12T:
00240c 9508      	RET
                 
                 __MULW12U:
00240d 9ffa      	MUL  R31,R26
00240e 2df0      	MOV  R31,R0
00240f 9feb      	MUL  R30,R27
002410 0df0      	ADD  R31,R0
002411 9fea      	MUL  R30,R26
002412 2de0      	MOV  R30,R0
002413 0df1      	ADD  R31,R1
002414 9508      	RET
                 
                 __DIVW21U:
002415 2400      	CLR  R0
002416 2411      	CLR  R1
002417 e190      	LDI  R25,16
                 __DIVW21U1:
002418 0faa      	LSL  R26
002419 1fbb      	ROL  R27
00241a 1c00      	ROL  R0
00241b 1c11      	ROL  R1
00241c 1a0e      	SUB  R0,R30
00241d 0a1f      	SBC  R1,R31
00241e f418      	BRCC __DIVW21U2
00241f 0e0e      	ADD  R0,R30
002420 1e1f      	ADC  R1,R31
002421 c001      	RJMP __DIVW21U3
                 __DIVW21U2:
002422 60a1      	SBR  R26,1
                 __DIVW21U3:
002423 959a      	DEC  R25
002424 f799      	BRNE __DIVW21U1
002425 01fd      	MOVW R30,R26
002426 01d0      	MOVW R26,R0
002427 9508      	RET
                 
                 __DIVW21:
002428 d004      	RCALL __CHKSIGNW
002429 dfeb      	RCALL __DIVW21U
00242a f40e      	BRTC __DIVW211
00242b dfb9      	RCALL __ANEGW1
                 __DIVW211:
00242c 9508      	RET
                 
                 __CHKSIGNW:
00242d 94e8      	CLT
00242e fff7      	SBRS R31,7
00242f c002      	RJMP __CHKSW1
002430 dfb4      	RCALL __ANEGW1
002431 9468      	SET
                 __CHKSW1:
002432 ffb7      	SBRS R27,7
002433 c006      	RJMP __CHKSW2
002434 95a0      	COM  R26
002435 95b0      	COM  R27
002436 9611      	ADIW R26,1
002437 f800      	BLD  R0,0
002438 9403      	INC  R0
002439 fa00      	BST  R0,0
                 __CHKSW2:
00243a 9508      	RET
                 
                 __GETW1P:
00243b 91ed      	LD   R30,X+
00243c 91fc      	LD   R31,X
00243d 9711      	SBIW R26,1
00243e 9508      	RET
                 
                 __GETW1PF:
00243f 9005      	LPM  R0,Z+
002440 91f4      	LPM  R31,Z
002441 2de0      	MOV  R30,R0
002442 9508      	RET
                 
                 __GETD1S0:
002443 81e8      	LD   R30,Y
002444 81f9      	LDD  R31,Y+1
002445 816a      	LDD  R22,Y+2
002446 817b      	LDD  R23,Y+3
002447 9508      	RET
                 
                 __PUTD1S0:
002448 83e8      	ST   Y,R30
002449 83f9      	STD  Y+1,R31
00244a 836a      	STD  Y+2,R22
00244b 837b      	STD  Y+3,R23
00244c 9508      	RET
                 
                 __PUTPARD1:
00244d 937a      	ST   -Y,R23
00244e 936a      	ST   -Y,R22
00244f 93fa      	ST   -Y,R31
002450 93ea      	ST   -Y,R30
002451 9508      	RET
                 
                 __EEPROMRDB:
002452 99e1      	SBIC EECR,EEWE
002453 cffe      	RJMP __EEPROMRDB
002454 93ff      	PUSH R31
002455 b7ff      	IN   R31,SREG
002456 94f8      	CLI
002457 bbae      	OUT  EEARL,R26
002458 bbbf      	OUT  EEARH,R27
002459 9ae0      	SBI  EECR,EERE
00245a b3ed      	IN   R30,EEDR
00245b bfff      	OUT  SREG,R31
00245c 91ff      	POP  R31
00245d 9508      	RET
                 
                 __EEPROMWRB:
00245e 9be1      	SBIS EECR,EEWE
00245f c002      	RJMP __EEPROMWRB1
002460 95a8      	WDR
002461 cffc      	RJMP __EEPROMWRB
                 __EEPROMWRB1:
002462 b79f      	IN   R25,SREG
002463 94f8      	CLI
002464 bbae      	OUT  EEARL,R26
002465 bbbf      	OUT  EEARH,R27
002466 9ae0      	SBI  EECR,EERE
002467 b38d      	IN   R24,EEDR
002468 17e8      	CP   R30,R24
002469 f019      	BREQ __EEPROMWRB0
00246a bbed      	OUT  EEDR,R30
00246b 9ae2      	SBI  EECR,EEMWE
00246c 9ae1      	SBI  EECR,EEWE
                 __EEPROMWRB0:
00246d bf9f      	OUT  SREG,R25
00246e 9508      	RET
                 
                 __CPW02:
00246f 2400      	CLR  R0
002470 160a      	CP   R0,R26
002471 060b      	CPC  R0,R27
002472 9508      	RET
                 
                 __CPD21:
002473 17ae      	CP   R26,R30
002474 07bf      	CPC  R27,R31
002475 0786      	CPC  R24,R22
002476 0797      	CPC  R25,R23
002477 9508      	RET
                 
                 __SAVELOCR6:
002478 935a      	ST   -Y,R21
                 __SAVELOCR5:
002479 934a      	ST   -Y,R20
                 __SAVELOCR4:
00247a 933a      	ST   -Y,R19
                 __SAVELOCR3:
00247b 932a      	ST   -Y,R18
                 __SAVELOCR2:
00247c 931a      	ST   -Y,R17
00247d 930a      	ST   -Y,R16
00247e 9508      	RET
                 
                 __LOADLOCR6:
00247f 815d      	LDD  R21,Y+5
                 __LOADLOCR5:
002480 814c      	LDD  R20,Y+4
                 __LOADLOCR4:
002481 813b      	LDD  R19,Y+3
                 __LOADLOCR3:
002482 812a      	LDD  R18,Y+2
                 __LOADLOCR2:
002483 8119      	LDD  R17,Y+1
002484 8108      	LD   R16,Y
002485 9508      	RET
                 
                 __INITLOCB:
                 __INITLOCW:
002486 0fac      	ADD  R26,R28
002487 1fbd      	ADC  R27,R29
                 __INITLOC0:
002488 9005      	LPM  R0,Z+
002489 920d      	ST   X+,R0
00248a 958a      	DEC  R24
00248b f7e1      	BRNE __INITLOC0
00248c 9508      	RET
                 
                 ;END OF CODE MARKER
                 __END_OF_CODE:


RESOURCE USE INFORMATION
------------------------

Notice:
The register and instruction counts are symbol table hit counts,
and hence implicitly used resources are not counted, eg, the
'lpm' instruction without operands implicitly uses r0 and z,
none of which are counted.

x,y,z are separate entities in the symbol table and are
counted separately from r26..r31 here.

.dseg memory usage only counts static data declared with .byte

ATmega64A register use summary:
r0 :  68 r1 :  17 r2 :   6 r3 :   0 r4 :   1 r5 :   0 r6 :   0 r7 :   0 
r8 :   0 r9 :   0 r10:   0 r11:   2 r12:   0 r13:   0 r14:   0 r15:   9 
r16: 116 r17: 151 r18:  75 r19:  50 r20:  52 r21:  65 r22:  63 r23:  38 
r24:  44 r25:  15 r26: 581 r27: 259 r28:  86 r29:   5 r30:1250 r31: 348 
x  :  54 y  : 817 z  :  48 
Registers used: 25 out of 35 (71.4%)

ATmega64A instruction use summary:
.lds  :   0 .lds.l:   0 .sts  :   0 .sts.l:   0 adc   :  27 add   :  38 
adiw  :  83 and   :  10 andi  :  23 asr   :   0 bclr  :   0 bld   :   5 
brbc  :   0 brbs  :   0 brcc  :   2 brcs  :   0 break :   0 breq  :  88 
brge  :   5 brhc  :   0 brhs  :   0 brid  :   0 brie  :   0 brlo  :  21 
brlt  :   9 brmi  :   1 brne  : 128 brpl  :   1 brsh  :  32 brtc  :   2 
brts  :   0 brvc  :   0 brvs  :   0 bset  :   0 bst   :   1 call  : 474 
cbi   :   0 cbr   :   0 clc   :   0 clh   :   0 cli   :   5 cln   :   0 
clr   :  45 cls   :   0 clt   :   4 clv   :   0 clz   :   0 com   :  12 
cp    :  38 cpc   :  35 cpi   : 171 cpse  :   0 dec   :   6 des   :   0 
eor   :   1 fmul  :   0 fmuls :   0 fmulsu:   0 icall :   4 ijmp  :   0 
in    :  14 inc   :   6 jmp   :  71 ld    : 104 ldd   : 356 ldi   : 663 
lds   :  86 lpm   :  37 lsl   :   9 lsr   :  15 mov   : 120 movw  :  97 
mul   :   5 muls  :   0 mulsu :   0 neg   :   2 nop   :   2 or    :  10 
ori   :  23 out   :  61 pop   :  13 push  :  14 rcall :  74 ret   : 117 
reti  :   2 rjmp  : 225 rol   :   7 ror   :   0 sbc   :   6 sbci  :  40 
sbi   :   4 sbic  :   2 sbis  :   2 sbiw  :  64 sbr   :   1 sbrc  :   2 
sbrs  :  16 sec   :   0 seh   :   0 sei   :   3 sen   :   0 ser   :   0 
ses   :   0 set   :   4 sev   :   0 sez   :   0 sleep :   0 spm   :   0 
st    : 334 std   : 102 sts   :  97 sub   :  10 subi  :  91 swap  :   1 
tst   :  17 wdr   :   2 
Instructions used: 72 out of 116 (62.1%)

ATmega64A memory use summary [bytes]:
Segment   Begin    End      Code   Data   Used    Size   Use%
---------------------------------------------------------------
[.cseg] 0x000000 0x00491a   9834   8880  18714   65536  28.6%
[.dseg] 0x000100 0x000bdd      0   1757   1757    4096  42.9%
[.eseg] 0x000000 0x000000      0      0      0    2048   0.0%

Assembly complete, 0 errors, 14 warnings
