
AVRASM ver. 2.1.30  D:\project\vending\code\full\glcd_keypad_sim\Debug\List\glcd_keypad_sim.asm Thu Sep 18 02:45:43 2025

D:\project\vending\code\full\glcd_keypad_sim\Debug\List\glcd_keypad_sim.asm(1089): warning: Register r4 already defined by the .DEF directive
D:\project\vending\code\full\glcd_keypad_sim\Debug\List\glcd_keypad_sim.asm(1090): warning: Register r5 already defined by the .DEF directive
D:\project\vending\code\full\glcd_keypad_sim\Debug\List\glcd_keypad_sim.asm(1091): warning: Register r6 already defined by the .DEF directive
D:\project\vending\code\full\glcd_keypad_sim\Debug\List\glcd_keypad_sim.asm(1092): warning: Register r7 already defined by the .DEF directive
                 
                 
                 ;CodeVisionAVR C Compiler V3.14 Advanced
                 ;(C) Copyright 1998-2014 Pavel Haiduc, HP InfoTech s.r.l.
                 ;http://www.hpinfotech.com
                 
                 ;Build configuration    : Debug
                 ;Chip type              : ATmega64A
                 ;Program type           : Application
                 ;Clock frequency        : 8.000000 MHz
                 ;Memory model           : Small
                 ;Optimize for           : Size
                 ;(s)printf features     : int, width
                 ;(s)scanf features      : int, width
                 ;External RAM size      : 0
                 ;Data Stack size        : 1024 byte(s)
                 ;Heap size              : 0 byte(s)
                 ;Promote 'char' to 'int': Yes
                 ;'char' is unsigned     : Yes
                 ;8 bit enums            : Yes
                 ;Global 'const' stored in FLASH: Yes
                 ;Enhanced function parameter passing: Yes
                 ;Enhanced core instructions: On
                 ;Automatic register allocation for global variables: On
                 ;Smart register allocation: On
                 
                 	#define _MODEL_SMALL_
                 
                 	#pragma AVRPART ADMIN PART_NAME ATmega64A
                 	#pragma AVRPART MEMORY PROG_FLASH 65536
                 	#pragma AVRPART MEMORY EEPROM 2048
                 	#pragma AVRPART MEMORY INT_SRAM SIZE 4096
                 	#pragma AVRPART MEMORY INT_SRAM START_ADDR 0x100
                 
                 	#define CALL_SUPPORTED 1
                 
                 	.LISTMAC
                 	.EQU UDRE=0x5
                 	.EQU RXC=0x7
                 	.EQU USR=0xB
                 	.EQU UDR=0xC
                 	.EQU SPSR=0xE
                 	.EQU SPDR=0xF
                 	.EQU EERE=0x0
                 	.EQU EEWE=0x1
                 	.EQU EEMWE=0x2
                 	.EQU EECR=0x1C
                 	.EQU EEDR=0x1D
                 	.EQU EEARL=0x1E
                 	.EQU EEARH=0x1F
                 	.EQU WDTCR=0x21
                 	.EQU MCUCR=0x35
                 	.EQU SPL=0x3D
                 	.EQU SPH=0x3E
                 	.EQU SREG=0x3F
                 	.EQU XMCRA=0x6D
                 	.EQU XMCRB=0x6C
                 
                 	.DEF R0X0=R0
                 	.DEF R0X1=R1
                 	.DEF R0X2=R2
                 	.DEF R0X3=R3
                 	.DEF R0X4=R4
                 	.DEF R0X5=R5
                 	.DEF R0X6=R6
                 	.DEF R0X7=R7
                 	.DEF R0X8=R8
                 	.DEF R0X9=R9
                 	.DEF R0XA=R10
                 	.DEF R0XB=R11
                 	.DEF R0XC=R12
                 	.DEF R0XD=R13
                 	.DEF R0XE=R14
                 	.DEF R0XF=R15
                 	.DEF R0X10=R16
                 	.DEF R0X11=R17
                 	.DEF R0X12=R18
                 	.DEF R0X13=R19
                 	.DEF R0X14=R20
                 	.DEF R0X15=R21
                 	.DEF R0X16=R22
                 	.DEF R0X17=R23
                 	.DEF R0X18=R24
                 	.DEF R0X19=R25
                 	.DEF R0X1A=R26
                 	.DEF R0X1B=R27
                 	.DEF R0X1C=R28
                 	.DEF R0X1D=R29
                 	.DEF R0X1E=R30
                 	.DEF R0X1F=R31
                 
                 	.EQU __SRAM_START=0x0100
                 	.EQU __SRAM_END=0x10FF
                 	.EQU __DSTACK_SIZE=0x0400
                 	.EQU __HEAP_SIZE=0x0000
                 	.EQU __CLEAR_SRAM_SIZE=__SRAM_END-__SRAM_START+1
                 
                 	.MACRO __CPD1N
                 	CPI  R30,LOW(@0)
                 	LDI  R26,HIGH(@0)
                 	CPC  R31,R26
                 	LDI  R26,BYTE3(@0)
                 	CPC  R22,R26
                 	LDI  R26,BYTE4(@0)
                 	CPC  R23,R26
                 	.ENDM
                 
                 	.MACRO __CPD2N
                 	CPI  R26,LOW(@0)
                 	LDI  R30,HIGH(@0)
                 	CPC  R27,R30
                 	LDI  R30,BYTE3(@0)
                 	CPC  R24,R30
                 	LDI  R30,BYTE4(@0)
                 	CPC  R25,R30
                 	.ENDM
                 
                 	.MACRO __CPWRR
                 	CP   R@0,R@2
                 	CPC  R@1,R@3
                 	.ENDM
                 
                 	.MACRO __CPWRN
                 	CPI  R@0,LOW(@2)
                 	LDI  R30,HIGH(@2)
                 	CPC  R@1,R30
                 	.ENDM
                 
                 	.MACRO __ADDB1MN
                 	SUBI R30,LOW(-@0-(@1))
                 	.ENDM
                 
                 	.MACRO __ADDB2MN
                 	SUBI R26,LOW(-@0-(@1))
                 	.ENDM
                 
                 	.MACRO __ADDW1MN
                 	SUBI R30,LOW(-@0-(@1))
                 	SBCI R31,HIGH(-@0-(@1))
                 	.ENDM
                 
                 	.MACRO __ADDW2MN
                 	SUBI R26,LOW(-@0-(@1))
                 	SBCI R27,HIGH(-@0-(@1))
                 	.ENDM
                 
                 	.MACRO __ADDW1FN
                 	SUBI R30,LOW(-2*@0-(@1))
                 	SBCI R31,HIGH(-2*@0-(@1))
                 	.ENDM
                 
                 	.MACRO __ADDD1FN
                 	SUBI R30,LOW(-2*@0-(@1))
                 	SBCI R31,HIGH(-2*@0-(@1))
                 	SBCI R22,BYTE3(-2*@0-(@1))
                 	.ENDM
                 
                 	.MACRO __ADDD1N
                 	SUBI R30,LOW(-@0)
                 	SBCI R31,HIGH(-@0)
                 	SBCI R22,BYTE3(-@0)
                 	SBCI R23,BYTE4(-@0)
                 	.ENDM
                 
                 	.MACRO __ADDD2N
                 	SUBI R26,LOW(-@0)
                 	SBCI R27,HIGH(-@0)
                 	SBCI R24,BYTE3(-@0)
                 	SBCI R25,BYTE4(-@0)
                 	.ENDM
                 
                 	.MACRO __SUBD1N
                 	SUBI R30,LOW(@0)
                 	SBCI R31,HIGH(@0)
                 	SBCI R22,BYTE3(@0)
                 	SBCI R23,BYTE4(@0)
                 	.ENDM
                 
                 	.MACRO __SUBD2N
                 	SUBI R26,LOW(@0)
                 	SBCI R27,HIGH(@0)
                 	SBCI R24,BYTE3(@0)
                 	SBCI R25,BYTE4(@0)
                 	.ENDM
                 
                 	.MACRO __ANDBMNN
                 	LDS  R30,@0+(@1)
                 	ANDI R30,LOW(@2)
                 	STS  @0+(@1),R30
                 	.ENDM
                 
                 	.MACRO __ANDWMNN
                 	LDS  R30,@0+(@1)
                 	ANDI R30,LOW(@2)
                 	STS  @0+(@1),R30
                 	LDS  R30,@0+(@1)+1
                 	ANDI R30,HIGH(@2)
                 	STS  @0+(@1)+1,R30
                 	.ENDM
                 
                 	.MACRO __ANDD1N
                 	ANDI R30,LOW(@0)
                 	ANDI R31,HIGH(@0)
                 	ANDI R22,BYTE3(@0)
                 	ANDI R23,BYTE4(@0)
                 	.ENDM
                 
                 	.MACRO __ANDD2N
                 	ANDI R26,LOW(@0)
                 	ANDI R27,HIGH(@0)
                 	ANDI R24,BYTE3(@0)
                 	ANDI R25,BYTE4(@0)
                 	.ENDM
                 
                 	.MACRO __ORBMNN
                 	LDS  R30,@0+(@1)
                 	ORI  R30,LOW(@2)
                 	STS  @0+(@1),R30
                 	.ENDM
                 
                 	.MACRO __ORWMNN
                 	LDS  R30,@0+(@1)
                 	ORI  R30,LOW(@2)
                 	STS  @0+(@1),R30
                 	LDS  R30,@0+(@1)+1
                 	ORI  R30,HIGH(@2)
                 	STS  @0+(@1)+1,R30
                 	.ENDM
                 
                 	.MACRO __ORD1N
                 	ORI  R30,LOW(@0)
                 	ORI  R31,HIGH(@0)
                 	ORI  R22,BYTE3(@0)
                 	ORI  R23,BYTE4(@0)
                 	.ENDM
                 
                 	.MACRO __ORD2N
                 	ORI  R26,LOW(@0)
                 	ORI  R27,HIGH(@0)
                 	ORI  R24,BYTE3(@0)
                 	ORI  R25,BYTE4(@0)
                 	.ENDM
                 
                 	.MACRO __DELAY_USB
                 	LDI  R24,LOW(@0)
                 __DELAY_USB_LOOP:
                 	DEC  R24
                 	BRNE __DELAY_USB_LOOP
                 	.ENDM
                 
                 	.MACRO __DELAY_USW
                 	LDI  R24,LOW(@0)
                 	LDI  R25,HIGH(@0)
                 __DELAY_USW_LOOP:
                 	SBIW R24,1
                 	BRNE __DELAY_USW_LOOP
                 	.ENDM
                 
                 	.MACRO __GETD1S
                 	LDD  R30,Y+@0
                 	LDD  R31,Y+@0+1
                 	LDD  R22,Y+@0+2
                 	LDD  R23,Y+@0+3
                 	.ENDM
                 
                 	.MACRO __GETD2S
                 	LDD  R26,Y+@0
                 	LDD  R27,Y+@0+1
                 	LDD  R24,Y+@0+2
                 	LDD  R25,Y+@0+3
                 	.ENDM
                 
                 	.MACRO __PUTD1S
                 	STD  Y+@0,R30
                 	STD  Y+@0+1,R31
                 	STD  Y+@0+2,R22
                 	STD  Y+@0+3,R23
                 	.ENDM
                 
                 	.MACRO __PUTD2S
                 	STD  Y+@0,R26
                 	STD  Y+@0+1,R27
                 	STD  Y+@0+2,R24
                 	STD  Y+@0+3,R25
                 	.ENDM
                 
                 	.MACRO __PUTDZ2
                 	STD  Z+@0,R26
                 	STD  Z+@0+1,R27
                 	STD  Z+@0+2,R24
                 	STD  Z+@0+3,R25
                 	.ENDM
                 
                 	.MACRO __CLRD1S
                 	STD  Y+@0,R30
                 	STD  Y+@0+1,R30
                 	STD  Y+@0+2,R30
                 	STD  Y+@0+3,R30
                 	.ENDM
                 
                 	.MACRO __POINTB1MN
                 	LDI  R30,LOW(@0+(@1))
                 	.ENDM
                 
                 	.MACRO __POINTW1MN
                 	LDI  R30,LOW(@0+(@1))
                 	LDI  R31,HIGH(@0+(@1))
                 	.ENDM
                 
                 	.MACRO __POINTD1M
                 	LDI  R30,LOW(@0)
                 	LDI  R31,HIGH(@0)
                 	LDI  R22,BYTE3(@0)
                 	LDI  R23,BYTE4(@0)
                 	.ENDM
                 
                 	.MACRO __POINTW1FN
                 	LDI  R30,LOW(2*@0+(@1))
                 	LDI  R31,HIGH(2*@0+(@1))
                 	.ENDM
                 
                 	.MACRO __POINTD1FN
                 	LDI  R30,LOW(2*@0+(@1))
                 	LDI  R31,HIGH(2*@0+(@1))
                 	LDI  R22,BYTE3(2*@0+(@1))
                 	LDI  R23,BYTE4(2*@0+(@1))
                 	.ENDM
                 
                 	.MACRO __POINTB2MN
                 	LDI  R26,LOW(@0+(@1))
                 	.ENDM
                 
                 	.MACRO __POINTW2MN
                 	LDI  R26,LOW(@0+(@1))
                 	LDI  R27,HIGH(@0+(@1))
                 	.ENDM
                 
                 	.MACRO __POINTW2FN
                 	LDI  R26,LOW(2*@0+(@1))
                 	LDI  R27,HIGH(2*@0+(@1))
                 	.ENDM
                 
                 	.MACRO __POINTD2FN
                 	LDI  R26,LOW(2*@0+(@1))
                 	LDI  R27,HIGH(2*@0+(@1))
                 	LDI  R24,BYTE3(2*@0+(@1))
                 	LDI  R25,BYTE4(2*@0+(@1))
                 	.ENDM
                 
                 	.MACRO __POINTBRM
                 	LDI  R@0,LOW(@1)
                 	.ENDM
                 
                 	.MACRO __POINTWRM
                 	LDI  R@0,LOW(@2)
                 	LDI  R@1,HIGH(@2)
                 	.ENDM
                 
                 	.MACRO __POINTBRMN
                 	LDI  R@0,LOW(@1+(@2))
                 	.ENDM
                 
                 	.MACRO __POINTWRMN
                 	LDI  R@0,LOW(@2+(@3))
                 	LDI  R@1,HIGH(@2+(@3))
                 	.ENDM
                 
                 	.MACRO __POINTWRFN
                 	LDI  R@0,LOW(@2*2+(@3))
                 	LDI  R@1,HIGH(@2*2+(@3))
                 	.ENDM
                 
                 	.MACRO __GETD1N
                 	LDI  R30,LOW(@0)
                 	LDI  R31,HIGH(@0)
                 	LDI  R22,BYTE3(@0)
                 	LDI  R23,BYTE4(@0)
                 	.ENDM
                 
                 	.MACRO __GETD2N
                 	LDI  R26,LOW(@0)
                 	LDI  R27,HIGH(@0)
                 	LDI  R24,BYTE3(@0)
                 	LDI  R25,BYTE4(@0)
                 	.ENDM
                 
                 	.MACRO __GETB1MN
                 	LDS  R30,@0+(@1)
                 	.ENDM
                 
                 	.MACRO __GETB1HMN
                 	LDS  R31,@0+(@1)
                 	.ENDM
                 
                 	.MACRO __GETW1MN
                 	LDS  R30,@0+(@1)
                 	LDS  R31,@0+(@1)+1
                 	.ENDM
                 
                 	.MACRO __GETD1MN
                 	LDS  R30,@0+(@1)
                 	LDS  R31,@0+(@1)+1
                 	LDS  R22,@0+(@1)+2
                 	LDS  R23,@0+(@1)+3
                 	.ENDM
                 
                 	.MACRO __GETBRMN
                 	LDS  R@0,@1+(@2)
                 	.ENDM
                 
                 	.MACRO __GETWRMN
                 	LDS  R@0,@2+(@3)
                 	LDS  R@1,@2+(@3)+1
                 	.ENDM
                 
                 	.MACRO __GETWRZ
                 	LDD  R@0,Z+@2
                 	LDD  R@1,Z+@2+1
                 	.ENDM
                 
                 	.MACRO __GETD2Z
                 	LDD  R26,Z+@0
                 	LDD  R27,Z+@0+1
                 	LDD  R24,Z+@0+2
                 	LDD  R25,Z+@0+3
                 	.ENDM
                 
                 	.MACRO __GETB2MN
                 	LDS  R26,@0+(@1)
                 	.ENDM
                 
                 	.MACRO __GETW2MN
                 	LDS  R26,@0+(@1)
                 	LDS  R27,@0+(@1)+1
                 	.ENDM
                 
                 	.MACRO __GETD2MN
                 	LDS  R26,@0+(@1)
                 	LDS  R27,@0+(@1)+1
                 	LDS  R24,@0+(@1)+2
                 	LDS  R25,@0+(@1)+3
                 	.ENDM
                 
                 	.MACRO __PUTB1MN
                 	STS  @0+(@1),R30
                 	.ENDM
                 
                 	.MACRO __PUTW1MN
                 	STS  @0+(@1),R30
                 	STS  @0+(@1)+1,R31
                 	.ENDM
                 
                 	.MACRO __PUTD1MN
                 	STS  @0+(@1),R30
                 	STS  @0+(@1)+1,R31
                 	STS  @0+(@1)+2,R22
                 	STS  @0+(@1)+3,R23
                 	.ENDM
                 
                 	.MACRO __PUTB1EN
                 	LDI  R26,LOW(@0+(@1))
                 	LDI  R27,HIGH(@0+(@1))
                 	CALL __EEPROMWRB
                 	.ENDM
                 
                 	.MACRO __PUTW1EN
                 	LDI  R26,LOW(@0+(@1))
                 	LDI  R27,HIGH(@0+(@1))
                 	CALL __EEPROMWRW
                 	.ENDM
                 
                 	.MACRO __PUTD1EN
                 	LDI  R26,LOW(@0+(@1))
                 	LDI  R27,HIGH(@0+(@1))
                 	CALL __EEPROMWRD
                 	.ENDM
                 
                 	.MACRO __PUTBR0MN
                 	STS  @0+(@1),R0
                 	.ENDM
                 
                 	.MACRO __PUTBMRN
                 	STS  @0+(@1),R@2
                 	.ENDM
                 
                 	.MACRO __PUTWMRN
                 	STS  @0+(@1),R@2
                 	STS  @0+(@1)+1,R@3
                 	.ENDM
                 
                 	.MACRO __PUTBZR
                 	STD  Z+@1,R@0
                 	.ENDM
                 
                 	.MACRO __PUTWZR
                 	STD  Z+@2,R@0
                 	STD  Z+@2+1,R@1
                 	.ENDM
                 
                 	.MACRO __GETW1R
                 	MOV  R30,R@0
                 	MOV  R31,R@1
                 	.ENDM
                 
                 	.MACRO __GETW2R
                 	MOV  R26,R@0
                 	MOV  R27,R@1
                 	.ENDM
                 
                 	.MACRO __GETWRN
                 	LDI  R@0,LOW(@2)
                 	LDI  R@1,HIGH(@2)
                 	.ENDM
                 
                 	.MACRO __PUTW1R
                 	MOV  R@0,R30
                 	MOV  R@1,R31
                 	.ENDM
                 
                 	.MACRO __PUTW2R
                 	MOV  R@0,R26
                 	MOV  R@1,R27
                 	.ENDM
                 
                 	.MACRO __ADDWRN
                 	SUBI R@0,LOW(-@2)
                 	SBCI R@1,HIGH(-@2)
                 	.ENDM
                 
                 	.MACRO __ADDWRR
                 	ADD  R@0,R@2
                 	ADC  R@1,R@3
                 	.ENDM
                 
                 	.MACRO __SUBWRN
                 	SUBI R@0,LOW(@2)
                 	SBCI R@1,HIGH(@2)
                 	.ENDM
                 
                 	.MACRO __SUBWRR
                 	SUB  R@0,R@2
                 	SBC  R@1,R@3
                 	.ENDM
                 
                 	.MACRO __ANDWRN
                 	ANDI R@0,LOW(@2)
                 	ANDI R@1,HIGH(@2)
                 	.ENDM
                 
                 	.MACRO __ANDWRR
                 	AND  R@0,R@2
                 	AND  R@1,R@3
                 	.ENDM
                 
                 	.MACRO __ORWRN
                 	ORI  R@0,LOW(@2)
                 	ORI  R@1,HIGH(@2)
                 	.ENDM
                 
                 	.MACRO __ORWRR
                 	OR   R@0,R@2
                 	OR   R@1,R@3
                 	.ENDM
                 
                 	.MACRO __EORWRR
                 	EOR  R@0,R@2
                 	EOR  R@1,R@3
                 	.ENDM
                 
                 	.MACRO __GETWRS
                 	LDD  R@0,Y+@2
                 	LDD  R@1,Y+@2+1
                 	.ENDM
                 
                 	.MACRO __PUTBSR
                 	STD  Y+@1,R@0
                 	.ENDM
                 
                 	.MACRO __PUTWSR
                 	STD  Y+@2,R@0
                 	STD  Y+@2+1,R@1
                 	.ENDM
                 
                 	.MACRO __MOVEWRR
                 	MOV  R@0,R@2
                 	MOV  R@1,R@3
                 	.ENDM
                 
                 	.MACRO __INWR
                 	IN   R@0,@2
                 	IN   R@1,@2+1
                 	.ENDM
                 
                 	.MACRO __OUTWR
                 	OUT  @2+1,R@1
                 	OUT  @2,R@0
                 	.ENDM
                 
                 	.MACRO __CALL1MN
                 	LDS  R30,@0+(@1)
                 	LDS  R31,@0+(@1)+1
                 	ICALL
                 	.ENDM
                 
                 	.MACRO __CALL1FN
                 	LDI  R30,LOW(2*@0+(@1))
                 	LDI  R31,HIGH(2*@0+(@1))
                 	CALL __GETW1PF
                 	ICALL
                 	.ENDM
                 
                 	.MACRO __CALL2EN
                 	PUSH R26
                 	PUSH R27
                 	LDI  R26,LOW(@0+(@1))
                 	LDI  R27,HIGH(@0+(@1))
                 	CALL __EEPROMRDW
                 	POP  R27
                 	POP  R26
                 	ICALL
                 	.ENDM
                 
                 	.MACRO __CALL2EX
                 	SUBI R26,LOW(-@0)
                 	SBCI R27,HIGH(-@0)
                 	CALL __EEPROMRDD
                 	ICALL
                 	.ENDM
                 
                 	.MACRO __GETW1STACK
                 	IN   R30,SPL
                 	IN   R31,SPH
                 	ADIW R30,@0+1
                 	LD   R0,Z+
                 	LD   R31,Z
                 	MOV  R30,R0
                 	.ENDM
                 
                 	.MACRO __GETD1STACK
                 	IN   R30,SPL
                 	IN   R31,SPH
                 	ADIW R30,@0+1
                 	LD   R0,Z+
                 	LD   R1,Z+
                 	LD   R22,Z
                 	MOVW R30,R0
                 	.ENDM
                 
                 	.MACRO __NBST
                 	BST  R@0,@1
                 	IN   R30,SREG
                 	LDI  R31,0x40
                 	EOR  R30,R31
                 	OUT  SREG,R30
                 	.ENDM
                 
                 
                 	.MACRO __PUTB1SN
                 	LDD  R26,Y+@0
                 	LDD  R27,Y+@0+1
                 	SUBI R26,LOW(-@1)
                 	SBCI R27,HIGH(-@1)
                 	ST   X,R30
                 	.ENDM
                 
                 	.MACRO __PUTW1SN
                 	LDD  R26,Y+@0
                 	LDD  R27,Y+@0+1
                 	SUBI R26,LOW(-@1)
                 	SBCI R27,HIGH(-@1)
                 	ST   X+,R30
                 	ST   X,R31
                 	.ENDM
                 
                 	.MACRO __PUTD1SN
                 	LDD  R26,Y+@0
                 	LDD  R27,Y+@0+1
                 	SUBI R26,LOW(-@1)
                 	SBCI R27,HIGH(-@1)
                 	CALL __PUTDP1
                 	.ENDM
                 
                 	.MACRO __PUTB1SNS
                 	LDD  R26,Y+@0
                 	LDD  R27,Y+@0+1
                 	ADIW R26,@1
                 	ST   X,R30
                 	.ENDM
                 
                 	.MACRO __PUTW1SNS
                 	LDD  R26,Y+@0
                 	LDD  R27,Y+@0+1
                 	ADIW R26,@1
                 	ST   X+,R30
                 	ST   X,R31
                 	.ENDM
                 
                 	.MACRO __PUTD1SNS
                 	LDD  R26,Y+@0
                 	LDD  R27,Y+@0+1
                 	ADIW R26,@1
                 	CALL __PUTDP1
                 	.ENDM
                 
                 	.MACRO __PUTB1PMN
                 	LDS  R26,@0
                 	LDS  R27,@0+1
                 	SUBI R26,LOW(-@1)
                 	SBCI R27,HIGH(-@1)
                 	ST   X,R30
                 	.ENDM
                 
                 	.MACRO __PUTW1PMN
                 	LDS  R26,@0
                 	LDS  R27,@0+1
                 	SUBI R26,LOW(-@1)
                 	SBCI R27,HIGH(-@1)
                 	ST   X+,R30
                 	ST   X,R31
                 	.ENDM
                 
                 	.MACRO __PUTD1PMN
                 	LDS  R26,@0
                 	LDS  R27,@0+1
                 	SUBI R26,LOW(-@1)
                 	SBCI R27,HIGH(-@1)
                 	CALL __PUTDP1
                 	.ENDM
                 
                 	.MACRO __PUTB1PMNS
                 	LDS  R26,@0
                 	LDS  R27,@0+1
                 	ADIW R26,@1
                 	ST   X,R30
                 	.ENDM
                 
                 	.MACRO __PUTW1PMNS
                 	LDS  R26,@0
                 	LDS  R27,@0+1
                 	ADIW R26,@1
                 	ST   X+,R30
                 	ST   X,R31
                 	.ENDM
                 
                 	.MACRO __PUTD1PMNS
                 	LDS  R26,@0
                 	LDS  R27,@0+1
                 	ADIW R26,@1
                 	CALL __PUTDP1
                 	.ENDM
                 
                 	.MACRO __PUTB1RN
                 	MOVW R26,R@0
                 	SUBI R26,LOW(-@1)
                 	SBCI R27,HIGH(-@1)
                 	ST   X,R30
                 	.ENDM
                 
                 	.MACRO __PUTW1RN
                 	MOVW R26,R@0
                 	SUBI R26,LOW(-@1)
                 	SBCI R27,HIGH(-@1)
                 	ST   X+,R30
                 	ST   X,R31
                 	.ENDM
                 
                 	.MACRO __PUTD1RN
                 	MOVW R26,R@0
                 	SUBI R26,LOW(-@1)
                 	SBCI R27,HIGH(-@1)
                 	CALL __PUTDP1
                 	.ENDM
                 
                 	.MACRO __PUTB1RNS
                 	MOVW R26,R@0
                 	ADIW R26,@1
                 	ST   X,R30
                 	.ENDM
                 
                 	.MACRO __PUTW1RNS
                 	MOVW R26,R@0
                 	ADIW R26,@1
                 	ST   X+,R30
                 	ST   X,R31
                 	.ENDM
                 
                 	.MACRO __PUTD1RNS
                 	MOVW R26,R@0
                 	ADIW R26,@1
                 	CALL __PUTDP1
                 	.ENDM
                 
                 	.MACRO __PUTB1RON
                 	MOV  R26,R@0
                 	MOV  R27,R@1
                 	SUBI R26,LOW(-@2)
                 	SBCI R27,HIGH(-@2)
                 	ST   X,R30
                 	.ENDM
                 
                 	.MACRO __PUTW1RON
                 	MOV  R26,R@0
                 	MOV  R27,R@1
                 	SUBI R26,LOW(-@2)
                 	SBCI R27,HIGH(-@2)
                 	ST   X+,R30
                 	ST   X,R31
                 	.ENDM
                 
                 	.MACRO __PUTD1RON
                 	MOV  R26,R@0
                 	MOV  R27,R@1
                 	SUBI R26,LOW(-@2)
                 	SBCI R27,HIGH(-@2)
                 	CALL __PUTDP1
                 	.ENDM
                 
                 	.MACRO __PUTB1RONS
                 	MOV  R26,R@0
                 	MOV  R27,R@1
                 	ADIW R26,@2
                 	ST   X,R30
                 	.ENDM
                 
                 	.MACRO __PUTW1RONS
                 	MOV  R26,R@0
                 	MOV  R27,R@1
                 	ADIW R26,@2
                 	ST   X+,R30
                 	ST   X,R31
                 	.ENDM
                 
                 	.MACRO __PUTD1RONS
                 	MOV  R26,R@0
                 	MOV  R27,R@1
                 	ADIW R26,@2
                 	CALL __PUTDP1
                 	.ENDM
                 
                 
                 	.MACRO __GETB1SX
                 	MOVW R30,R28
                 	SUBI R30,LOW(-@0)
                 	SBCI R31,HIGH(-@0)
                 	LD   R30,Z
                 	.ENDM
                 
                 	.MACRO __GETB1HSX
                 	MOVW R30,R28
                 	SUBI R30,LOW(-@0)
                 	SBCI R31,HIGH(-@0)
                 	LD   R31,Z
                 	.ENDM
                 
                 	.MACRO __GETW1SX
                 	MOVW R30,R28
                 	SUBI R30,LOW(-@0)
                 	SBCI R31,HIGH(-@0)
                 	LD   R0,Z+
                 	LD   R31,Z
                 	MOV  R30,R0
                 	.ENDM
                 
                 	.MACRO __GETD1SX
                 	MOVW R30,R28
                 	SUBI R30,LOW(-@0)
                 	SBCI R31,HIGH(-@0)
                 	LD   R0,Z+
                 	LD   R1,Z+
                 	LD   R22,Z+
                 	LD   R23,Z
                 	MOVW R30,R0
                 	.ENDM
                 
                 	.MACRO __GETB2SX
                 	MOVW R26,R28
                 	SUBI R26,LOW(-@0)
                 	SBCI R27,HIGH(-@0)
                 	LD   R26,X
                 	.ENDM
                 
                 	.MACRO __GETW2SX
                 	MOVW R26,R28
                 	SUBI R26,LOW(-@0)
                 	SBCI R27,HIGH(-@0)
                 	LD   R0,X+
                 	LD   R27,X
                 	MOV  R26,R0
                 	.ENDM
                 
                 	.MACRO __GETD2SX
                 	MOVW R26,R28
                 	SUBI R26,LOW(-@0)
                 	SBCI R27,HIGH(-@0)
                 	LD   R0,X+
                 	LD   R1,X+
                 	LD   R24,X+
                 	LD   R25,X
                 	MOVW R26,R0
                 	.ENDM
                 
                 	.MACRO __GETBRSX
                 	MOVW R30,R28
                 	SUBI R30,LOW(-@1)
                 	SBCI R31,HIGH(-@1)
                 	LD   R@0,Z
                 	.ENDM
                 
                 	.MACRO __GETWRSX
                 	MOVW R30,R28
                 	SUBI R30,LOW(-@2)
                 	SBCI R31,HIGH(-@2)
                 	LD   R@0,Z+
                 	LD   R@1,Z
                 	.ENDM
                 
                 	.MACRO __GETBRSX2
                 	MOVW R26,R28
                 	SUBI R26,LOW(-@1)
                 	SBCI R27,HIGH(-@1)
                 	LD   R@0,X
                 	.ENDM
                 
                 	.MACRO __GETWRSX2
                 	MOVW R26,R28
                 	SUBI R26,LOW(-@2)
                 	SBCI R27,HIGH(-@2)
                 	LD   R@0,X+
                 	LD   R@1,X
                 	.ENDM
                 
                 	.MACRO __LSLW8SX
                 	MOVW R30,R28
                 	SUBI R30,LOW(-@0)
                 	SBCI R31,HIGH(-@0)
                 	LD   R31,Z
                 	CLR  R30
                 	.ENDM
                 
                 	.MACRO __PUTB1SX
                 	MOVW R26,R28
                 	SUBI R26,LOW(-@0)
                 	SBCI R27,HIGH(-@0)
                 	ST   X,R30
                 	.ENDM
                 
                 	.MACRO __PUTW1SX
                 	MOVW R26,R28
                 	SUBI R26,LOW(-@0)
                 	SBCI R27,HIGH(-@0)
                 	ST   X+,R30
                 	ST   X,R31
                 	.ENDM
                 
                 	.MACRO __PUTD1SX
                 	MOVW R26,R28
                 	SUBI R26,LOW(-@0)
                 	SBCI R27,HIGH(-@0)
                 	ST   X+,R30
                 	ST   X+,R31
                 	ST   X+,R22
                 	ST   X,R23
                 	.ENDM
                 
                 	.MACRO __CLRW1SX
                 	MOVW R26,R28
                 	SUBI R26,LOW(-@0)
                 	SBCI R27,HIGH(-@0)
                 	ST   X+,R30
                 	ST   X,R30
                 	.ENDM
                 
                 	.MACRO __CLRD1SX
                 	MOVW R26,R28
                 	SUBI R26,LOW(-@0)
                 	SBCI R27,HIGH(-@0)
                 	ST   X+,R30
                 	ST   X+,R30
                 	ST   X+,R30
                 	ST   X,R30
                 	.ENDM
                 
                 	.MACRO __PUTB2SX
                 	MOVW R30,R28
                 	SUBI R30,LOW(-@0)
                 	SBCI R31,HIGH(-@0)
                 	ST   Z,R26
                 	.ENDM
                 
                 	.MACRO __PUTW2SX
                 	MOVW R30,R28
                 	SUBI R30,LOW(-@0)
                 	SBCI R31,HIGH(-@0)
                 	ST   Z+,R26
                 	ST   Z,R27
                 	.ENDM
                 
                 	.MACRO __PUTD2SX
                 	MOVW R30,R28
                 	SUBI R30,LOW(-@0)
                 	SBCI R31,HIGH(-@0)
                 	ST   Z+,R26
                 	ST   Z+,R27
                 	ST   Z+,R24
                 	ST   Z,R25
                 	.ENDM
                 
                 	.MACRO __PUTBSRX
                 	MOVW R30,R28
                 	SUBI R30,LOW(-@1)
                 	SBCI R31,HIGH(-@1)
                 	ST   Z,R@0
                 	.ENDM
                 
                 	.MACRO __PUTWSRX
                 	MOVW R30,R28
                 	SUBI R30,LOW(-@2)
                 	SBCI R31,HIGH(-@2)
                 	ST   Z+,R@0
                 	ST   Z,R@1
                 	.ENDM
                 
                 	.MACRO __PUTB1SNX
                 	MOVW R26,R28
                 	SUBI R26,LOW(-@0)
                 	SBCI R27,HIGH(-@0)
                 	LD   R0,X+
                 	LD   R27,X
                 	MOV  R26,R0
                 	SUBI R26,LOW(-@1)
                 	SBCI R27,HIGH(-@1)
                 	ST   X,R30
                 	.ENDM
                 
                 	.MACRO __PUTW1SNX
                 	MOVW R26,R28
                 	SUBI R26,LOW(-@0)
                 	SBCI R27,HIGH(-@0)
                 	LD   R0,X+
                 	LD   R27,X
                 	MOV  R26,R0
                 	SUBI R26,LOW(-@1)
                 	SBCI R27,HIGH(-@1)
                 	ST   X+,R30
                 	ST   X,R31
                 	.ENDM
                 
                 	.MACRO __PUTD1SNX
                 	MOVW R26,R28
                 	SUBI R26,LOW(-@0)
                 	SBCI R27,HIGH(-@0)
                 	LD   R0,X+
                 	LD   R27,X
                 	MOV  R26,R0
                 	SUBI R26,LOW(-@1)
                 	SBCI R27,HIGH(-@1)
                 	ST   X+,R30
                 	ST   X+,R31
                 	ST   X+,R22
                 	ST   X,R23
                 	.ENDM
                 
                 	.MACRO __MULBRR
                 	MULS R@0,R@1
                 	MOVW R30,R0
                 	.ENDM
                 
                 	.MACRO __MULBRRU
                 	MUL  R@0,R@1
                 	MOVW R30,R0
                 	.ENDM
                 
                 	.MACRO __MULBRR0
                 	MULS R@0,R@1
                 	.ENDM
                 
                 	.MACRO __MULBRRU0
                 	MUL  R@0,R@1
                 	.ENDM
                 
                 	.MACRO __MULBNWRU
                 	LDI  R26,@2
                 	MUL  R26,R@0
                 	MOVW R30,R0
                 	MUL  R26,R@1
                 	ADD  R31,R0
                 	.ENDM
                 
                 ;NAME DEFINITIONS FOR GLOBAL VARIABLES ALLOCATED TO REGISTERS
                 	.DEF _header_index=R4
                 	.DEF _header_index_msb=R5
                 	.DEF _content_index=R6
                 	.DEF _content_index_msb=R7
                 
                 	.CSEG
                 	.ORG 0x00
                 
                 ;START OF CODE MARKER
                 __START_OF_CODE:
                 
                 ;INTERRUPT VECTORS
000000 940c 111a 	JMP  __RESET
000002 940c 0000 	JMP  0x00
000004 940c 0000 	JMP  0x00
000006 940c 0000 	JMP  0x00
000008 940c 0000 	JMP  0x00
00000a 940c 0000 	JMP  0x00
00000c 940c 0000 	JMP  0x00
00000e 940c 0000 	JMP  0x00
000010 940c 0000 	JMP  0x00
000012 940c 0000 	JMP  0x00
000014 940c 0000 	JMP  0x00
000016 940c 0000 	JMP  0x00
000018 940c 0000 	JMP  0x00
00001a 940c 0000 	JMP  0x00
00001c 940c 0000 	JMP  0x00
00001e 940c 0000 	JMP  0x00
000020 940c 119a 	JMP  _timer0_ovf_isr
000022 940c 0000 	JMP  0x00
000024 940c 1149 	JMP  _usart0_rx_isr
000026 940c 0000 	JMP  0x00
000028 940c 0000 	JMP  0x00
00002a 940c 0000 	JMP  0x00
00002c 940c 0000 	JMP  0x00
00002e 940c 0000 	JMP  0x00
000030 940c 0000 	JMP  0x00
000032 940c 0000 	JMP  0x00
000034 940c 0000 	JMP  0x00
000036 940c 0000 	JMP  0x00
000038 940c 0000 	JMP  0x00
00003a 940c 0000 	JMP  0x00
00003c 940c 0000 	JMP  0x00
00003e 940c 0000 	JMP  0x00
000040 940c 0000 	JMP  0x00
000042 940c 0000 	JMP  0x00
000044 940c 0000 	JMP  0x00
                 
                 _font5x7:
000046 0705
000047 6020
000048 0000
000049 0000      	.DB  0x5,0x7,0x20,0x60,0x0,0x0,0x0,0x0
00004a 0000
00004b 5f00
00004c 0000
00004d 0700      	.DB  0x0,0x0,0x0,0x5F,0x0,0x0,0x0,0x7
00004e 0700
00004f 1400
000050 147f
000051 147f      	.DB  0x0,0x7,0x0,0x14,0x7F,0x14,0x7F,0x14
000052 2a24
000053 2a7f
000054 2312
000055 0813      	.DB  0x24,0x2A,0x7F,0x2A,0x12,0x23,0x13,0x8
000056 6264
000057 4936
000058 2255
000059 0050      	.DB  0x64,0x62,0x36,0x49,0x55,0x22,0x50,0x0
00005a 0305
00005b 0000
00005c 1c00
00005d 4122      	.DB  0x5,0x3,0x0,0x0,0x0,0x1C,0x22,0x41
00005e 0000
00005f 2241
000060 001c
000061 2a08      	.DB  0x0,0x0,0x41,0x22,0x1C,0x0,0x8,0x2A
000062 2a1c
000063 0808
000064 3e08
000065 0808      	.DB  0x1C,0x2A,0x8,0x8,0x8,0x3E,0x8,0x8
000066 5000
000067 0030
000068 0800
000069 0808      	.DB  0x0,0x50,0x30,0x0,0x0,0x8,0x8,0x8
00006a 0808
00006b 3000
00006c 0030
00006d 2000      	.DB  0x8,0x8,0x0,0x30,0x30,0x0,0x0,0x20
00006e 0810
00006f 0204
000070 513e
000071 4549      	.DB  0x10,0x8,0x4,0x2,0x3E,0x51,0x49,0x45
000072 003e
000073 7f42
000074 0040
000075 6142      	.DB  0x3E,0x0,0x42,0x7F,0x40,0x0,0x42,0x61
000076 4951
000077 2146
000078 4541
000079 314b      	.DB  0x51,0x49,0x46,0x21,0x41,0x45,0x4B,0x31
00007a 1418
00007b 7f12
00007c 2710
00007d 4545      	.DB  0x18,0x14,0x12,0x7F,0x10,0x27,0x45,0x45
00007e 3945
00007f 4a3c
000080 4949
000081 0130      	.DB  0x45,0x39,0x3C,0x4A,0x49,0x49,0x30,0x1
000082 0971
000083 0305
000084 4936
000085 4949      	.DB  0x71,0x9,0x5,0x3,0x36,0x49,0x49,0x49
000086 0636
000087 4949
000088 1e29
000089 3600      	.DB  0x36,0x6,0x49,0x49,0x29,0x1E,0x0,0x36
00008a 0036
00008b 0000
00008c 3656
00008d 0000      	.DB  0x36,0x0,0x0,0x0,0x56,0x36,0x0,0x0
00008e 0800
00008f 2214
000090 1441
000091 1414      	.DB  0x0,0x8,0x14,0x22,0x41,0x14,0x14,0x14
000092 1414
000093 2241
000094 0814
000095 0200      	.DB  0x14,0x14,0x41,0x22,0x14,0x8,0x0,0x2
000096 5101
000097 0609
000098 4932
000099 4179      	.DB  0x1,0x51,0x9,0x6,0x32,0x49,0x79,0x41
00009a 7e3e
00009b 1111
00009c 7e11
00009d 497f      	.DB  0x3E,0x7E,0x11,0x11,0x11,0x7E,0x7F,0x49
00009e 4949
00009f 3e36
0000a0 4141
0000a1 2241      	.DB  0x49,0x49,0x36,0x3E,0x41,0x41,0x41,0x22
0000a2 417f
0000a3 2241
0000a4 7f1c
0000a5 4949      	.DB  0x7F,0x41,0x41,0x22,0x1C,0x7F,0x49,0x49
0000a6 4149
0000a7 097f
0000a8 0109
0000a9 3e01      	.DB  0x49,0x41,0x7F,0x9,0x9,0x1,0x1,0x3E
0000aa 4141
0000ab 3251
0000ac 087f
0000ad 0808      	.DB  0x41,0x41,0x51,0x32,0x7F,0x8,0x8,0x8
0000ae 007f
0000af 7f41
0000b0 0041
0000b1 4020      	.DB  0x7F,0x0,0x41,0x7F,0x41,0x0,0x20,0x40
0000b2 3f41
0000b3 7f01
0000b4 1408
0000b5 4122      	.DB  0x41,0x3F,0x1,0x7F,0x8,0x14,0x22,0x41
0000b6 407f
0000b7 4040
0000b8 7f40
0000b9 0402      	.DB  0x7F,0x40,0x40,0x40,0x40,0x7F,0x2,0x4
0000ba 7f02
0000bb 047f
0000bc 1008
0000bd 3e7f      	.DB  0x2,0x7F,0x7F,0x4,0x8,0x10,0x7F,0x3E
0000be 4141
0000bf 3e41
0000c0 097f
0000c1 0909      	.DB  0x41,0x41,0x41,0x3E,0x7F,0x9,0x9,0x9
0000c2 3e06
0000c3 5141
0000c4 5e21
0000c5 097f      	.DB  0x6,0x3E,0x41,0x51,0x21,0x5E,0x7F,0x9
0000c6 2919
0000c7 4646
0000c8 4949
0000c9 3149      	.DB  0x19,0x29,0x46,0x46,0x49,0x49,0x49,0x31
0000ca 0101
0000cb 017f
0000cc 3f01
0000cd 4040      	.DB  0x1,0x1,0x7F,0x1,0x1,0x3F,0x40,0x40
0000ce 3f40
0000cf 201f
0000d0 2040
0000d1 7f1f      	.DB  0x40,0x3F,0x1F,0x20,0x40,0x20,0x1F,0x7F
0000d2 1820
0000d3 7f20
0000d4 1463
0000d5 1408      	.DB  0x20,0x18,0x20,0x7F,0x63,0x14,0x8,0x14
0000d6 0363
0000d7 7804
0000d8 0304
0000d9 5161      	.DB  0x63,0x3,0x4,0x78,0x4,0x3,0x61,0x51
0000da 4549
0000db 0043
0000dc 7f00
0000dd 4141      	.DB  0x49,0x45,0x43,0x0,0x0,0x7F,0x41,0x41
0000de 0402
0000df 1008
0000e0 4120
0000e1 7f41      	.DB  0x2,0x4,0x8,0x10,0x20,0x41,0x41,0x7F
0000e2 0000
0000e3 0204
0000e4 0201
0000e5 4004      	.DB  0x0,0x0,0x4,0x2,0x1,0x2,0x4,0x40
0000e6 4040
0000e7 4040
0000e8 0100
0000e9 0402      	.DB  0x40,0x40,0x40,0x40,0x0,0x1,0x2,0x4
0000ea 2000
0000eb 5454
0000ec 7854
0000ed 487f      	.DB  0x0,0x20,0x54,0x54,0x54,0x78,0x7F,0x48
0000ee 4444
0000ef 3838
0000f0 4444
0000f1 2044      	.DB  0x44,0x44,0x38,0x38,0x44,0x44,0x44,0x20
0000f2 4438
0000f3 4844
0000f4 387f
0000f5 5454      	.DB  0x38,0x44,0x44,0x48,0x7F,0x38,0x54,0x54
0000f6 1854
0000f7 7e08
0000f8 0109
0000f9 0802      	.DB  0x54,0x18,0x8,0x7E,0x9,0x1,0x2,0x8
0000fa 5414
0000fb 3c54
0000fc 087f
0000fd 0404      	.DB  0x14,0x54,0x54,0x3C,0x7F,0x8,0x4,0x4
0000fe 0078
0000ff 7d44
000100 0040
000101 4020      	.DB  0x78,0x0,0x44,0x7D,0x40,0x0,0x20,0x40
000102 3d44
000103 0000
000104 107f
000105 4428      	.DB  0x44,0x3D,0x0,0x0,0x7F,0x10,0x28,0x44
000106 4100
000107 407f
000108 7c00
000109 1804      	.DB  0x0,0x41,0x7F,0x40,0x0,0x7C,0x4,0x18
00010a 7804
00010b 087c
00010c 0404
00010d 3878      	.DB  0x4,0x78,0x7C,0x8,0x4,0x4,0x78,0x38
00010e 4444
00010f 3844
000110 147c
000111 1414      	.DB  0x44,0x44,0x44,0x38,0x7C,0x14,0x14,0x14
000112 0808
000113 1414
000114 7c18
000115 087c      	.DB  0x8,0x8,0x14,0x14,0x18,0x7C,0x7C,0x8
000116 0404
000117 4808
000118 5454
000119 2054      	.DB  0x4,0x4,0x8,0x48,0x54,0x54,0x54,0x20
00011a 3f04
00011b 4044
00011c 3c20
00011d 4040      	.DB  0x4,0x3F,0x44,0x40,0x20,0x3C,0x40,0x40
00011e 7c20
00011f 201c
000120 2040
000121 3c1c      	.DB  0x20,0x7C,0x1C,0x20,0x40,0x20,0x1C,0x3C
000122 3040
000123 3c40
000124 2844
000125 2810      	.DB  0x40,0x30,0x40,0x3C,0x44,0x28,0x10,0x28
000126 0c44
000127 5050
000128 3c50
000129 6444      	.DB  0x44,0xC,0x50,0x50,0x50,0x3C,0x44,0x64
00012a 4c54
00012b 0044
00012c 3608
00012d 0041      	.DB  0x54,0x4C,0x44,0x0,0x8,0x36,0x41,0x0
00012e 0000
00012f 007f
000130 0000
000131 3641      	.DB  0x0,0x0,0x7F,0x0,0x0,0x0,0x41,0x36
000132 0008
000133 0102
000134 0402
000135 7f02      	.DB  0x8,0x0,0x2,0x1,0x2,0x4,0x2,0x7F
000136 4141
000137 7f41      	.DB  0x41,0x41,0x41,0x7F
                 _shomare_soton_ra_payamak:
000138 0000
000139 0000
00013a 0000
00013b 0000      	.DB  0x0,0x0,0x0,0x0,0x0,0x0,0x0,0x0
00013c 0000
00013d 0000
00013e 0000
00013f 0000      	.DB  0x0,0x0,0x0,0x0,0x0,0x0,0x0,0x0
000140 0000
000141 0000
000142 0000
000143 8080      	.DB  0x0,0x0,0x0,0x0,0x0,0x0,0x80,0x80
000144 0000
000145 0000
000146 0000
000147 0000      	.DB  0x0,0x0,0x0,0x0,0x0,0x0,0x0,0x0
000148 0000
000149 0000
00014a 0000
00014b 0000      	.DB  0x0,0x0,0x0,0x0,0x0,0x0,0x0,0x0
00014c 8080
00014d 0000
00014e 0000
00014f 0000      	.DB  0x80,0x80,0x0,0x0,0x0,0x0,0x0,0x0
000150 0000
000151 0000
000152 0000
000153 0000      	.DB  0x0,0x0,0x0,0x0,0x0,0x0,0x0,0x0
000154 0000
000155 0000
000156 0000
000157 0000      	.DB  0x0,0x0,0x0,0x0,0x0,0x0,0x0,0x0
000158 0000
000159 0000
00015a 0000
00015b 0000      	.DB  0x0,0x0,0x0,0x0,0x0,0x0,0x0,0x0
00015c 0000
00015d 0000
00015e 0000
00015f 0000      	.DB  0x0,0x0,0x0,0x0,0x0,0x0,0x0,0x0
000160 0000
000161 0000
000162 0000
000163 0000      	.DB  0x0,0x0,0x0,0x0,0x0,0x0,0x0,0x0
000164 0000
000165 0000
000166 0000
000167 0000      	.DB  0x0,0x0,0x0,0x0,0x0,0x0,0x0,0x0
000168 0000
000169 0000
00016a 0000
00016b 8000      	.DB  0x0,0x0,0x0,0x0,0x0,0x0,0x0,0x80
00016c 0080
00016d 0000
00016e 0000
00016f 0000      	.DB  0x80,0x0,0x0,0x0,0x0,0x0,0x0,0x0
000170 0000
000171 0000
000172 0000
000173 0000      	.DB  0x0,0x0,0x0,0x0,0x0,0x0,0x0,0x0
000174 0000
000175 0000
000176 0000
000177 0000      	.DB  0x0,0x0,0x0,0x0,0x0,0x0,0x0,0x0
000178 0000
000179 e0e0
00017a 0000
00017b 0e06      	.DB  0x0,0x0,0xE0,0xE0,0x0,0x0,0x6,0xE
00017c ba1a
00017d c1e3
00017e 0000
00017f c080      	.DB  0x1A,0xBA,0xE3,0xC1,0x0,0x0,0x80,0xC0
000180 b0e0
000181 f0f0
000182 0000
000183 ffff      	.DB  0xE0,0xB0,0xF0,0xF0,0x0,0x0,0xFF,0xFF
000184 0000
000185 0000
000186 e0e0
000187 0000      	.DB  0x0,0x0,0x0,0x0,0xE0,0xE0,0x0,0x0
000188 f000
000189 00f0
00018a 0000
00018b 0000      	.DB  0x0,0xF0,0xF0,0x0,0x0,0x0,0x0,0x0
00018c ffff
00018d 0000
00018e e020
00018f 00e0      	.DB  0xFF,0xFF,0x0,0x0,0x20,0xE0,0xE0,0x0
000190 0000
000191 0000
000192 c0c0
000193 1808      	.DB  0x0,0x0,0x0,0x0,0xC0,0xC0,0x8,0x18
000194 0018
000195 f0f0
000196 0000
000197 f0e0      	.DB  0x18,0x0,0xF0,0xF0,0x0,0x0,0xE0,0xF0
000198 6030
000199 80e0
00019a 0800
00019b ec0c      	.DB  0x30,0x60,0xE0,0x80,0x0,0x8,0xC,0xEC
00019c 8cec
00019d 0000
00019e e000
00019f 00e0      	.DB  0xEC,0x8C,0x0,0x0,0x0,0xE0,0xE0,0x0
0001a0 e080
0001a1 10e0
0001a2 f0f0
0001a3 0000      	.DB  0x80,0xE0,0xE0,0x10,0xF0,0xF0,0x0,0x0
0001a4 0000
0001a5 e000
0001a6 18f8
0001a7 e0f0      	.DB  0x0,0x0,0x0,0xE0,0xF8,0x18,0xF0,0xE0
0001a8 0000
0001a9 e020
0001aa 00e0
0001ab ff00      	.DB  0x0,0x0,0x20,0xE0,0xE0,0x0,0x0,0xFF
0001ac 00ff
0001ad 8000
0001ae e0c0
0001af 70b0      	.DB  0xFF,0x0,0x0,0x80,0xC0,0xE0,0xB0,0x70
0001b0 80f0
0001b1 0000
0001b2 e000
0001b3 0ce0      	.DB  0xF0,0x80,0x0,0x0,0x0,0xE0,0xE0,0xC
0001b4 ee8e
0001b5 18ec
0001b6 f0f0
0001b7 0000      	.DB  0x8E,0xEE,0xEC,0x18,0xF0,0xF0,0x0,0x0
0001b8 0000
0001b9 0100
0001ba 0101
0001bb 0101      	.DB  0x0,0x0,0x0,0x1,0x1,0x1,0x1,0x1
0001bc 0101
0001bd 0101
0001be 0101
0001bf 0001      	.DB  0x1,0x1,0x1,0x1,0x1,0x1,0x1,0x0
0001c0 0101
0001c1 0101
0001c2 0000
0001c3 0100      	.DB  0x1,0x1,0x1,0x1,0x0,0x0,0x0,0x1
0001c4 0901
0001c5 0d0d
0001c6 0d0d
0001c7 2d0d      	.DB  0x1,0x9,0xD,0xD,0xD,0xD,0xD,0x2D
0001c8 3d3d
0001c9 0009
0001ca 0000
0001cb 0000      	.DB  0x3D,0x3D,0x9,0x0,0x0,0x0,0x0,0x0
0001cc 0101
0001cd 0808
0001ce 0f0c
0001cf 0007      	.DB  0x1,0x1,0x8,0x8,0xC,0xF,0x7,0x0
0001d0 0000
0001d1 0000
0001d2 0f07
0001d3 080c      	.DB  0x0,0x0,0x0,0x0,0x7,0xF,0xC,0x8
0001d4 0c0c
0001d5 0707
0001d6 0000
0001d7 0909      	.DB  0xC,0xC,0x7,0x7,0x0,0x0,0x9,0x9
0001d8 0f09
0001d9 0107
0001da 0101
0001db 0101      	.DB  0x9,0xF,0x7,0x1,0x1,0x1,0x1,0x1
0001dc 0101
0001dd 0101
0001de 0101
0001df 0101      	.DB  0x1,0x1,0x1,0x1,0x1,0x1,0x1,0x1
0001e0 0101
0001e1 0101
0001e2 0001
0001e3 0000      	.DB  0x1,0x1,0x1,0x1,0x1,0x0,0x0,0x0
0001e4 0000
0001e5 0100
0001e6 0101
0001e7 0101      	.DB  0x0,0x0,0x0,0x1,0x1,0x1,0x1,0x1
0001e8 0808
0001e9 0f0c
0001ea 0007
0001eb 0000      	.DB  0x8,0x8,0xC,0xF,0x7,0x0,0x0,0x0
0001ec 0101
0001ed 0101
0001ee 0100
0001ef 0101      	.DB  0x1,0x1,0x1,0x1,0x0,0x1,0x1,0x1
0001f0 0101
0001f1 0101
0001f2 0101
0001f3 0101      	.DB  0x1,0x1,0x1,0x1,0x1,0x1,0x1,0x1
0001f4 0101
0001f5 0101
0001f6 0001
0001f7 0000      	.DB  0x1,0x1,0x1,0x1,0x1,0x0,0x0,0x0
0001f8 0000
0001f9 0000
0001fa 0000
0001fb 0000      	.DB  0x0,0x0,0x0,0x0,0x0,0x0,0x0,0x0
0001fc 0000
0001fd 0000
0001fe 0000
0001ff 0000      	.DB  0x0,0x0,0x0,0x0,0x0,0x0,0x0,0x0
000200 0000
000201 0000
000202 0000
000203 0000      	.DB  0x0,0x0,0x0,0x0,0x0,0x0,0x0,0x0
000204 0000
000205 0000
000206 0000
000207 0000      	.DB  0x0,0x0,0x0,0x0,0x0,0x0,0x0,0x0
000208 0000
000209 0000
00020a 0000
00020b 0000      	.DB  0x0,0x0,0x0,0x0,0x0,0x0,0x0,0x0
00020c 0000
00020d 0000
00020e 0000
00020f 0000      	.DB  0x0,0x0,0x0,0x0,0x0,0x0,0x0,0x0
000210 0000
000211 0000
000212 0000
000213 0000      	.DB  0x0,0x0,0x0,0x0,0x0,0x0,0x0,0x0
000214 0000
000215 0000
000216 0000
000217 0000      	.DB  0x0,0x0,0x0,0x0,0x0,0x0,0x0,0x0
000218 0000
000219 0000
00021a 0000
00021b 0000      	.DB  0x0,0x0,0x0,0x0,0x0,0x0,0x0,0x0
00021c 0000
00021d 0000
00021e 0000
00021f 0000      	.DB  0x0,0x0,0x0,0x0,0x0,0x0,0x0,0x0
000220 0000
000221 0000
000222 0000
000223 0000      	.DB  0x0,0x0,0x0,0x0,0x0,0x0,0x0,0x0
000224 0000
000225 0000
000226 0000
000227 0000      	.DB  0x0,0x0,0x0,0x0,0x0,0x0,0x0,0x0
000228 0000
000229 0000
00022a 0000
00022b 0000      	.DB  0x0,0x0,0x0,0x0,0x0,0x0,0x0,0x0
00022c 0000
00022d 0000
00022e 0000
00022f 0000      	.DB  0x0,0x0,0x0,0x0,0x0,0x0,0x0,0x0
000230 0000
000231 0000
000232 0000
000233 0000      	.DB  0x0,0x0,0x0,0x0,0x0,0x0,0x0,0x0
000234 0000
000235 0000
000236 0000
000237 0000      	.DB  0x0,0x0,0x0,0x0,0x0,0x0,0x0,0x0
000238 0000
000239 0000
00023a 0000
00023b 0000      	.DB  0x0,0x0,0x0,0x0,0x0,0x0,0x0,0x0
00023c 0000
00023d 0000
00023e 0000
00023f 0000      	.DB  0x0,0x0,0x0,0x0,0x0,0x0,0x0,0x0
000240 0000
000241 0000
000242 0000
000243 0000      	.DB  0x0,0x0,0x0,0x0,0x0,0x0,0x0,0x0
000244 0000
000245 0000
000246 0000
000247 0000      	.DB  0x0,0x0,0x0,0x0,0x0,0x0,0x0,0x0
000248 0000
000249 0000
00024a 0000
00024b 0000      	.DB  0x0,0x0,0x0,0x0,0x0,0x0,0x0,0x0
00024c 0000
00024d 0000
00024e 8080
00024f 0000      	.DB  0x0,0x0,0x0,0x0,0x80,0x80,0x0,0x0
000250 c0c0
000251 1800
000252 e0f8
000253 0000      	.DB  0xC0,0xC0,0x0,0x18,0xF8,0xE0,0x0,0x0
000254 e000
000255 80e0
000256 0000
000257 ec08      	.DB  0x0,0xE0,0xE0,0x80,0x0,0x0,0x8,0xEC
000258 80ec
000259 0000
00025a 0e06
00025b f33a      	.DB  0xEC,0x80,0x0,0x0,0x6,0xE,0x3A,0xF3
00025c 01e1
00025d 0000
00025e 0000
00025f 0000      	.DB  0xE1,0x1,0x0,0x0,0x0,0x0,0x0,0x0
000260 0000
000261 0000
000262 0000
000263 0000      	.DB  0x0,0x0,0x0,0x0,0x0,0x0,0x0,0x0
000264 0000
000265 0000
000266 0000
000267 0000      	.DB  0x0,0x0,0x0,0x0,0x0,0x0,0x0,0x0
000268 0000
000269 0000
00026a 0000
00026b 0000      	.DB  0x0,0x0,0x0,0x0,0x0,0x0,0x0,0x0
00026c 0000
00026d 0000
00026e 0000
00026f 0000      	.DB  0x0,0x0,0x0,0x0,0x0,0x0,0x0,0x0
000270 0000
000271 0000
000272 0000
000273 0000      	.DB  0x0,0x0,0x0,0x0,0x0,0x0,0x0,0x0
000274 0000
000275 0000
000276 0000
000277 0000      	.DB  0x0,0x0,0x0,0x0,0x0,0x0,0x0,0x0
000278 0000
000279 0000
00027a 0000
00027b 0000      	.DB  0x0,0x0,0x0,0x0,0x0,0x0,0x0,0x0
00027c 0000
00027d 0000
00027e 0000
00027f 0000      	.DB  0x0,0x0,0x0,0x0,0x0,0x0,0x0,0x0
000280 0000
000281 0000
000282 0000
000283 0000      	.DB  0x0,0x0,0x0,0x0,0x0,0x0,0x0,0x0
000284 0000
000285 0000
000286 0000
000287 0000      	.DB  0x0,0x0,0x0,0x0,0x0,0x0,0x0,0x0
000288 0000
000289 0000
00028a 0000
00028b 0000      	.DB  0x0,0x0,0x0,0x0,0x0,0x0,0x0,0x0
00028c 0000
00028d 0000
00028e 0101
00028f 0000      	.DB  0x0,0x0,0x0,0x0,0x1,0x1,0x0,0x0
000290 0101
000291 0101
000292 0101
000293 0501      	.DB  0x1,0x1,0x1,0x1,0x1,0x1,0x1,0x5
000294 0d0d
000295 090d
000296 0101
000297 0101      	.DB  0xD,0xD,0xD,0x9,0x1,0x1,0x1,0x1
000298 0101
000299 0101
00029a 0101
00029b 0101      	.DB  0x1,0x1,0x1,0x1,0x1,0x1,0x1,0x1
00029c 0000
00029d 0000
00029e 0000
00029f 0000      	.DB  0x0,0x0,0x0,0x0,0x0,0x0,0x0,0x0
0002a0 0000
0002a1 0000
0002a2 0000
0002a3 0000      	.DB  0x0,0x0,0x0,0x0,0x0,0x0,0x0,0x0
0002a4 0000
0002a5 0000
0002a6 0000
0002a7 0000      	.DB  0x0,0x0,0x0,0x0,0x0,0x0,0x0,0x0
0002a8 0000
0002a9 0000
0002aa 0000
0002ab 0000      	.DB  0x0,0x0,0x0,0x0,0x0,0x0,0x0,0x0
0002ac 0000
0002ad 0000
0002ae 0000
0002af 0000      	.DB  0x0,0x0,0x0,0x0,0x0,0x0,0x0,0x0
0002b0 0000
0002b1 0000
0002b2 0000
0002b3 0000      	.DB  0x0,0x0,0x0,0x0,0x0,0x0,0x0,0x0
0002b4 0000
0002b5 0000
0002b6 0000
0002b7 0000      	.DB  0x0,0x0,0x0,0x0,0x0,0x0,0x0,0x0
0002b8 0000
0002b9 0000
0002ba 0000
0002bb 0000      	.DB  0x0,0x0,0x0,0x0,0x0,0x0,0x0,0x0
0002bc 0000
0002bd 0000
0002be 0000
0002bf 0000      	.DB  0x0,0x0,0x0,0x0,0x0,0x0,0x0,0x0
0002c0 0000
0002c1 0000
0002c2 0000
0002c3 0000      	.DB  0x0,0x0,0x0,0x0,0x0,0x0,0x0,0x0
0002c4 0000
0002c5 0000
0002c6 0000
0002c7 0000      	.DB  0x0,0x0,0x0,0x0,0x0,0x0,0x0,0x0
0002c8 0000
0002c9 0000
0002ca 0000
0002cb 0000      	.DB  0x0,0x0,0x0,0x0,0x0,0x0,0x0,0x0
0002cc 0000
0002cd 0000
0002ce 0000
0002cf 0000      	.DB  0x0,0x0,0x0,0x0,0x0,0x0,0x0,0x0
0002d0 0000
0002d1 0000
0002d2 0000
0002d3 0000      	.DB  0x0,0x0,0x0,0x0,0x0,0x0,0x0,0x0
0002d4 0000
0002d5 0000
0002d6 0000
0002d7 0000      	.DB  0x0,0x0,0x0,0x0,0x0,0x0,0x0,0x0
0002d8 0000
0002d9 0000
0002da 0000
0002db 0000      	.DB  0x0,0x0,0x0,0x0,0x0,0x0,0x0,0x0
0002dc 0000
0002dd 0000
0002de 0000
0002df 0000      	.DB  0x0,0x0,0x0,0x0,0x0,0x0,0x0,0x0
0002e0 0000
0002e1 0000
0002e2 0000
0002e3 0000      	.DB  0x0,0x0,0x0,0x0,0x0,0x0,0x0,0x0
0002e4 0000
0002e5 0000
0002e6 0000
0002e7 0000      	.DB  0x0,0x0,0x0,0x0,0x0,0x0,0x0,0x0
0002e8 0000
0002e9 0000
0002ea 0000
0002eb 0000      	.DB  0x0,0x0,0x0,0x0,0x0,0x0,0x0,0x0
0002ec 0000
0002ed 0000
0002ee 0000
0002ef 0000      	.DB  0x0,0x0,0x0,0x0,0x0,0x0,0x0,0x0
0002f0 0000
0002f1 0000
0002f2 0000
0002f3 0000      	.DB  0x0,0x0,0x0,0x0,0x0,0x0,0x0,0x0
0002f4 0000
0002f5 0000
0002f6 0000
0002f7 0000      	.DB  0x0,0x0,0x0,0x0,0x0,0x0,0x0,0x0
0002f8 0000
0002f9 0000
0002fa 0000
0002fb 0000      	.DB  0x0,0x0,0x0,0x0,0x0,0x0,0x0,0x0
0002fc 0000
0002fd 0000
0002fe 0000
0002ff 0000      	.DB  0x0,0x0,0x0,0x0,0x0,0x0,0x0,0x0
000300 0000
000301 0000
000302 0000
000303 0000      	.DB  0x0,0x0,0x0,0x0,0x0,0x0,0x0,0x0
000304 0000
000305 0000
000306 0000
000307 0000      	.DB  0x0,0x0,0x0,0x0,0x0,0x0,0x0,0x0
000308 0000
000309 0000
00030a 0000
00030b 0000      	.DB  0x0,0x0,0x0,0x0,0x0,0x0,0x0,0x0
00030c 0000
00030d 0000
00030e 0000
00030f 0000      	.DB  0x0,0x0,0x0,0x0,0x0,0x0,0x0,0x0
000310 0000
000311 0000
000312 0000
000313 0000      	.DB  0x0,0x0,0x0,0x0,0x0,0x0,0x0,0x0
000314 0000
000315 0000
000316 0000
000317 0000      	.DB  0x0,0x0,0x0,0x0,0x0,0x0,0x0,0x0
000318 0000
000319 0000
00031a 0000
00031b 0000      	.DB  0x0,0x0,0x0,0x0,0x0,0x0,0x0,0x0
00031c 0000
00031d 0000
00031e 0000
00031f 0000      	.DB  0x0,0x0,0x0,0x0,0x0,0x0,0x0,0x0
000320 0000
000321 0000
000322 0000
000323 0000      	.DB  0x0,0x0,0x0,0x0,0x0,0x0,0x0,0x0
000324 0000
000325 0000
000326 0000
000327 0000      	.DB  0x0,0x0,0x0,0x0,0x0,0x0,0x0,0x0
000328 0000
000329 0000
00032a 0000
00032b 0000      	.DB  0x0,0x0,0x0,0x0,0x0,0x0,0x0,0x0
00032c 0000
00032d 0000
00032e 0000
00032f 0000      	.DB  0x0,0x0,0x0,0x0,0x0,0x0,0x0,0x0
000330 0000
000331 0000
000332 0000
000333 0000      	.DB  0x0,0x0,0x0,0x0,0x0,0x0,0x0,0x0
000334 0000
000335 0000
000336 0000
000337 0000      	.DB  0x0,0x0,0x0,0x0,0x0,0x0,0x0,0x0
                 _adad_ra_vared_namaeid:
000338 0000
000339 0000
00033a 0000
00033b 0000      	.DB  0x0,0x0,0x0,0x0,0x0,0x0,0x0,0x0
00033c 0000
00033d 0000
00033e 0000
00033f 0000      	.DB  0x0,0x0,0x0,0x0,0x0,0x0,0x0,0x0
000340 0000
000341 0000
000342 0000
000343 0000      	.DB  0x0,0x0,0x0,0x0,0x0,0x0,0x0,0x0
000344 0000
000345 0000
000346 0000
000347 0000      	.DB  0x0,0x0,0x0,0x0,0x0,0x0,0x0,0x0
000348 0000
000349 0000
00034a 0000
00034b 0000      	.DB  0x0,0x0,0x0,0x0,0x0,0x0,0x0,0x0
00034c 0000
00034d 0000
00034e 0000
00034f 0000      	.DB  0x0,0x0,0x0,0x0,0x0,0x0,0x0,0x0
000350 0000
000351 0000
000352 0000
000353 0000      	.DB  0x0,0x0,0x0,0x0,0x0,0x0,0x0,0x0
000354 0000
000355 0000
000356 0000
000357 0000      	.DB  0x0,0x0,0x0,0x0,0x0,0x0,0x0,0x0
000358 0000
000359 0000
00035a 0000
00035b 0000      	.DB  0x0,0x0,0x0,0x0,0x0,0x0,0x0,0x0
00035c 0000
00035d 0000
00035e 0000
00035f 0000      	.DB  0x0,0x0,0x0,0x0,0x0,0x0,0x0,0x0
000360 0000
000361 0000
000362 0000
000363 0000      	.DB  0x0,0x0,0x0,0x0,0x0,0x0,0x0,0x0
000364 0000
000365 0000
000366 0000
000367 0000      	.DB  0x0,0x0,0x0,0x0,0x0,0x0,0x0,0x0
000368 0000
000369 0000
00036a 0000
00036b 0000      	.DB  0x0,0x0,0x0,0x0,0x0,0x0,0x0,0x0
00036c 0000
00036d 0000
00036e 0000
00036f 0000      	.DB  0x0,0x0,0x0,0x0,0x0,0x0,0x0,0x0
000370 0000
000371 0000
000372 0000
000373 0000      	.DB  0x0,0x0,0x0,0x0,0x0,0x0,0x0,0x0
000374 0000
000375 0000
000376 0000
000377 0000      	.DB  0x0,0x0,0x0,0x0,0x0,0x0,0x0,0x0
000378 0000
000379 0000
00037a 0000
00037b 0000      	.DB  0x0,0x0,0x0,0x0,0x0,0x0,0x0,0x0
00037c 0000
00037d 0000
00037e 0000
00037f 0000      	.DB  0x0,0x0,0x0,0x0,0x0,0x0,0x0,0x0
000380 0000
000381 c0c0
000382 0000
000383 0000      	.DB  0x0,0x0,0xC0,0xC0,0x0,0x0,0x0,0x0
000384 0000
000385 0000
000386 0000
000387 8080      	.DB  0x0,0x0,0x0,0x0,0x0,0x0,0x80,0x80
000388 0000
000389 fcfc
00038a 0000
00038b 0000      	.DB  0x0,0x0,0xFC,0xFC,0x0,0x0,0x0,0x0
00038c 8000
00038d 8080
00038e 0000
00038f 1000      	.DB  0x0,0x80,0x80,0x80,0x0,0x0,0x0,0x10
000390 a0b0
000391 0000
000392 0000
000393 0000      	.DB  0xB0,0xA0,0x0,0x0,0x0,0x0,0x0,0x0
000394 4040
000395 c0c0
000396 0000
000397 0000      	.DB  0x40,0x40,0xC0,0xC0,0x0,0x0,0x0,0x0
000398 0000
000399 0000
00039a fcfc
00039b 0000      	.DB  0x0,0x0,0x0,0x0,0xFC,0xFC,0x0,0x0
00039c 8000
00039d 0080
00039e 0000
00039f 0000      	.DB  0x0,0x80,0x80,0x0,0x0,0x0,0x0,0x0
0003a0 0000
0003a1 fcfc
0003a2 0000
0003a3 0000      	.DB  0x0,0x0,0xFC,0xFC,0x0,0x0,0x0,0x0
0003a4 0000
0003a5 0000
0003a6 0000
0003a7 4000      	.DB  0x0,0x0,0x0,0x0,0x0,0x0,0x0,0x40
0003a8 c040
0003a9 00c0
0003aa 0000
0003ab 0000      	.DB  0x40,0xC0,0xC0,0x0,0x0,0x0,0x0,0x0
0003ac c000
0003ad 00c0
0003ae 0000
0003af c080      	.DB  0x0,0xC0,0xC0,0x0,0x0,0x0,0x80,0xC0
0003b0 c0c0
0003b1 00c0
0003b2 0000
0003b3 0000      	.DB  0xC0,0xC0,0xC0,0x0,0x0,0x0,0x0,0x0
0003b4 0000
0003b5 0000
0003b6 0000
0003b7 0000      	.DB  0x0,0x0,0x0,0x0,0x0,0x0,0x0,0x0
0003b8 0000
0003b9 0000
0003ba 0000
0003bb 0000      	.DB  0x0,0x0,0x0,0x0,0x0,0x0,0x0,0x0
0003bc 0000
0003bd 0c00
0003be 000c
0003bf 0e00      	.DB  0x0,0x0,0x0,0xC,0xC,0x0,0x0,0xE
0003c0 080e
0003c1 0f08
0003c2 080f
0003c3 6848      	.DB  0xE,0x8,0x8,0xF,0xF,0x8,0x48,0x68
0003c4 6f68
0003c5 686f
0003c6 6868
0003c7 4f6f      	.DB  0x68,0x6F,0x6F,0x68,0x68,0x68,0x6F,0x4F
0003c8 0000
0003c9 0f07
0003ca 0808
0003cb 060c      	.DB  0x0,0x0,0x7,0xF,0x8,0x8,0xC,0x6
0003cc 0d0f
0003cd 0f0b
0003ce 080c
0003cf 0808      	.DB  0xF,0xD,0xB,0xF,0xC,0x8,0x8,0x8
0003d0 0f0f
0003d1 0000
0003d2 0000
0003d3 0e00      	.DB  0xF,0xF,0x0,0x0,0x0,0x0,0x0,0xE
0003d4 080e
0003d5 0f08
0003d6 4007
0003d7 6140      	.DB  0xE,0x8,0x8,0xF,0x7,0x40,0x40,0x61
0003d8 3f7f
0003d9 0000
0003da 0f0f
0003db 0000      	.DB  0x7F,0x3F,0x0,0x0,0xF,0xF,0x0,0x0
0003dc 4f4f
0003dd 7f69
0003de 003f
0003df 0000      	.DB  0x4F,0x4F,0x69,0x7F,0x3F,0x0,0x0,0x0
0003e0 0000
0003e1 0f0f
0003e2 4040
0003e3 7f61      	.DB  0x0,0x0,0xF,0xF,0x40,0x40,0x61,0x7F
0003e4 003f
0003e5 0000
0003e6 0000
0003e7 0e0e      	.DB  0x3F,0x0,0x0,0x0,0x0,0x0,0xE,0xE
0003e8 0808
0003e9 070f
0003ea 0000
0003eb 0e0e      	.DB  0x8,0x8,0xF,0x7,0x0,0x0,0xE,0xE
0003ec 0808
0003ed 0f0f
0003ee 0808
0003ef 0f0b      	.DB  0x8,0x8,0xF,0xF,0x8,0x8,0xB,0xF
0003f0 0c0c
0003f1 0404
0003f2 0000
0003f3 0000      	.DB  0xC,0xC,0x4,0x4,0x0,0x0,0x0,0x0
0003f4 0000
0003f5 0000
0003f6 0000
0003f7 0000      	.DB  0x0,0x0,0x0,0x0,0x0,0x0,0x0,0x0
0003f8 0000
0003f9 0000
0003fa 0000
0003fb 0000      	.DB  0x0,0x0,0x0,0x0,0x0,0x0,0x0,0x0
0003fc 8080
0003fd 0000
0003fe 0000
0003ff 0000      	.DB  0x80,0x80,0x0,0x0,0x0,0x0,0x0,0x0
000400 0000
000401 0000
000402 0000
000403 0000      	.DB  0x0,0x0,0x0,0x0,0x0,0x0,0x0,0x0
000404 0000
000405 0000
000406 0000
000407 0000      	.DB  0x0,0x0,0x0,0x0,0x0,0x0,0x0,0x0
000408 0000
000409 0000
00040a 0000
00040b 0000      	.DB  0x0,0x0,0x0,0x0,0x0,0x0,0x0,0x0
00040c 0000
00040d 0000
00040e 0000
00040f 0000      	.DB  0x0,0x0,0x0,0x0,0x0,0x0,0x0,0x0
000410 0000
000411 0000
000412 0000
000413 0000      	.DB  0x0,0x0,0x0,0x0,0x0,0x0,0x0,0x0
000414 0000
000415 0000
000416 0000
000417 0000      	.DB  0x0,0x0,0x0,0x0,0x0,0x0,0x0,0x0
000418 0000
000419 0000
00041a 0000
00041b 0000      	.DB  0x0,0x0,0x0,0x0,0x0,0x0,0x0,0x0
00041c 0000
00041d 0000
00041e 0000
00041f 0000      	.DB  0x0,0x0,0x0,0x0,0x0,0x0,0x0,0x0
000420 0000
000421 0000
000422 0000
000423 0000      	.DB  0x0,0x0,0x0,0x0,0x0,0x0,0x0,0x0
000424 0000
000425 0000
000426 0000
000427 0000      	.DB  0x0,0x0,0x0,0x0,0x0,0x0,0x0,0x0
000428 0000
000429 0000
00042a 0000
00042b 0000      	.DB  0x0,0x0,0x0,0x0,0x0,0x0,0x0,0x0
00042c 0000
00042d 0000
00042e 0000
00042f 0000      	.DB  0x0,0x0,0x0,0x0,0x0,0x0,0x0,0x0
000430 0000
000431 0000
000432 0000
000433 0000      	.DB  0x0,0x0,0x0,0x0,0x0,0x0,0x0,0x0
000434 0000
000435 0000
000436 0000
000437 0000      	.DB  0x0,0x0,0x0,0x0,0x0,0x0,0x0,0x0
000438 0000
000439 0000
00043a 0000
00043b 0000      	.DB  0x0,0x0,0x0,0x0,0x0,0x0,0x0,0x0
00043c 0101
00043d 0000
00043e 0000
00043f 0000      	.DB  0x1,0x1,0x0,0x0,0x0,0x0,0x0,0x0
000440 0000
000441 0000
000442 0000
000443 0000      	.DB  0x0,0x0,0x0,0x0,0x0,0x0,0x0,0x0
000444 0000
000445 0000
000446 0000
000447 0000      	.DB  0x0,0x0,0x0,0x0,0x0,0x0,0x0,0x0
000448 0000
000449 0000
00044a 0000
00044b 0000      	.DB  0x0,0x0,0x0,0x0,0x0,0x0,0x0,0x0
00044c 0000
00044d 0000
00044e 0000
00044f 0000      	.DB  0x0,0x0,0x0,0x0,0x0,0x0,0x0,0x0
000450 0000
000451 0000
000452 0000
000453 0000      	.DB  0x0,0x0,0x0,0x0,0x0,0x0,0x0,0x0
000454 0000
000455 0000
000456 0000
000457 0000      	.DB  0x0,0x0,0x0,0x0,0x0,0x0,0x0,0x0
000458 0000
000459 0000
00045a 0000
00045b 0000      	.DB  0x0,0x0,0x0,0x0,0x0,0x0,0x0,0x0
00045c 0000
00045d 0000
00045e 0000
00045f 0000      	.DB  0x0,0x0,0x0,0x0,0x0,0x0,0x0,0x0
000460 0000
000461 0000
000462 0000
000463 0000      	.DB  0x0,0x0,0x0,0x0,0x0,0x0,0x0,0x0
000464 0000
000465 0000
000466 0000
000467 0000      	.DB  0x0,0x0,0x0,0x0,0x0,0x0,0x0,0x0
000468 0000
000469 0000
00046a 0000
00046b 0000      	.DB  0x0,0x0,0x0,0x0,0x0,0x0,0x0,0x0
00046c 0000
00046d 0000
00046e 0000
00046f 0000      	.DB  0x0,0x0,0x0,0x0,0x0,0x0,0x0,0x0
000470 0000
000471 0000
000472 0000
000473 0000      	.DB  0x0,0x0,0x0,0x0,0x0,0x0,0x0,0x0
000474 0000
000475 0000
000476 0000
000477 0000      	.DB  0x0,0x0,0x0,0x0,0x0,0x0,0x0,0x0
000478 0000
000479 0000
00047a 0000
00047b 0000      	.DB  0x0,0x0,0x0,0x0,0x0,0x0,0x0,0x0
00047c 0000
00047d 0000
00047e 0000
00047f 0000      	.DB  0x0,0x0,0x0,0x0,0x0,0x0,0x0,0x0
000480 0000
000481 0000
000482 0000
000483 0000      	.DB  0x0,0x0,0x0,0x0,0x0,0x0,0x0,0x0
000484 0000
000485 0000
000486 0000
000487 0000      	.DB  0x0,0x0,0x0,0x0,0x0,0x0,0x0,0x0
000488 0000
000489 0000
00048a 0000
00048b 0000      	.DB  0x0,0x0,0x0,0x0,0x0,0x0,0x0,0x0
00048c 0000
00048d 0000
00048e 0000
00048f 0000      	.DB  0x0,0x0,0x0,0x0,0x0,0x0,0x0,0x0
000490 0000
000491 0000
000492 0000
000493 0000      	.DB  0x0,0x0,0x0,0x0,0x0,0x0,0x0,0x0
000494 0000
000495 0000
000496 0000
000497 0000      	.DB  0x0,0x0,0x0,0x0,0x0,0x0,0x0,0x0
000498 0000
000499 0000
00049a 0000
00049b 0000      	.DB  0x0,0x0,0x0,0x0,0x0,0x0,0x0,0x0
00049c 0000
00049d 0000
00049e 0000
00049f 0000      	.DB  0x0,0x0,0x0,0x0,0x0,0x0,0x0,0x0
0004a0 0000
0004a1 0000
0004a2 0000
0004a3 0000      	.DB  0x0,0x0,0x0,0x0,0x0,0x0,0x0,0x0
0004a4 0000
0004a5 0000
0004a6 0000
0004a7 0000      	.DB  0x0,0x0,0x0,0x0,0x0,0x0,0x0,0x0
0004a8 0000
0004a9 0000
0004aa 0000
0004ab 0000      	.DB  0x0,0x0,0x0,0x0,0x0,0x0,0x0,0x0
0004ac 0000
0004ad 0000
0004ae 0000
0004af 0000      	.DB  0x0,0x0,0x0,0x0,0x0,0x0,0x0,0x0
0004b0 0000
0004b1 0000
0004b2 0000
0004b3 0000      	.DB  0x0,0x0,0x0,0x0,0x0,0x0,0x0,0x0
0004b4 0000
0004b5 0000
0004b6 0000
0004b7 0000      	.DB  0x0,0x0,0x0,0x0,0x0,0x0,0x0,0x0
0004b8 0000
0004b9 0000
0004ba 0000
0004bb 0000      	.DB  0x0,0x0,0x0,0x0,0x0,0x0,0x0,0x0
0004bc 0000
0004bd 0000
0004be 0000
0004bf 0000      	.DB  0x0,0x0,0x0,0x0,0x0,0x0,0x0,0x0
0004c0 0000
0004c1 0000
0004c2 0000
0004c3 0000      	.DB  0x0,0x0,0x0,0x0,0x0,0x0,0x0,0x0
0004c4 0000
0004c5 0000
0004c6 0000
0004c7 0000      	.DB  0x0,0x0,0x0,0x0,0x0,0x0,0x0,0x0
0004c8 0000
0004c9 0000
0004ca 0000
0004cb 0000      	.DB  0x0,0x0,0x0,0x0,0x0,0x0,0x0,0x0
0004cc 0000
0004cd 0000
0004ce 0000
0004cf 0000      	.DB  0x0,0x0,0x0,0x0,0x0,0x0,0x0,0x0
0004d0 0000
0004d1 0000
0004d2 0000
0004d3 0000      	.DB  0x0,0x0,0x0,0x0,0x0,0x0,0x0,0x0
0004d4 0000
0004d5 0000
0004d6 0000
0004d7 0000      	.DB  0x0,0x0,0x0,0x0,0x0,0x0,0x0,0x0
0004d8 0000
0004d9 0000
0004da 0000
0004db 0000      	.DB  0x0,0x0,0x0,0x0,0x0,0x0,0x0,0x0
0004dc 0000
0004dd 0000
0004de 0000
0004df 0000      	.DB  0x0,0x0,0x0,0x0,0x0,0x0,0x0,0x0
0004e0 0000
0004e1 0000
0004e2 0000
0004e3 0000      	.DB  0x0,0x0,0x0,0x0,0x0,0x0,0x0,0x0
0004e4 0000
0004e5 0000
0004e6 0000
0004e7 0000      	.DB  0x0,0x0,0x0,0x0,0x0,0x0,0x0,0x0
0004e8 0000
0004e9 0000
0004ea 0000
0004eb 0000      	.DB  0x0,0x0,0x0,0x0,0x0,0x0,0x0,0x0
0004ec 0000
0004ed 0000
0004ee 0000
0004ef 0000      	.DB  0x0,0x0,0x0,0x0,0x0,0x0,0x0,0x0
0004f0 0000
0004f1 0000
0004f2 0000
0004f3 0000      	.DB  0x0,0x0,0x0,0x0,0x0,0x0,0x0,0x0
0004f4 0000
0004f5 0000
0004f6 0000
0004f7 0000      	.DB  0x0,0x0,0x0,0x0,0x0,0x0,0x0,0x0
0004f8 0000
0004f9 0000
0004fa 0000
0004fb 0000      	.DB  0x0,0x0,0x0,0x0,0x0,0x0,0x0,0x0
0004fc 0000
0004fd 0000
0004fe 0000
0004ff 0000      	.DB  0x0,0x0,0x0,0x0,0x0,0x0,0x0,0x0
000500 0000
000501 0000
000502 0000
000503 0000      	.DB  0x0,0x0,0x0,0x0,0x0,0x0,0x0,0x0
000504 0000
000505 0000
000506 0000
000507 0000      	.DB  0x0,0x0,0x0,0x0,0x0,0x0,0x0,0x0
000508 0000
000509 0000
00050a 0000
00050b 0000      	.DB  0x0,0x0,0x0,0x0,0x0,0x0,0x0,0x0
00050c 0000
00050d 0000
00050e 0000
00050f 0000      	.DB  0x0,0x0,0x0,0x0,0x0,0x0,0x0,0x0
000510 0000
000511 0000
000512 0000
000513 0000      	.DB  0x0,0x0,0x0,0x0,0x0,0x0,0x0,0x0
000514 0000
000515 0000
000516 0000
000517 0000      	.DB  0x0,0x0,0x0,0x0,0x0,0x0,0x0,0x0
000518 0000
000519 0000
00051a 0000
00051b 0000      	.DB  0x0,0x0,0x0,0x0,0x0,0x0,0x0,0x0
00051c 0000
00051d 0000
00051e 0000
00051f 0000      	.DB  0x0,0x0,0x0,0x0,0x0,0x0,0x0,0x0
000520 0000
000521 0000
000522 0000
000523 0000      	.DB  0x0,0x0,0x0,0x0,0x0,0x0,0x0,0x0
000524 0000
000525 0000
000526 0000
000527 0000      	.DB  0x0,0x0,0x0,0x0,0x0,0x0,0x0,0x0
000528 0000
000529 0000
00052a 0000
00052b 0000      	.DB  0x0,0x0,0x0,0x0,0x0,0x0,0x0,0x0
00052c 0000
00052d 0000
00052e 0000
00052f 0000      	.DB  0x0,0x0,0x0,0x0,0x0,0x0,0x0,0x0
000530 0000
000531 0000
000532 0000
000533 0000      	.DB  0x0,0x0,0x0,0x0,0x0,0x0,0x0,0x0
000534 0000
000535 0000
000536 0000
000537 0000      	.DB  0x0,0x0,0x0,0x0,0x0,0x0,0x0,0x0
                 _lotfan_montazer_bemanid:
000538 0000
000539 0000
00053a 0000
00053b 0000      	.DB  0x0,0x0,0x0,0x0,0x0,0x0,0x0,0x0
00053c 0000
00053d 0000
00053e 0000
00053f 0000      	.DB  0x0,0x0,0x0,0x0,0x0,0x0,0x0,0x0
000540 0000
000541 0000
000542 0000
000543 0000      	.DB  0x0,0x0,0x0,0x0,0x0,0x0,0x0,0x0
000544 0000
000545 0000
000546 0000
000547 0000      	.DB  0x0,0x0,0x0,0x0,0x0,0x0,0x0,0x0
000548 0000
000549 0000
00054a 0000
00054b 0000      	.DB  0x0,0x0,0x0,0x0,0x0,0x0,0x0,0x0
00054c 0000
00054d 0000
00054e 0000
00054f 0000      	.DB  0x0,0x0,0x0,0x0,0x0,0x0,0x0,0x0
000550 0000
000551 0000
000552 0000
000553 0000      	.DB  0x0,0x0,0x0,0x0,0x0,0x0,0x0,0x0
000554 0000
000555 0000
000556 0000
000557 0000      	.DB  0x0,0x0,0x0,0x0,0x0,0x0,0x0,0x0
000558 0000
000559 0000
00055a 0000
00055b 0000      	.DB  0x0,0x0,0x0,0x0,0x0,0x0,0x0,0x0
00055c 0000
00055d 0000
00055e 0000
00055f 0000      	.DB  0x0,0x0,0x0,0x0,0x0,0x0,0x0,0x0
000560 0000
000561 0000
000562 0000
000563 0000      	.DB  0x0,0x0,0x0,0x0,0x0,0x0,0x0,0x0
000564 0000
000565 0000
000566 0000
000567 0000      	.DB  0x0,0x0,0x0,0x0,0x0,0x0,0x0,0x0
000568 0000
000569 0000
00056a 0000
00056b 0000      	.DB  0x0,0x0,0x0,0x0,0x0,0x0,0x0,0x0
00056c 0000
00056d 0000
00056e 0000
00056f 0000      	.DB  0x0,0x0,0x0,0x0,0x0,0x0,0x0,0x0
000570 0000
000571 0000
000572 0000
000573 0000      	.DB  0x0,0x0,0x0,0x0,0x0,0x0,0x0,0x0
000574 0000
000575 0000
000576 0000
000577 0000      	.DB  0x0,0x0,0x0,0x0,0x0,0x0,0x0,0x0
000578 0000
000579 0000
00057a 0000
00057b 0000      	.DB  0x0,0x0,0x0,0x0,0x0,0x0,0x0,0x0
00057c 0000
00057d 0000
00057e 0000
00057f 0000      	.DB  0x0,0x0,0x0,0x0,0x0,0x0,0x0,0x0
000580 0000
000581 0000
000582 0000
000583 0000      	.DB  0x0,0x0,0x0,0x0,0x0,0x0,0x0,0x0
000584 0000
000585 0000
000586 0000
000587 0000      	.DB  0x0,0x0,0x0,0x0,0x0,0x0,0x0,0x0
000588 0000
000589 0000
00058a 0000
00058b 0000      	.DB  0x0,0x0,0x0,0x0,0x0,0x0,0x0,0x0
00058c 0000
00058d 0000
00058e 0000
00058f 0000      	.DB  0x0,0x0,0x0,0x0,0x0,0x0,0x0,0x0
000590 0000
000591 0000
000592 0000
000593 0000      	.DB  0x0,0x0,0x0,0x0,0x0,0x0,0x0,0x0
000594 0000
000595 0000
000596 0000
000597 0000      	.DB  0x0,0x0,0x0,0x0,0x0,0x0,0x0,0x0
000598 0000
000599 0000
00059a 0000
00059b 0000      	.DB  0x0,0x0,0x0,0x0,0x0,0x0,0x0,0x0
00059c 0000
00059d 0000
00059e 0000
00059f 0000      	.DB  0x0,0x0,0x0,0x0,0x0,0x0,0x0,0x0
0005a0 0000
0005a1 0000
0005a2 0000
0005a3 0000      	.DB  0x0,0x0,0x0,0x0,0x0,0x0,0x0,0x0
0005a4 0000
0005a5 0000
0005a6 0000
0005a7 0000      	.DB  0x0,0x0,0x0,0x0,0x0,0x0,0x0,0x0
0005a8 0000
0005a9 0000
0005aa 0000
0005ab 0000      	.DB  0x0,0x0,0x0,0x0,0x0,0x0,0x0,0x0
0005ac 0000
0005ad 0000
0005ae 0000
0005af 0000      	.DB  0x0,0x0,0x0,0x0,0x0,0x0,0x0,0x0
0005b0 0000
0005b1 0000
0005b2 0000
0005b3 0000      	.DB  0x0,0x0,0x0,0x0,0x0,0x0,0x0,0x0
0005b4 0000
0005b5 0000
0005b6 0000
0005b7 0000      	.DB  0x0,0x0,0x0,0x0,0x0,0x0,0x0,0x0
0005b8 0000
0005b9 0000
0005ba 0000
0005bb 0000      	.DB  0x0,0x0,0x0,0x0,0x0,0x0,0x0,0x0
0005bc 0000
0005bd 0000
0005be 0000
0005bf 0000      	.DB  0x0,0x0,0x0,0x0,0x0,0x0,0x0,0x0
0005c0 0000
0005c1 0000
0005c2 0000
0005c3 0000      	.DB  0x0,0x0,0x0,0x0,0x0,0x0,0x0,0x0
0005c4 0000
0005c5 0000
0005c6 0000
0005c7 0000      	.DB  0x0,0x0,0x0,0x0,0x0,0x0,0x0,0x0
0005c8 0000
0005c9 0000
0005ca 0000
0005cb 8000      	.DB  0x0,0x0,0x0,0x0,0x0,0x0,0x0,0x80
0005cc 0080
0005cd 0000
0005ce 0000
0005cf 0000      	.DB  0x80,0x0,0x0,0x0,0x0,0x0,0x0,0x0
0005d0 0000
0005d1 0000
0005d2 0000
0005d3 0000      	.DB  0x0,0x0,0x0,0x0,0x0,0x0,0x0,0x0
0005d4 0000
0005d5 0000
0005d6 0000
0005d7 0000      	.DB  0x0,0x0,0x0,0x0,0x0,0x0,0x0,0x0
0005d8 0000
0005d9 8080
0005da 0000
0005db 0000      	.DB  0x0,0x0,0x80,0x80,0x0,0x0,0x0,0x0
0005dc 0000
0005dd 0000
0005de 0000
0005df 0000      	.DB  0x0,0x0,0x0,0x0,0x0,0x0,0x0,0x0
0005e0 0000
0005e1 0000
0005e2 0000
0005e3 0000      	.DB  0x0,0x0,0x0,0x0,0x0,0x0,0x0,0x0
0005e4 0000
0005e5 0000
0005e6 0000
0005e7 0000      	.DB  0x0,0x0,0x0,0x0,0x0,0x0,0x0,0x0
0005e8 0000
0005e9 8080
0005ea 0000
0005eb 0000      	.DB  0x0,0x0,0x80,0x80,0x0,0x0,0x0,0x0
0005ec 0000
0005ed 0000
0005ee 0000
0005ef 8080      	.DB  0x0,0x0,0x0,0x0,0x0,0x0,0x80,0x80
0005f0 0000
0005f1 0000
0005f2 0000
0005f3 8000      	.DB  0x0,0x0,0x0,0x0,0x0,0x0,0x0,0x80
0005f4 0080
0005f5 0000
0005f6 0000
0005f7 0000      	.DB  0x80,0x0,0x0,0x0,0x0,0x0,0x0,0x0
0005f8 0000
0005f9 0000
0005fa 0000
0005fb 0000      	.DB  0x0,0x0,0x0,0x0,0x0,0x0,0x0,0x0
0005fc 8080
0005fd 0000
0005fe 8080
0005ff 0000      	.DB  0x80,0x80,0x0,0x0,0x80,0x80,0x0,0x0
000600 8080
000601 0000
000602 c0c0
000603 1800      	.DB  0x80,0x80,0x0,0x0,0xC0,0xC0,0x0,0x18
000604 e0f8
000605 0000
000606 e000
000607 80e0      	.DB  0xF8,0xE0,0x0,0x0,0x0,0xE0,0xE0,0x80
000608 0000
000609 f602
00060a 00f4
00060b ff00      	.DB  0x0,0x0,0x2,0xF6,0xF4,0x0,0x0,0xFF
00060c 00ff
00060d 8000
00060e e0c0
00060f 70b0      	.DB  0xFF,0x0,0x0,0x80,0xC0,0xE0,0xB0,0x70
000610 80f0
000611 0000
000612 f000
000613 00f0      	.DB  0xF0,0x80,0x0,0x0,0x0,0xF0,0xF0,0x0
000614 0000
000615 0000
000616 e020
000617 00e0      	.DB  0x0,0x0,0x0,0x0,0x20,0xE0,0xE0,0x0
000618 8000
000619 7fff
00061a 3220
00061b f436      	.DB  0x0,0x80,0xFF,0x7F,0x20,0x32,0x36,0xF4
00061c 00e0
00061d 0400
00061e ec0c
00061f 04ec      	.DB  0xE0,0x0,0x0,0x4,0xC,0xEC,0xEC,0x4
000620 0800
000621 ecec
000622 0080
000623 8000      	.DB  0x0,0x8,0xEC,0xEC,0x80,0x0,0x0,0x80
000624 e0c0
000625 f0b0
000626 00f0
000627 0000      	.DB  0xC0,0xE0,0xB0,0xF0,0xF0,0x0,0x0,0x0
000628 0000
000629 ffff
00062a 0000
00062b f360      	.DB  0x0,0x0,0xFF,0xFF,0x0,0x0,0x60,0xF3
00062c fa9b
00062d 00f0
00062e 8000
00062f 7fff      	.DB  0x9B,0xFA,0xF0,0x0,0x0,0x80,0xFF,0x7F
000630 3020
000631 f030
000632 00e0
000633 0300      	.DB  0x20,0x30,0x30,0xF0,0xE0,0x0,0x0,0x3
000634 fcff
000635 0000
000636 0000
000637 0000      	.DB  0xFF,0xFC,0x0,0x0,0x0,0x0,0x0,0x0
000638 0000
000639 0000
00063a 0000
00063b 0000      	.DB  0x0,0x0,0x0,0x0,0x0,0x0,0x0,0x0
00063c 0101
00063d 0000
00063e 0101
00063f 0000      	.DB  0x1,0x1,0x0,0x0,0x1,0x1,0x0,0x0
000640 0101
000641 0000
000642 0101
000643 0101      	.DB  0x1,0x1,0x0,0x0,0x1,0x1,0x1,0x1
000644 0101
000645 0501
000646 0d0d
000647 090d      	.DB  0x1,0x1,0x1,0x5,0xD,0xD,0xD,0x9
000648 0101
000649 0101
00064a 0001
00064b 0000      	.DB  0x1,0x1,0x1,0x1,0x1,0x0,0x0,0x0
00064c 0101
00064d 0101
00064e 0100
00064f 0101      	.DB  0x1,0x1,0x1,0x1,0x0,0x1,0x1,0x1
000650 0101
000651 0d01
000652 090d
000653 0001      	.DB  0x1,0x1,0x1,0xD,0xD,0x9,0x1,0x0
000654 0000
000655 0808
000656 0f0c
000657 0107      	.DB  0x0,0x0,0x8,0x8,0xC,0xF,0x7,0x1
000658 0101
000659 0101
00065a 0101
00065b 0101      	.DB  0x1,0x1,0x1,0x1,0x1,0x1,0x1,0x1
00065c 0101
00065d 0101
00065e 0101
00065f 0101      	.DB  0x1,0x1,0x1,0x1,0x1,0x1,0x1,0x1
000660 0101
000661 0101
000662 0101
000663 0101      	.DB  0x1,0x1,0x1,0x1,0x1,0x1,0x1,0x1
000664 0100
000665 0101
000666 0001
000667 0000      	.DB  0x0,0x1,0x1,0x1,0x1,0x0,0x0,0x0
000668 0000
000669 0100
00066a 0101
00066b 0101      	.DB  0x0,0x0,0x0,0x1,0x1,0x1,0x1,0x1
00066c 0101
00066d 0101
00066e 0101
00066f 0101      	.DB  0x1,0x1,0x1,0x1,0x1,0x1,0x1,0x1
000670 0101
000671 0101
000672 0101
000673 0101      	.DB  0x1,0x1,0x1,0x1,0x1,0x1,0x1,0x1
000674 0001
000675 0000
000676 0000
000677 0000      	.DB  0x1,0x0,0x0,0x0,0x0,0x0,0x0,0x0
000678 0000
000679 0000
00067a 0000
00067b 0000      	.DB  0x0,0x0,0x0,0x0,0x0,0x0,0x0,0x0
00067c 0000
00067d 0000
00067e 0000
00067f 0000      	.DB  0x0,0x0,0x0,0x0,0x0,0x0,0x0,0x0
000680 0000
000681 0000
000682 0000
000683 0000      	.DB  0x0,0x0,0x0,0x0,0x0,0x0,0x0,0x0
000684 0000
000685 0000
000686 0000
000687 0000      	.DB  0x0,0x0,0x0,0x0,0x0,0x0,0x0,0x0
000688 0000
000689 0000
00068a 0000
00068b 0000      	.DB  0x0,0x0,0x0,0x0,0x0,0x0,0x0,0x0
00068c 0000
00068d 0000
00068e 0000
00068f 0000      	.DB  0x0,0x0,0x0,0x0,0x0,0x0,0x0,0x0
000690 0000
000691 0000
000692 0000
000693 0000      	.DB  0x0,0x0,0x0,0x0,0x0,0x0,0x0,0x0
000694 0000
000695 0000
000696 0000
000697 0000      	.DB  0x0,0x0,0x0,0x0,0x0,0x0,0x0,0x0
000698 0000
000699 0000
00069a 0000
00069b 0000      	.DB  0x0,0x0,0x0,0x0,0x0,0x0,0x0,0x0
00069c 0000
00069d 0000
00069e 0000
00069f 0000      	.DB  0x0,0x0,0x0,0x0,0x0,0x0,0x0,0x0
0006a0 0000
0006a1 0000
0006a2 0000
0006a3 0000      	.DB  0x0,0x0,0x0,0x0,0x0,0x0,0x0,0x0
0006a4 0000
0006a5 0000
0006a6 0000
0006a7 0000      	.DB  0x0,0x0,0x0,0x0,0x0,0x0,0x0,0x0
0006a8 0000
0006a9 0000
0006aa 0000
0006ab 0000      	.DB  0x0,0x0,0x0,0x0,0x0,0x0,0x0,0x0
0006ac 0000
0006ad 0000
0006ae 0000
0006af 0000      	.DB  0x0,0x0,0x0,0x0,0x0,0x0,0x0,0x0
0006b0 0000
0006b1 0000
0006b2 0000
0006b3 0000      	.DB  0x0,0x0,0x0,0x0,0x0,0x0,0x0,0x0
0006b4 0000
0006b5 0000
0006b6 0000
0006b7 0000      	.DB  0x0,0x0,0x0,0x0,0x0,0x0,0x0,0x0
0006b8 0000
0006b9 0000
0006ba 0000
0006bb 0000      	.DB  0x0,0x0,0x0,0x0,0x0,0x0,0x0,0x0
0006bc 0000
0006bd 0000
0006be 0000
0006bf 0000      	.DB  0x0,0x0,0x0,0x0,0x0,0x0,0x0,0x0
0006c0 0000
0006c1 0000
0006c2 0000
0006c3 0000      	.DB  0x0,0x0,0x0,0x0,0x0,0x0,0x0,0x0
0006c4 0000
0006c5 0000
0006c6 0000
0006c7 0000      	.DB  0x0,0x0,0x0,0x0,0x0,0x0,0x0,0x0
0006c8 0000
0006c9 0000
0006ca 0000
0006cb 0000      	.DB  0x0,0x0,0x0,0x0,0x0,0x0,0x0,0x0
0006cc 0000
0006cd 0000
0006ce 0000
0006cf 0000      	.DB  0x0,0x0,0x0,0x0,0x0,0x0,0x0,0x0
0006d0 0000
0006d1 0000
0006d2 0000
0006d3 0000      	.DB  0x0,0x0,0x0,0x0,0x0,0x0,0x0,0x0
0006d4 0000
0006d5 0000
0006d6 0000
0006d7 0000      	.DB  0x0,0x0,0x0,0x0,0x0,0x0,0x0,0x0
0006d8 0000
0006d9 0000
0006da 0000
0006db 0000      	.DB  0x0,0x0,0x0,0x0,0x0,0x0,0x0,0x0
0006dc 0000
0006dd 0000
0006de 0000
0006df 0000      	.DB  0x0,0x0,0x0,0x0,0x0,0x0,0x0,0x0
0006e0 0000
0006e1 0000
0006e2 0000
0006e3 0000      	.DB  0x0,0x0,0x0,0x0,0x0,0x0,0x0,0x0
0006e4 0000
0006e5 0000
0006e6 0000
0006e7 0000      	.DB  0x0,0x0,0x0,0x0,0x0,0x0,0x0,0x0
0006e8 0000
0006e9 0000
0006ea 0000
0006eb 0000      	.DB  0x0,0x0,0x0,0x0,0x0,0x0,0x0,0x0
0006ec 0000
0006ed 0000
0006ee 0000
0006ef 0000      	.DB  0x0,0x0,0x0,0x0,0x0,0x0,0x0,0x0
0006f0 0000
0006f1 0000
0006f2 0000
0006f3 0000      	.DB  0x0,0x0,0x0,0x0,0x0,0x0,0x0,0x0
0006f4 0000
0006f5 0000
0006f6 0000
0006f7 0000      	.DB  0x0,0x0,0x0,0x0,0x0,0x0,0x0,0x0
0006f8 0000
0006f9 0000
0006fa 0000
0006fb 0000      	.DB  0x0,0x0,0x0,0x0,0x0,0x0,0x0,0x0
0006fc 0000
0006fd 0000
0006fe 0000
0006ff 0000      	.DB  0x0,0x0,0x0,0x0,0x0,0x0,0x0,0x0
000700 0000
000701 0000
000702 0000
000703 0000      	.DB  0x0,0x0,0x0,0x0,0x0,0x0,0x0,0x0
000704 0000
000705 0000
000706 0000
000707 0000      	.DB  0x0,0x0,0x0,0x0,0x0,0x0,0x0,0x0
000708 0000
000709 0000
00070a 0000
00070b 0000      	.DB  0x0,0x0,0x0,0x0,0x0,0x0,0x0,0x0
00070c 0000
00070d 0000
00070e 0000
00070f 0000      	.DB  0x0,0x0,0x0,0x0,0x0,0x0,0x0,0x0
000710 0000
000711 0000
000712 0000
000713 0000      	.DB  0x0,0x0,0x0,0x0,0x0,0x0,0x0,0x0
000714 0000
000715 0000
000716 0000
000717 0000      	.DB  0x0,0x0,0x0,0x0,0x0,0x0,0x0,0x0
000718 0000
000719 0000
00071a 0000
00071b 0000      	.DB  0x0,0x0,0x0,0x0,0x0,0x0,0x0,0x0
00071c 0000
00071d 0000
00071e 0000
00071f 0000      	.DB  0x0,0x0,0x0,0x0,0x0,0x0,0x0,0x0
000720 0000
000721 0000
000722 0000
000723 0000      	.DB  0x0,0x0,0x0,0x0,0x0,0x0,0x0,0x0
000724 0000
000725 0000
000726 0000
000727 0000      	.DB  0x0,0x0,0x0,0x0,0x0,0x0,0x0,0x0
000728 0000
000729 0000
00072a 0000
00072b 0000      	.DB  0x0,0x0,0x0,0x0,0x0,0x0,0x0,0x0
00072c 0000
00072d 0000
00072e 0000
00072f 0000      	.DB  0x0,0x0,0x0,0x0,0x0,0x0,0x0,0x0
000730 0000
000731 0000
000732 0000
000733 0000      	.DB  0x0,0x0,0x0,0x0,0x0,0x0,0x0,0x0
000734 0000
000735 0000
000736 0000
000737 0000      	.DB  0x0,0x0,0x0,0x0,0x0,0x0,0x0,0x0
                 _shomare_dorost_payamak_nashode:
000738 0000
000739 0000
00073a 0000
00073b 0000      	.DB  0x0,0x0,0x0,0x0,0x0,0x0,0x0,0x0
00073c 0000
00073d 0000
00073e 0000
00073f 0000      	.DB  0x0,0x0,0x0,0x0,0x0,0x0,0x0,0x0
000740 0000
000741 0000
000742 0000
000743 0000      	.DB  0x0,0x0,0x0,0x0,0x0,0x0,0x0,0x0
000744 0000
000745 0000
000746 0000
000747 0000      	.DB  0x0,0x0,0x0,0x0,0x0,0x0,0x0,0x0
000748 0000
000749 0000
00074a 0000
00074b 0000      	.DB  0x0,0x0,0x0,0x0,0x0,0x0,0x0,0x0
00074c 0000
00074d 0000
00074e 0000
00074f 0000      	.DB  0x0,0x0,0x0,0x0,0x0,0x0,0x0,0x0
000750 0000
000751 0000
000752 0000
000753 0000      	.DB  0x0,0x0,0x0,0x0,0x0,0x0,0x0,0x0
000754 0000
000755 0000
000756 0000
000757 0000      	.DB  0x0,0x0,0x0,0x0,0x0,0x0,0x0,0x0
000758 0000
000759 0000
00075a 0000
00075b 0000      	.DB  0x0,0x0,0x0,0x0,0x0,0x0,0x0,0x0
00075c 0000
00075d 0000
00075e 0000
00075f 0000      	.DB  0x0,0x0,0x0,0x0,0x0,0x0,0x0,0x0
000760 0000
000761 0000
000762 0000
000763 0000      	.DB  0x0,0x0,0x0,0x0,0x0,0x0,0x0,0x0
000764 0000
000765 0000
000766 0000
000767 0000      	.DB  0x0,0x0,0x0,0x0,0x0,0x0,0x0,0x0
000768 0000
000769 0000
00076a 0000
00076b 0000      	.DB  0x0,0x0,0x0,0x0,0x0,0x0,0x0,0x0
00076c 0000
00076d 0000
00076e 0000
00076f 0000      	.DB  0x0,0x0,0x0,0x0,0x0,0x0,0x0,0x0
000770 0000
000771 0000
000772 0000
000773 0000      	.DB  0x0,0x0,0x0,0x0,0x0,0x0,0x0,0x0
000774 0000
000775 0000
000776 0000
000777 0000      	.DB  0x0,0x0,0x0,0x0,0x0,0x0,0x0,0x0
000778 0000
000779 0000
00077a 0000
00077b 0000      	.DB  0x0,0x0,0x0,0x0,0x0,0x0,0x0,0x0
00077c 0000
00077d 0000
00077e 0000
00077f 0000      	.DB  0x0,0x0,0x0,0x0,0x0,0x0,0x0,0x0
000780 0000
000781 0000
000782 0000
000783 0000      	.DB  0x0,0x0,0x0,0x0,0x0,0x0,0x0,0x0
000784 0000
000785 0000
000786 0000
000787 0000      	.DB  0x0,0x0,0x0,0x0,0x0,0x0,0x0,0x0
000788 0000
000789 0000
00078a 0000
00078b 0000      	.DB  0x0,0x0,0x0,0x0,0x0,0x0,0x0,0x0
00078c 0000
00078d 0000
00078e 0000
00078f 0000      	.DB  0x0,0x0,0x0,0x0,0x0,0x0,0x0,0x0
000790 0000
000791 0000
000792 0000
000793 0000      	.DB  0x0,0x0,0x0,0x0,0x0,0x0,0x0,0x0
000794 0000
000795 0000
000796 0000
000797 0000      	.DB  0x0,0x0,0x0,0x0,0x0,0x0,0x0,0x0
000798 0000
000799 0000
00079a 0000
00079b 0000      	.DB  0x0,0x0,0x0,0x0,0x0,0x0,0x0,0x0
00079c 0000
00079d 0000
00079e 0000
00079f 0000      	.DB  0x0,0x0,0x0,0x0,0x0,0x0,0x0,0x0
0007a0 0000
0007a1 0000
0007a2 0000
0007a3 0000      	.DB  0x0,0x0,0x0,0x0,0x0,0x0,0x0,0x0
0007a4 0000
0007a5 0000
0007a6 0000
0007a7 0000      	.DB  0x0,0x0,0x0,0x0,0x0,0x0,0x0,0x0
0007a8 0000
0007a9 0000
0007aa e0e0
0007ab 0000      	.DB  0x0,0x0,0x0,0x0,0xE0,0xE0,0x0,0x0
0007ac 0000
0007ad 0000
0007ae 0000
0007af 0000      	.DB  0x0,0x0,0x0,0x0,0x0,0x0,0x0,0x0
0007b0 0000
0007b1 0000
0007b2 8000
0007b3 0080      	.DB  0x0,0x0,0x0,0x0,0x0,0x80,0x80,0x0
0007b4 0000
0007b5 0000
0007b6 0000
0007b7 0000      	.DB  0x0,0x0,0x0,0x0,0x0,0x0,0x0,0x0
0007b8 0000
0007b9 0000
0007ba 0000
0007bb 0000      	.DB  0x0,0x0,0x0,0x0,0x0,0x0,0x0,0x0
0007bc 3800
0007bd 4278
0007be 4343
0007bf 4343      	.DB  0x0,0x38,0x78,0x42,0x43,0x43,0x43,0x43
0007c0 7860
0007c1 4078
0007c2 4040
0007c3 7878      	.DB  0x60,0x78,0x78,0x40,0x40,0x40,0x78,0x78
0007c4 6040
0007c5 7878
0007c6 7c44
0007c7 003c      	.DB  0x40,0x60,0x78,0x78,0x44,0x7C,0x3C,0x0
0007c8 0800
0007c9 f8f8
0007ca 0000
0007cb 7270      	.DB  0x0,0x8,0xF8,0xF8,0x0,0x0,0x70,0x72
0007cc 4642
0007cd 387e
0007ce 0000
0007cf 0000      	.DB  0x42,0x46,0x7E,0x38,0x0,0x0,0x0,0x0
0007d0 f000
0007d1 02f0
0007d2 0606
0007d3 fc00      	.DB  0x0,0xF0,0xF0,0x2,0x6,0x6,0x0,0xFC
0007d4 00fc
0007d5 7800
0007d6 4c7c
0007d7 f8d8      	.DB  0xFC,0x0,0x0,0x78,0x7C,0x4C,0xD8,0xF8
0007d8 4060
0007d9 4342
0007da 7b7b
0007db 4063      	.DB  0x60,0x40,0x42,0x43,0x7B,0x7B,0x63,0x40
0007dc 4040
0007dd 7878
0007de 6040
0007df 7878      	.DB  0x40,0x40,0x78,0x78,0x40,0x60,0x78,0x78
0007e0 7c44
0007e1 003c
0007e2 0000
0007e3 0000      	.DB  0x44,0x7C,0x3C,0x0,0x0,0x0,0x0,0x0
0007e4 7e78
0007e5 7c46
0007e6 0078
0007e7 0800      	.DB  0x78,0x7E,0x46,0x7C,0x78,0x0,0x0,0x8
0007e8 f8f8
0007e9 0000
0007ea 7f3f
0007eb 4040      	.DB  0xF8,0xF8,0x0,0x0,0x3F,0x7F,0x40,0x40
0007ec 3060
0007ed 6c78
0007ee 7c5c
0007ef 4060      	.DB  0x60,0x30,0x78,0x6C,0x5C,0x7C,0x60,0x40
0007f0 4040
0007f1 7878
0007f2 6343
0007f3 7b7b      	.DB  0x40,0x40,0x78,0x78,0x43,0x63,0x7B,0x7B
0007f4 7c46
0007f5 003c
0007f6 0000
0007f7 0000      	.DB  0x46,0x7C,0x3C,0x0,0x0,0x0,0x0,0x0
0007f8 0000
0007f9 0000
0007fa 0000
0007fb 0000      	.DB  0x0,0x0,0x0,0x0,0x0,0x0,0x0,0x0
0007fc 0000
0007fd 0000
0007fe 0000
0007ff 0000      	.DB  0x0,0x0,0x0,0x0,0x0,0x0,0x0,0x0
000800 0000
000801 0000
000802 0000
000803 0000      	.DB  0x0,0x0,0x0,0x0,0x0,0x0,0x0,0x0
000804 0000
000805 0000
000806 0000
000807 0200      	.DB  0x0,0x0,0x0,0x0,0x0,0x0,0x0,0x2
000808 0302
000809 0103
00080a 0000
00080b 0000      	.DB  0x2,0x3,0x3,0x1,0x0,0x0,0x0,0x0
00080c 0000
00080d 0000
00080e 0000
00080f 0000      	.DB  0x0,0x0,0x0,0x0,0x0,0x0,0x0,0x0
000810 0100
000811 0303
000812 0302
000813 0103      	.DB  0x0,0x1,0x3,0x3,0x2,0x3,0x3,0x1
000814 0001
000815 0200
000816 0202
000817 0103      	.DB  0x1,0x0,0x0,0x2,0x2,0x2,0x3,0x1
000818 0000
000819 0000
00081a 0000
00081b 0000      	.DB  0x0,0x0,0x0,0x0,0x0,0x0,0x0,0x0
00081c 0000
00081d 0000
00081e 0000
00081f 0000      	.DB  0x0,0x0,0x0,0x0,0x0,0x0,0x0,0x0
000820 0000
000821 0000
000822 0000
000823 0000      	.DB  0x0,0x0,0x0,0x0,0x0,0x0,0x0,0x0
000824 0000
000825 0000
000826 0200
000827 0302      	.DB  0x0,0x0,0x0,0x0,0x0,0x2,0x2,0x3
000828 0103
000829 0000
00082a 0000
00082b 0000      	.DB  0x3,0x1,0x0,0x0,0x0,0x0,0x0,0x0
00082c 0000
00082d 0000
00082e 0000
00082f 0000      	.DB  0x0,0x0,0x0,0x0,0x0,0x0,0x0,0x0
000830 0000
000831 0000
000832 0000
000833 0000      	.DB  0x0,0x0,0x0,0x0,0x0,0x0,0x0,0x0
000834 0000
000835 0000
000836 0000
000837 0000      	.DB  0x0,0x0,0x0,0x0,0x0,0x0,0x0,0x0
000838 0000
000839 0000
00083a 0000
00083b 0000      	.DB  0x0,0x0,0x0,0x0,0x0,0x0,0x0,0x0
00083c 0000
00083d 0000
00083e 0000
00083f 0000      	.DB  0x0,0x0,0x0,0x0,0x0,0x0,0x0,0x0
000840 0000
000841 0000
000842 0000
000843 0000      	.DB  0x0,0x0,0x0,0x0,0x0,0x0,0x0,0x0
000844 0000
000845 0000
000846 0000
000847 0000      	.DB  0x0,0x0,0x0,0x0,0x0,0x0,0x0,0x0
000848 0000
000849 0000
00084a 0000
00084b 0000      	.DB  0x0,0x0,0x0,0x0,0x0,0x0,0x0,0x0
00084c e0e0
00084d 0000
00084e 0000
00084f 0000      	.DB  0xE0,0xE0,0x0,0x0,0x0,0x0,0x0,0x0
000850 0000
000851 0000
000852 0000
000853 0000      	.DB  0x0,0x0,0x0,0x0,0x0,0x0,0x0,0x0
000854 0000
000855 0000
000856 0000
000857 0000      	.DB  0x0,0x0,0x0,0x0,0x0,0x0,0x0,0x0
000858 0000
000859 8080
00085a 0080
00085b 0000      	.DB  0x0,0x0,0x80,0x80,0x80,0x0,0x0,0x0
00085c 0000
00085d 8080
00085e 0000
00085f 0000      	.DB  0x0,0x0,0x80,0x80,0x0,0x0,0x0,0x0
000860 0000
000861 0000
000862 0000
000863 8080      	.DB  0x0,0x0,0x0,0x0,0x0,0x0,0x80,0x80
000864 8080
000865 40c0
000866 0000
000867 0000      	.DB  0x80,0x80,0xC0,0x40,0x0,0x0,0x0,0x0
000868 0000
000869 0000
00086a 0000
00086b e0e0      	.DB  0x0,0x0,0x0,0x0,0x0,0x0,0xE0,0xE0
00086c 0000
00086d 0000
00086e 0000
00086f 0000      	.DB  0x0,0x0,0x0,0x0,0x0,0x0,0x0,0x0
000870 0000
000871 0000
000872 0000
000873 0000      	.DB  0x0,0x0,0x0,0x0,0x0,0x0,0x0,0x0
000874 0000
000875 0000
000876 0000
000877 0000      	.DB  0x0,0x0,0x0,0x0,0x0,0x0,0x0,0x0
000878 0000
000879 0000
00087a 0000
00087b 0000      	.DB  0x0,0x0,0x0,0x0,0x0,0x0,0x0,0x0
00087c 0000
00087d 0000
00087e 6060
00087f 0000      	.DB  0x0,0x0,0x0,0x0,0x60,0x60,0x0,0x0
000880 7838
000881 4342
000882 4343
000883 6043      	.DB  0x38,0x78,0x42,0x43,0x43,0x43,0x43,0x60
000884 7878
000885 4040
000886 7840
000887 4078      	.DB  0x78,0x78,0x40,0x40,0x40,0x78,0x78,0x40
000888 7860
000889 4478
00088a 3c7c
00088b 0000      	.DB  0x60,0x78,0x78,0x44,0x7C,0x3C,0x0,0x0
00088c 7f7f
00088d 0000
00088e 0000
00088f 7800      	.DB  0x7F,0x7F,0x0,0x0,0x0,0x0,0x0,0x78
000890 467e
000891 787c
000892 0000
000893 7070      	.DB  0x7E,0x46,0x7C,0x78,0x0,0x0,0x70,0x70
000894 4640
000895 787e
000896 4040
000897 7840      	.DB  0x40,0x46,0x7E,0x78,0x40,0x40,0x40,0x78
000898 4378
000899 7b63
00089a 427b
00089b 7878      	.DB  0x78,0x43,0x63,0x7B,0x7B,0x42,0x78,0x78
00089c 4040
00089d 7d40
00089e 007d
00089f 0000      	.DB  0x40,0x40,0x40,0x7D,0x7D,0x0,0x0,0x0
0008a0 0000
0008a1 7838
0008a2 4040
0008a3 4341      	.DB  0x0,0x0,0x38,0x78,0x40,0x40,0x41,0x43
0008a4 6e46
0008a5 7078
0008a6 4040
0008a7 3060      	.DB  0x46,0x6E,0x78,0x70,0x40,0x40,0x60,0x30
0008a8 6c78
0008a9 7c7c
0008aa 0000
0008ab 7f3f      	.DB  0x78,0x6C,0x7C,0x7C,0x0,0x0,0x3F,0x7F
0008ac 4040
0008ad 4040
0008ae 7878
0008af 4040      	.DB  0x40,0x40,0x40,0x40,0x78,0x78,0x40,0x40
0008b0 7c40
0008b1 007c
0008b2 0000
0008b3 0000      	.DB  0x40,0x7C,0x7C,0x0,0x0,0x0,0x0,0x0
0008b4 0000
0008b5 0000
0008b6 0000
0008b7 0000      	.DB  0x0,0x0,0x0,0x0,0x0,0x0,0x0,0x0
0008b8 0000
0008b9 0000
0008ba 0000
0008bb 0000      	.DB  0x0,0x0,0x0,0x0,0x0,0x0,0x0,0x0
0008bc 0000
0008bd 0000
0008be 0000
0008bf 0000      	.DB  0x0,0x0,0x0,0x0,0x0,0x0,0x0,0x0
0008c0 0000
0008c1 0000
0008c2 0000
0008c3 0000      	.DB  0x0,0x0,0x0,0x0,0x0,0x0,0x0,0x0
0008c4 0000
0008c5 0000
0008c6 0000
0008c7 0000      	.DB  0x0,0x0,0x0,0x0,0x0,0x0,0x0,0x0
0008c8 0000
0008c9 0000
0008ca 0000
0008cb 0000      	.DB  0x0,0x0,0x0,0x0,0x0,0x0,0x0,0x0
0008cc 0000
0008cd 0000
0008ce 0000
0008cf 0000      	.DB  0x0,0x0,0x0,0x0,0x0,0x0,0x0,0x0
0008d0 0000
0008d1 0000
0008d2 0000
0008d3 0000      	.DB  0x0,0x0,0x0,0x0,0x0,0x0,0x0,0x0
0008d4 0000
0008d5 0000
0008d6 0000
0008d7 0000      	.DB  0x0,0x0,0x0,0x0,0x0,0x0,0x0,0x0
0008d8 0000
0008d9 0000
0008da 0000
0008db 0000      	.DB  0x0,0x0,0x0,0x0,0x0,0x0,0x0,0x0
0008dc 0000
0008dd 0000
0008de 0000
0008df 0000      	.DB  0x0,0x0,0x0,0x0,0x0,0x0,0x0,0x0
0008e0 0000
0008e1 0000
0008e2 0000
0008e3 0000      	.DB  0x0,0x0,0x0,0x0,0x0,0x0,0x0,0x0
0008e4 0000
0008e5 0000
0008e6 0000
0008e7 0000      	.DB  0x0,0x0,0x0,0x0,0x0,0x0,0x0,0x0
0008e8 0000
0008e9 0000
0008ea 0000
0008eb 0000      	.DB  0x0,0x0,0x0,0x0,0x0,0x0,0x0,0x0
0008ec 0200
0008ed 0303
0008ee 0303
0008ef 0b03      	.DB  0x0,0x2,0x3,0x3,0x3,0x3,0x3,0xB
0008f0 0f0f
0008f1 0002
0008f2 0000
0008f3 0000      	.DB  0xF,0xF,0x2,0x0,0x0,0x0,0x0,0x0
0008f4 0000
0008f5 0000
0008f6 0000
0008f7 0000      	.DB  0x0,0x0,0x0,0x0,0x0,0x0,0x0,0x0
0008f8 0000
0008f9 0000
0008fa 0000
0008fb 0000      	.DB  0x0,0x0,0x0,0x0,0x0,0x0,0x0,0x0
0008fc 0000
0008fd 0000
0008fe 0000
0008ff 0000      	.DB  0x0,0x0,0x0,0x0,0x0,0x0,0x0,0x0
000900 0000
000901 0000
000902 0000
000903 0000      	.DB  0x0,0x0,0x0,0x0,0x0,0x0,0x0,0x0
000904 0000
000905 0000
000906 0000
000907 0000      	.DB  0x0,0x0,0x0,0x0,0x0,0x0,0x0,0x0
000908 0000
000909 0000
00090a 0000
00090b 0000      	.DB  0x0,0x0,0x0,0x0,0x0,0x0,0x0,0x0
00090c 0000
00090d 0000
00090e 0000
00090f 0000      	.DB  0x0,0x0,0x0,0x0,0x0,0x0,0x0,0x0
000910 0000
000911 0000
000912 0000
000913 0000      	.DB  0x0,0x0,0x0,0x0,0x0,0x0,0x0,0x0
000914 0000
000915 0000
000916 0000
000917 0000      	.DB  0x0,0x0,0x0,0x0,0x0,0x0,0x0,0x0
000918 0000
000919 0000
00091a 0000
00091b 0000      	.DB  0x0,0x0,0x0,0x0,0x0,0x0,0x0,0x0
00091c 0000
00091d 0000
00091e 0000
00091f 0000      	.DB  0x0,0x0,0x0,0x0,0x0,0x0,0x0,0x0
000920 0000
000921 0000
000922 0000
000923 0000      	.DB  0x0,0x0,0x0,0x0,0x0,0x0,0x0,0x0
000924 0000
000925 0000
000926 0000
000927 0000      	.DB  0x0,0x0,0x0,0x0,0x0,0x0,0x0,0x0
000928 0000
000929 0000
00092a 0000
00092b 0000      	.DB  0x0,0x0,0x0,0x0,0x0,0x0,0x0,0x0
00092c 0000
00092d 0000
00092e 0000
00092f 0000      	.DB  0x0,0x0,0x0,0x0,0x0,0x0,0x0,0x0
000930 0000
000931 0000
000932 0000
000933 0000      	.DB  0x0,0x0,0x0,0x0,0x0,0x0,0x0,0x0
000934 0000
000935 0000
000936 0000
000937 0000      	.DB  0x0,0x0,0x0,0x0,0x0,0x0,0x0,0x0
                 _shomare_soton_dorost_vared_nashode:
000938 0000
000939 0000
00093a 0000
00093b 0000      	.DB  0x0,0x0,0x0,0x0,0x0,0x0,0x0,0x0
00093c 0000
00093d 0000
00093e 0000
00093f 0000      	.DB  0x0,0x0,0x0,0x0,0x0,0x0,0x0,0x0
000940 0000
000941 0000
000942 0000
000943 0000      	.DB  0x0,0x0,0x0,0x0,0x0,0x0,0x0,0x0
000944 0000
000945 0000
000946 0000
000947 0000      	.DB  0x0,0x0,0x0,0x0,0x0,0x0,0x0,0x0
000948 0000
000949 0000
00094a 0000
00094b 0000      	.DB  0x0,0x0,0x0,0x0,0x0,0x0,0x0,0x0
00094c 0000
00094d 0000
00094e 0000
00094f 0000      	.DB  0x0,0x0,0x0,0x0,0x0,0x0,0x0,0x0
000950 0000
000951 0000
000952 0000
000953 0000      	.DB  0x0,0x0,0x0,0x0,0x0,0x0,0x0,0x0
000954 0000
000955 0000
000956 0000
000957 0000      	.DB  0x0,0x0,0x0,0x0,0x0,0x0,0x0,0x0
000958 0000
000959 0000
00095a 0000
00095b 0000      	.DB  0x0,0x0,0x0,0x0,0x0,0x0,0x0,0x0
00095c 0000
00095d 0000
00095e 0000
00095f 0000      	.DB  0x0,0x0,0x0,0x0,0x0,0x0,0x0,0x0
000960 0000
000961 0000
000962 0000
000963 0000      	.DB  0x0,0x0,0x0,0x0,0x0,0x0,0x0,0x0
000964 0000
000965 0000
000966 0000
000967 0000      	.DB  0x0,0x0,0x0,0x0,0x0,0x0,0x0,0x0
000968 0000
000969 0000
00096a 0000
00096b 0000      	.DB  0x0,0x0,0x0,0x0,0x0,0x0,0x0,0x0
00096c 0000
00096d 0000
00096e 0000
00096f 0000      	.DB  0x0,0x0,0x0,0x0,0x0,0x0,0x0,0x0
000970 0000
000971 0000
000972 0000
000973 0000      	.DB  0x0,0x0,0x0,0x0,0x0,0x0,0x0,0x0
000974 0000
000975 0000
000976 0000
000977 0000      	.DB  0x0,0x0,0x0,0x0,0x0,0x0,0x0,0x0
000978 0000
000979 0000
00097a 0000
00097b 0000      	.DB  0x0,0x0,0x0,0x0,0x0,0x0,0x0,0x0
00097c 0000
00097d 0000
00097e 0000
00097f 0000      	.DB  0x0,0x0,0x0,0x0,0x0,0x0,0x0,0x0
000980 0000
000981 0000
000982 0000
000983 0000      	.DB  0x0,0x0,0x0,0x0,0x0,0x0,0x0,0x0
000984 0000
000985 0000
000986 0000
000987 0000      	.DB  0x0,0x0,0x0,0x0,0x0,0x0,0x0,0x0
000988 0000
000989 0000
00098a 0000
00098b 0000      	.DB  0x0,0x0,0x0,0x0,0x0,0x0,0x0,0x0
00098c 0000
00098d 0000
00098e 0000
00098f 0000      	.DB  0x0,0x0,0x0,0x0,0x0,0x0,0x0,0x0
000990 0000
000991 0000
000992 0000
000993 0000      	.DB  0x0,0x0,0x0,0x0,0x0,0x0,0x0,0x0
000994 0000
000995 0000
000996 0000
000997 0000      	.DB  0x0,0x0,0x0,0x0,0x0,0x0,0x0,0x0
000998 0000
000999 0000
00099a 0000
00099b 0000      	.DB  0x0,0x0,0x0,0x0,0x0,0x0,0x0,0x0
00099c 0000
00099d 0000
00099e 0000
00099f 0000      	.DB  0x0,0x0,0x0,0x0,0x0,0x0,0x0,0x0
0009a0 0000
0009a1 0000
0009a2 0000
0009a3 0000      	.DB  0x0,0x0,0x0,0x0,0x0,0x0,0x0,0x0
0009a4 0000
0009a5 0000
0009a6 0000
0009a7 0000      	.DB  0x0,0x0,0x0,0x0,0x0,0x0,0x0,0x0
0009a8 0000
0009a9 0000
0009aa 0000
0009ab 0000      	.DB  0x0,0x0,0x0,0x0,0x0,0x0,0x0,0x0
0009ac 0000
0009ad 0000
0009ae 0000
0009af 0000      	.DB  0x0,0x0,0x0,0x0,0x0,0x0,0x0,0x0
0009b0 0000
0009b1 0000
0009b2 0000
0009b3 0000      	.DB  0x0,0x0,0x0,0x0,0x0,0x0,0x0,0x0
0009b4 0000
0009b5 0000
0009b6 0000
0009b7 0000      	.DB  0x0,0x0,0x0,0x0,0x0,0x0,0x0,0x0
0009b8 0000
0009b9 0000
0009ba 0000
0009bb c0c0      	.DB  0x0,0x0,0x0,0x0,0x0,0x0,0xC0,0xC0
0009bc 1810
0009bd 1818
0009be 0018
0009bf c0c0      	.DB  0x10,0x18,0x18,0x18,0x18,0x0,0xC0,0xC0
0009c0 0000
0009c1 c000
0009c2 00c0
0009c3 c000      	.DB  0x0,0x0,0x0,0xC0,0xC0,0x0,0x0,0xC0
0009c4 20c0
0009c5 e0e0
0009c6 0000
0009c7 c040      	.DB  0xC0,0x20,0xE0,0xE0,0x0,0x0,0x40,0xC0
0009c8 00c0
0009c9 8000
0009ca 1090
0009cb f030      	.DB  0xC0,0x0,0x0,0x80,0x90,0x10,0x30,0xF0
0009cc 00c0
0009cd 0000
0009ce 0000
0009cf 8080      	.DB  0xC0,0x0,0x0,0x0,0x0,0x0,0x80,0x80
0009d0 3010
0009d1 0030
0009d2 e0e0
0009d3 0000      	.DB  0x10,0x30,0x30,0x0,0xE0,0xE0,0x0,0x0
0009d4 e0c0
0009d5 c060
0009d6 00c0
0009d7 1000      	.DB  0xC0,0xE0,0x60,0xC0,0xC0,0x0,0x0,0x10
0009d8 d818
0009d9 18d8
0009da 0000
0009db c000      	.DB  0x18,0xD8,0xD8,0x18,0x0,0x0,0x0,0xC0
0009dc 00c0
0009dd c000
0009de 20c0
0009df e0e0      	.DB  0xC0,0x0,0x0,0xC0,0xC0,0x20,0xE0,0xE0
0009e0 0000
0009e1 0000
0009e2 c000
0009e3 30f0      	.DB  0x0,0x0,0x0,0x0,0x0,0xC0,0xF0,0x30
0009e4 c0e0
0009e5 0000
0009e6 c040
0009e7 00c0      	.DB  0xE0,0xC0,0x0,0x0,0x40,0xC0,0xC0,0x0
0009e8 ff00
0009e9 00ff
0009ea 0000
0009eb c080      	.DB  0x0,0xFF,0xFF,0x0,0x0,0x0,0x80,0xC0
0009ec e060
0009ed 00e0
0009ee 0000
0009ef c000      	.DB  0x60,0xE0,0xE0,0x0,0x0,0x0,0x0,0xC0
0009f0 18c0
0009f1 dc1c
0009f2 30d8
0009f3 e0e0      	.DB  0xC0,0x18,0x1C,0xDC,0xD8,0x30,0xE0,0xE0
0009f4 0000
0009f5 0000
0009f6 0000
0009f7 0000      	.DB  0x0,0x0,0x0,0x0,0x0,0x0,0x0,0x0
0009f8 0000
0009f9 0000
0009fa 0000
0009fb 0301      	.DB  0x0,0x0,0x0,0x0,0x0,0x0,0x1,0x3
0009fc 0202
0009fd 0202
0009fe 0302
0009ff 0303      	.DB  0x2,0x2,0x2,0x2,0x2,0x3,0x3,0x3
000a00 0202
000a01 0302
000a02 0203
000a03 0303      	.DB  0x2,0x2,0x2,0x3,0x3,0x2,0x3,0x3
000a04 0203
000a05 0103
000a06 1010
000a07 1f18      	.DB  0x3,0x2,0x3,0x1,0x10,0x10,0x18,0x1F
000a08 000f
000a09 0300
000a0a 0203
000a0b 0302      	.DB  0xF,0x0,0x0,0x3,0x3,0x2,0x2,0x3
000a0c 0001
000a0d 0000
000a0e 0000
000a0f 1f0f      	.DB  0x1,0x0,0x0,0x0,0x0,0x0,0xF,0x1F
000a10 1018
000a11 1818
000a12 0f0f
000a13 0000      	.DB  0x18,0x10,0x18,0x18,0xF,0xF,0x0,0x0
000a14 1313
000a15 1e12
000a16 030f
000a17 0202      	.DB  0x13,0x13,0x12,0x1E,0xF,0x3,0x2,0x2
000a18 0302
000a19 0303
000a1a 0202
000a1b 0302      	.DB  0x2,0x3,0x3,0x3,0x2,0x2,0x2,0x3
000a1c 0203
000a1d 0303
000a1e 0203
000a1f 0103      	.DB  0x3,0x2,0x3,0x3,0x3,0x2,0x3,0x1
000a20 0000
000a21 0000
000a22 0300
000a23 0203      	.DB  0x0,0x0,0x0,0x0,0x0,0x3,0x3,0x2
000a24 0303
000a25 1010
000a26 1f18
000a27 000f      	.DB  0x3,0x3,0x10,0x10,0x18,0x1F,0xF,0x0
000a28 0100
000a29 0203
000a2a 0302
000a2b 0301      	.DB  0x0,0x1,0x3,0x2,0x2,0x3,0x1,0x3
000a2c 0203
000a2d 0303
000a2e 0202
000a2f 0302      	.DB  0x3,0x2,0x3,0x3,0x2,0x2,0x2,0x3
000a30 0203
000a31 0303
000a32 0203
000a33 0103      	.DB  0x3,0x2,0x3,0x3,0x3,0x2,0x3,0x1
000a34 0000
000a35 0000
000a36 0000
000a37 0000      	.DB  0x0,0x0,0x0,0x0,0x0,0x0,0x0,0x0
000a38 0000
000a39 0000
000a3a 0000
000a3b 0000      	.DB  0x0,0x0,0x0,0x0,0x0,0x0,0x0,0x0
000a3c 0000
000a3d 0000
000a3e 0000
000a3f 0000      	.DB  0x0,0x0,0x0,0x0,0x0,0x0,0x0,0x0
000a40 0000
000a41 0000
000a42 0000
000a43 0000      	.DB  0x0,0x0,0x0,0x0,0x0,0x0,0x0,0x0
000a44 0000
000a45 0000
000a46 0000
000a47 0000      	.DB  0x0,0x0,0x0,0x0,0x0,0x0,0x0,0x0
000a48 0000
000a49 0000
000a4a 0000
000a4b 0000      	.DB  0x0,0x0,0x0,0x0,0x0,0x0,0x0,0x0
000a4c 0000
000a4d 0000
000a4e 0000
000a4f 0000      	.DB  0x0,0x0,0x0,0x0,0x0,0x0,0x0,0x0
000a50 0000
000a51 0000
000a52 0000
000a53 0000      	.DB  0x0,0x0,0x0,0x0,0x0,0x0,0x0,0x0
000a54 0000
000a55 0000
000a56 0000
000a57 0000      	.DB  0x0,0x0,0x0,0x0,0x0,0x0,0x0,0x0
000a58 0000
000a59 0000
000a5a 0000
000a5b 0000      	.DB  0x0,0x0,0x0,0x0,0x0,0x0,0x0,0x0
000a5c 0000
000a5d 0000
000a5e 0000
000a5f 0000      	.DB  0x0,0x0,0x0,0x0,0x0,0x0,0x0,0x0
000a60 0000
000a61 0000
000a62 0000
000a63 0000      	.DB  0x0,0x0,0x0,0x0,0x0,0x0,0x0,0x0
000a64 0000
000a65 0000
000a66 0000
000a67 0000      	.DB  0x0,0x0,0x0,0x0,0x0,0x0,0x0,0x0
000a68 0000
000a69 0000
000a6a 0000
000a6b 0000      	.DB  0x0,0x0,0x0,0x0,0x0,0x0,0x0,0x0
000a6c 0000
000a6d 0000
000a6e 0000
000a6f 0000      	.DB  0x0,0x0,0x0,0x0,0x0,0x0,0x0,0x0
000a70 0000
000a71 0000
000a72 0000
000a73 0000      	.DB  0x0,0x0,0x0,0x0,0x0,0x0,0x0,0x0
000a74 0000
000a75 0000
000a76 0000
000a77 0000      	.DB  0x0,0x0,0x0,0x0,0x0,0x0,0x0,0x0
000a78 0000
000a79 0000
000a7a 0000
000a7b 0000      	.DB  0x0,0x0,0x0,0x0,0x0,0x0,0x0,0x0
000a7c 0000
000a7d 0000
000a7e 0000
000a7f 0000      	.DB  0x0,0x0,0x0,0x0,0x0,0x0,0x0,0x0
000a80 0000
000a81 c000
000a82 10c0
000a83 1818      	.DB  0x0,0x0,0x0,0xC0,0xC0,0x10,0x18,0x18
000a84 1818
000a85 c000
000a86 00c0
000a87 0000      	.DB  0x18,0x18,0x0,0xC0,0xC0,0x0,0x0,0x0
000a88 c0c0
000a89 0000
000a8a c0c0
000a8b e020      	.DB  0xC0,0xC0,0x0,0x0,0xC0,0xC0,0x20,0xE0
000a8c 00e0
000a8d ff00
000a8e 00ff
000a8f 0000      	.DB  0xE0,0x0,0x0,0xFF,0xFF,0x0,0x0,0x0
000a90 0000
000a91 f0c0
000a92 e030
000a93 00c0      	.DB  0x0,0x0,0xC0,0xF0,0x30,0xE0,0xC0,0x0
000a94 8000
000a95 0080
000a96 f030
000a97 00c0      	.DB  0x0,0x80,0x80,0x0,0x30,0xF0,0xC0,0x0
000a98 0000
000a99 c0c0
000a9a 1c18
000a9b dcdc      	.DB  0x0,0x0,0xC0,0xC0,0x18,0x1C,0xDC,0xDC
000a9c c010
000a9d 00c0
000a9e 0400
000a9f e8ec      	.DB  0x10,0xC0,0xC0,0x0,0x0,0x4,0xEC,0xE8
000aa0 0000
000aa1 0000
000aa2 8000
000aa3 1090      	.DB  0x0,0x0,0x0,0x0,0x0,0x80,0x90,0x10
000aa4 f030
000aa5 00c0
000aa6 4000
000aa7 c0c0      	.DB  0x30,0xF0,0xC0,0x0,0x0,0x40,0xC0,0xC0
000aa8 0000
000aa9 ffff
000aaa 0000
000aab e0c0      	.DB  0x0,0x0,0xFF,0xFF,0x0,0x0,0xC0,0xE0
000aac c060
000aad 00c0
000aae 0000
000aaf 0000      	.DB  0x60,0xC0,0xC0,0x0,0x0,0x0,0x0,0x0
000ab0 0000
000ab1 0000
000ab2 0000
000ab3 0000      	.DB  0x0,0x0,0x0,0x0,0x0,0x0,0x0,0x0
000ab4 0000
000ab5 0000
000ab6 0000
000ab7 0000      	.DB  0x0,0x0,0x0,0x0,0x0,0x0,0x0,0x0
000ab8 0000
000ab9 0000
000aba 0000
000abb 0000      	.DB  0x0,0x0,0x0,0x0,0x0,0x0,0x0,0x0
000abc 0000
000abd 0000
000abe 0000
000abf 0300      	.DB  0x0,0x0,0x0,0x0,0x0,0x0,0x0,0x3
000ac0 0003
000ac1 0100
000ac2 0203
000ac3 0202      	.DB  0x3,0x0,0x0,0x1,0x3,0x2,0x2,0x2
000ac4 0202
000ac5 0303
000ac6 0203
000ac7 0202      	.DB  0x2,0x2,0x3,0x3,0x3,0x2,0x2,0x2
000ac8 0303
000ac9 0302
000aca 0303
000acb 0302      	.DB  0x3,0x3,0x2,0x3,0x3,0x3,0x2,0x3
000acc 0001
000acd 0300
000ace 0003
000acf 0000      	.DB  0x1,0x0,0x0,0x3,0x3,0x0,0x0,0x0
000ad0 0000
000ad1 0303
000ad2 0302
000ad3 0003      	.DB  0x0,0x0,0x3,0x3,0x2,0x3,0x3,0x0
000ad4 0300
000ad5 0203
000ad6 0302
000ad7 0203      	.DB  0x0,0x3,0x3,0x2,0x2,0x3,0x3,0x2
000ad8 0202
000ad9 0303
000ada 0302
000adb 0303      	.DB  0x2,0x2,0x3,0x3,0x2,0x3,0x3,0x3
000adc 0302
000add 0203
000ade 0202
000adf 0303      	.DB  0x2,0x3,0x3,0x2,0x2,0x2,0x3,0x3
000ae0 0000
000ae1 0000
000ae2 0300
000ae3 0203      	.DB  0x0,0x0,0x0,0x0,0x0,0x3,0x3,0x2
000ae4 0302
000ae5 1001
000ae6 1810
000ae7 0f1f      	.DB  0x2,0x3,0x1,0x10,0x10,0x18,0x1F,0xF
000ae8 0000
000ae9 0303
000aea 0000
000aeb 1313      	.DB  0x0,0x0,0x3,0x3,0x0,0x0,0x13,0x13
000aec 1f1a
000aed 000f
000aee 0000
000aef 0000      	.DB  0x1A,0x1F,0xF,0x0,0x0,0x0,0x0,0x0
000af0 0000
000af1 0000
000af2 0000
000af3 0000      	.DB  0x0,0x0,0x0,0x0,0x0,0x0,0x0,0x0
000af4 0000
000af5 0000
000af6 0000
000af7 0000      	.DB  0x0,0x0,0x0,0x0,0x0,0x0,0x0,0x0
000af8 0000
000af9 0000
000afa 0000
000afb 0000      	.DB  0x0,0x0,0x0,0x0,0x0,0x0,0x0,0x0
000afc 0000
000afd 0000
000afe 0000
000aff 0000      	.DB  0x0,0x0,0x0,0x0,0x0,0x0,0x0,0x0
000b00 0000
000b01 0000
000b02 0000
000b03 0000      	.DB  0x0,0x0,0x0,0x0,0x0,0x0,0x0,0x0
000b04 0000
000b05 0000
000b06 0000
000b07 0000      	.DB  0x0,0x0,0x0,0x0,0x0,0x0,0x0,0x0
000b08 0000
000b09 0000
000b0a 0000
000b0b 0000      	.DB  0x0,0x0,0x0,0x0,0x0,0x0,0x0,0x0
000b0c 0000
000b0d 0000
000b0e 0000
000b0f 0000      	.DB  0x0,0x0,0x0,0x0,0x0,0x0,0x0,0x0
000b10 0000
000b11 0000
000b12 0000
000b13 0000      	.DB  0x0,0x0,0x0,0x0,0x0,0x0,0x0,0x0
000b14 0000
000b15 0000
000b16 0000
000b17 0000      	.DB  0x0,0x0,0x0,0x0,0x0,0x0,0x0,0x0
000b18 0000
000b19 0000
000b1a 0000
000b1b 0000      	.DB  0x0,0x0,0x0,0x0,0x0,0x0,0x0,0x0
000b1c 0000
000b1d 0000
000b1e 0000
000b1f 0000      	.DB  0x0,0x0,0x0,0x0,0x0,0x0,0x0,0x0
000b20 0000
000b21 0000
000b22 0000
000b23 0000      	.DB  0x0,0x0,0x0,0x0,0x0,0x0,0x0,0x0
000b24 0000
000b25 0000
000b26 0000
000b27 0000      	.DB  0x0,0x0,0x0,0x0,0x0,0x0,0x0,0x0
000b28 0000
000b29 0000
000b2a 0000
000b2b 0000      	.DB  0x0,0x0,0x0,0x0,0x0,0x0,0x0,0x0
000b2c 0000
000b2d 0000
000b2e 0000
000b2f 0000      	.DB  0x0,0x0,0x0,0x0,0x0,0x0,0x0,0x0
000b30 0000
000b31 0000
000b32 0000
000b33 0000      	.DB  0x0,0x0,0x0,0x0,0x0,0x0,0x0,0x0
000b34 0000
000b35 0000
000b36 0000
000b37 0000      	.DB  0x0,0x0,0x0,0x0,0x0,0x0,0x0,0x0
                 _tedad_bish_az_had:
000b38 0000
000b39 0000
000b3a 0000
000b3b 0000      	.DB  0x0,0x0,0x0,0x0,0x0,0x0,0x0,0x0
000b3c 0000
000b3d 0000
000b3e 0000
000b3f 0000      	.DB  0x0,0x0,0x0,0x0,0x0,0x0,0x0,0x0
000b40 0000
000b41 0000
000b42 0000
000b43 0000      	.DB  0x0,0x0,0x0,0x0,0x0,0x0,0x0,0x0
000b44 0000
000b45 0000
000b46 0000
000b47 0000      	.DB  0x0,0x0,0x0,0x0,0x0,0x0,0x0,0x0
000b48 0000
000b49 0000
000b4a 0000
000b4b 0000      	.DB  0x0,0x0,0x0,0x0,0x0,0x0,0x0,0x0
000b4c 0000
000b4d 0000
000b4e 0000
000b4f 0000      	.DB  0x0,0x0,0x0,0x0,0x0,0x0,0x0,0x0
000b50 0000
000b51 0000
000b52 0000
000b53 0000      	.DB  0x0,0x0,0x0,0x0,0x0,0x0,0x0,0x0
000b54 0000
000b55 0000
000b56 0000
000b57 0000      	.DB  0x0,0x0,0x0,0x0,0x0,0x0,0x0,0x0
000b58 0000
000b59 0000
000b5a 0000
000b5b 0000      	.DB  0x0,0x0,0x0,0x0,0x0,0x0,0x0,0x0
000b5c 0000
000b5d 0000
000b5e 0000
000b5f 0000      	.DB  0x0,0x0,0x0,0x0,0x0,0x0,0x0,0x0
000b60 0000
000b61 0000
000b62 0000
000b63 0000      	.DB  0x0,0x0,0x0,0x0,0x0,0x0,0x0,0x0
000b64 0000
000b65 0000
000b66 0000
000b67 0000      	.DB  0x0,0x0,0x0,0x0,0x0,0x0,0x0,0x0
000b68 0000
000b69 0000
000b6a 0000
000b6b 0000      	.DB  0x0,0x0,0x0,0x0,0x0,0x0,0x0,0x0
000b6c 0000
000b6d 0000
000b6e 0000
000b6f 0000      	.DB  0x0,0x0,0x0,0x0,0x0,0x0,0x0,0x0
000b70 0000
000b71 0000
000b72 0000
000b73 0000      	.DB  0x0,0x0,0x0,0x0,0x0,0x0,0x0,0x0
000b74 0000
000b75 0000
000b76 0000
000b77 0000      	.DB  0x0,0x0,0x0,0x0,0x0,0x0,0x0,0x0
000b78 0000
000b79 0000
000b7a 0000
000b7b 0000      	.DB  0x0,0x0,0x0,0x0,0x0,0x0,0x0,0x0
000b7c 0000
000b7d 0000
000b7e 0000
000b7f 0000      	.DB  0x0,0x0,0x0,0x0,0x0,0x0,0x0,0x0
000b80 8080
000b81 3020
000b82 3030
000b83 0030      	.DB  0x80,0x80,0x20,0x30,0x30,0x30,0x30,0x0
000b84 8080
000b85 0000
000b86 8000
000b87 0080      	.DB  0x80,0x80,0x0,0x0,0x0,0x80,0x80,0x0
000b88 8000
000b89 4080
000b8a c0c0
000b8b 0000      	.DB  0x0,0x80,0x80,0x40,0xC0,0xC0,0x0,0x0
000b8c fefe
000b8d 0000
000b8e c080
000b8f 80c0      	.DB  0xFE,0xFE,0x0,0x0,0x80,0xC0,0xC0,0x80
000b90 0080
000b91 0000
000b92 ccc0
000b93 484c      	.DB  0x80,0x0,0x0,0x0,0xC0,0xCC,0x4C,0x48
000b94 c040
000b95 8080
000b96 0000
000b97 8080      	.DB  0x40,0xC0,0x80,0x80,0x0,0x0,0x80,0x80
000b98 0080
000b99 0000
000b9a 2020
000b9b e060      	.DB  0x80,0x0,0x0,0x0,0x20,0x20,0x60,0xE0
000b9c 0080
000b9d 0000
000b9e 0000
000b9f 2000      	.DB  0x80,0x0,0x0,0x0,0x0,0x0,0x0,0x20
000ba0 6020
000ba1 80e0
000ba2 0000
000ba3 fefe      	.DB  0x20,0x60,0xE0,0x80,0x0,0x0,0xFE,0xFE
000ba4 0000
000ba5 0000
000ba6 6000
000ba7 80e0      	.DB  0x0,0x0,0x0,0x0,0x0,0x60,0xE0,0x80
000ba8 0000
000ba9 c040
000baa 40c0
000bab c040      	.DB  0x0,0x0,0x40,0xC0,0xC0,0x40,0x40,0xC0
000bac 00c0
000bad 1808
000bae d8d8
000baf 0010      	.DB  0xC0,0x0,0x8,0x18,0xD8,0xD8,0x10,0x0
000bb0 0000
000bb1 0000
000bb2 0000
000bb3 0000      	.DB  0x0,0x0,0x0,0x0,0x0,0x0,0x0,0x0
000bb4 0000
000bb5 0000
000bb6 0000
000bb7 0000      	.DB  0x0,0x0,0x0,0x0,0x0,0x0,0x0,0x0
000bb8 0000
000bb9 0000
000bba 0000
000bbb 0000      	.DB  0x0,0x0,0x0,0x0,0x0,0x0,0x0,0x0
000bbc 0000
000bbd 0000
000bbe 0000
000bbf 0000      	.DB  0x0,0x0,0x0,0x0,0x0,0x0,0x0,0x0
000bc0 0703
000bc1 0404
000bc2 0404
000bc3 0604      	.DB  0x3,0x7,0x4,0x4,0x4,0x4,0x4,0x6
000bc4 0707
000bc5 0404
000bc6 0704
000bc7 0407      	.DB  0x7,0x7,0x4,0x4,0x4,0x7,0x7,0x4
000bc8 0706
000bc9 0407
000bca 0307
000bcb 0000      	.DB  0x6,0x7,0x7,0x4,0x7,0x3,0x0,0x0
000bcc 0707
000bcd 0000
000bce 2727
000bcf 3d24      	.DB  0x7,0x7,0x0,0x0,0x27,0x27,0x24,0x3D
000bd0 061f
000bd1 0404
000bd2 0505
000bd3 0606      	.DB  0x1F,0x6,0x4,0x4,0x5,0x5,0x6,0x6
000bd4 0103
000bd5 0000
000bd6 2020
000bd7 3f30      	.DB  0x3,0x1,0x0,0x0,0x20,0x20,0x30,0x3F
000bd8 001f
000bd9 0700
000bda 0407
000bdb 0704      	.DB  0x1F,0x0,0x0,0x7,0x7,0x4,0x4,0x7
000bdc 0003
000bdd 0000
000bde 0000
000bdf 0707      	.DB  0x3,0x0,0x0,0x0,0x0,0x0,0x7,0x7
000be0 0404
000be1 0307
000be2 0000
000be3 0707      	.DB  0x4,0x4,0x7,0x3,0x0,0x0,0x7,0x7
000be4 0000
000be5 0707
000be6 0404
000be7 0707      	.DB  0x0,0x0,0x7,0x7,0x4,0x4,0x7,0x7
000be8 0404
000be9 0504
000bea 0607
000beb 0507      	.DB  0x4,0x4,0x4,0x5,0x7,0x6,0x7,0x5
000bec 0404
000bed 0404
000bee 0707
000bef 0000      	.DB  0x4,0x4,0x4,0x4,0x7,0x7,0x0,0x0
000bf0 0000
000bf1 0000
000bf2 0000
000bf3 0000      	.DB  0x0,0x0,0x0,0x0,0x0,0x0,0x0,0x0
000bf4 0000
000bf5 0000
000bf6 0000
000bf7 0000      	.DB  0x0,0x0,0x0,0x0,0x0,0x0,0x0,0x0
000bf8 0000
000bf9 0000
000bfa 0000
000bfb 0000      	.DB  0x0,0x0,0x0,0x0,0x0,0x0,0x0,0x0
000bfc 0000
000bfd 0000
000bfe 0000
000bff 0000      	.DB  0x0,0x0,0x0,0x0,0x0,0x0,0x0,0x0
000c00 0000
000c01 0000
000c02 0000
000c03 0000      	.DB  0x0,0x0,0x0,0x0,0x0,0x0,0x0,0x0
000c04 0000
000c05 0000
000c06 0000
000c07 0000      	.DB  0x0,0x0,0x0,0x0,0x0,0x0,0x0,0x0
000c08 0000
000c09 0000
000c0a 0000
000c0b 0000      	.DB  0x0,0x0,0x0,0x0,0x0,0x0,0x0,0x0
000c0c 0000
000c0d 0000
000c0e 0000
000c0f 0000      	.DB  0x0,0x0,0x0,0x0,0x0,0x0,0x0,0x0
000c10 0000
000c11 0000
000c12 0000
000c13 0000      	.DB  0x0,0x0,0x0,0x0,0x0,0x0,0x0,0x0
000c14 0000
000c15 0000
000c16 0000
000c17 0000      	.DB  0x0,0x0,0x0,0x0,0x0,0x0,0x0,0x0
000c18 0000
000c19 0000
000c1a 0000
000c1b 0000      	.DB  0x0,0x0,0x0,0x0,0x0,0x0,0x0,0x0
000c1c 0000
000c1d 0000
000c1e 0000
000c1f 0000      	.DB  0x0,0x0,0x0,0x0,0x0,0x0,0x0,0x0
000c20 0000
000c21 0000
000c22 0000
000c23 0000      	.DB  0x0,0x0,0x0,0x0,0x0,0x0,0x0,0x0
000c24 0000
000c25 0000
000c26 0000
000c27 0000      	.DB  0x0,0x0,0x0,0x0,0x0,0x0,0x0,0x0
000c28 0000
000c29 0000
000c2a 0000
000c2b 0000      	.DB  0x0,0x0,0x0,0x0,0x0,0x0,0x0,0x0
000c2c 0000
000c2d 0000
000c2e 0000
000c2f 0000      	.DB  0x0,0x0,0x0,0x0,0x0,0x0,0x0,0x0
000c30 0000
000c31 0000
000c32 0000
000c33 0000      	.DB  0x0,0x0,0x0,0x0,0x0,0x0,0x0,0x0
000c34 0000
000c35 0000
000c36 0000
000c37 0000      	.DB  0x0,0x0,0x0,0x0,0x0,0x0,0x0,0x0
000c38 0000
000c39 0000
000c3a 0000
000c3b 0000      	.DB  0x0,0x0,0x0,0x0,0x0,0x0,0x0,0x0
000c3c 0000
000c3d 0000
000c3e 0000
000c3f 0000      	.DB  0x0,0x0,0x0,0x0,0x0,0x0,0x0,0x0
000c40 0000
000c41 0000
000c42 0000
000c43 b0b0      	.DB  0x0,0x0,0x0,0x0,0x0,0x0,0xB0,0xB0
000c44 00a0
000c45 fe00
000c46 00fe
000c47 c000      	.DB  0xA0,0x0,0x0,0xFE,0xFE,0x0,0x0,0xC0
000c48 40c0
000c49 4040
000c4a 80c0
000c4b 0080      	.DB  0xC0,0x40,0x40,0x40,0xC0,0x80,0x80,0x0
000c4c 0000
000c4d 8000
000c4e c0c0
000c4f 00c0      	.DB  0x0,0x0,0x0,0x80,0xC0,0xC0,0xC0,0x0
000c50 0000
000c51 0000
000c52 0000
000c53 6000      	.DB  0x0,0x0,0x0,0x0,0x0,0x0,0x0,0x60
000c54 80e0
000c55 0000
000c56 c0c0
000c57 4040      	.DB  0xE0,0x80,0x0,0x0,0xC0,0xC0,0x40,0x40
000c58 c040
000c59 8080
000c5a 0000
000c5b 0000      	.DB  0x40,0xC0,0x80,0x80,0x0,0x0,0x0,0x0
000c5c b000
000c5d a0b0
000c5e 0000
000c5f fefe      	.DB  0x0,0xB0,0xB0,0xA0,0x0,0x0,0xFE,0xFE
000c60 0000
000c61 0000
000c62 0000
000c63 0000      	.DB  0x0,0x0,0x0,0x0,0x0,0x0,0x0,0x0
000c64 0000
000c65 8000
000c66 2080
000c67 b838      	.DB  0x0,0x0,0x0,0x80,0x80,0x20,0x38,0xB8
000c68 30b8
000c69 8080
000c6a 0000
000c6b 0000      	.DB  0xB8,0x30,0x80,0x80,0x0,0x0,0x0,0x0
000c6c 8080
000c6d 0000
000c6e c000
000c6f 00c0      	.DB  0x80,0x80,0x0,0x0,0x0,0xC0,0xC0,0x0
000c70 0000
000c71 0000
000c72 0000
000c73 0000      	.DB  0x0,0x0,0x0,0x0,0x0,0x0,0x0,0x0
000c74 0000
000c75 0000
000c76 0000
000c77 0000      	.DB  0x0,0x0,0x0,0x0,0x0,0x0,0x0,0x0
000c78 0000
000c79 0000
000c7a 0000
000c7b 0000      	.DB  0x0,0x0,0x0,0x0,0x0,0x0,0x0,0x0
000c7c 0000
000c7d 0000
000c7e 0000
000c7f 0000      	.DB  0x0,0x0,0x0,0x0,0x0,0x0,0x0,0x0
000c80 0000
000c81 0000
000c82 2020
000c83 3f30      	.DB  0x0,0x0,0x0,0x0,0x20,0x20,0x30,0x3F
000c84 001f
000c85 0300
000c86 0407
000c87 0504      	.DB  0x1F,0x0,0x0,0x3,0x7,0x4,0x4,0x5
000c88 3605
000c89 2336
000c8a 0607
000c8b 0404      	.DB  0x5,0x36,0x36,0x23,0x7,0x6,0x4,0x4
000c8c 0604
000c8d 0703
000c8e 0706
000c8f 0007      	.DB  0x4,0x6,0x3,0x7,0x6,0x7,0x7,0x0
000c90 0000
000c91 0000
000c92 0707
000c93 0404      	.DB  0x0,0x0,0x0,0x0,0x7,0x7,0x4,0x4
000c94 0707
000c95 0404
000c96 0505
000c97 0606      	.DB  0x7,0x7,0x4,0x4,0x5,0x5,0x6,0x6
000c98 0103
000c99 0000
000c9a 0000
000c9b 2000      	.DB  0x3,0x1,0x0,0x0,0x0,0x0,0x0,0x20
000c9c 3020
000c9d 1f3f
000c9e 0000
000c9f 0707      	.DB  0x20,0x30,0x3F,0x1F,0x0,0x0,0x7,0x7
000ca0 0000
000ca1 0000
000ca2 3e00
000ca3 603e      	.DB  0x0,0x0,0x0,0x0,0x0,0x3E,0x3E,0x60
000ca4 6060
000ca5 3f20
000ca6 043f
000ca7 0704      	.DB  0x60,0x60,0x20,0x3F,0x3F,0x4,0x4,0x7
000ca8 0407
000ca9 0707
000caa 2404
000cab 3434      	.DB  0x7,0x4,0x7,0x7,0x4,0x24,0x34,0x34
000cac 3737
000cad 3404
000cae 2734
000caf 0007      	.DB  0x37,0x37,0x4,0x34,0x34,0x27,0x7,0x0
000cb0 0000
000cb1 0000
000cb2 0000
000cb3 0000      	.DB  0x0,0x0,0x0,0x0,0x0,0x0,0x0,0x0
000cb4 0000
000cb5 0000
000cb6 0000
000cb7 0000      	.DB  0x0,0x0,0x0,0x0,0x0,0x0,0x0,0x0
000cb8 0000
000cb9 0000
000cba 0000
000cbb 0000      	.DB  0x0,0x0,0x0,0x0,0x0,0x0,0x0,0x0
000cbc 0000
000cbd 0000
000cbe 0000
000cbf 0000      	.DB  0x0,0x0,0x0,0x0,0x0,0x0,0x0,0x0
000cc0 0000
000cc1 0000
000cc2 0000
000cc3 0000      	.DB  0x0,0x0,0x0,0x0,0x0,0x0,0x0,0x0
000cc4 0000
000cc5 0000
000cc6 0000
000cc7 0000      	.DB  0x0,0x0,0x0,0x0,0x0,0x0,0x0,0x0
000cc8 0000
000cc9 0000
000cca 0000
000ccb 0000      	.DB  0x0,0x0,0x0,0x0,0x0,0x0,0x0,0x0
000ccc 0000
000ccd 0000
000cce 0000
000ccf 0000      	.DB  0x0,0x0,0x0,0x0,0x0,0x0,0x0,0x0
000cd0 0000
000cd1 0000
000cd2 0000
000cd3 0000      	.DB  0x0,0x0,0x0,0x0,0x0,0x0,0x0,0x0
000cd4 0000
000cd5 0000
000cd6 0000
000cd7 0000      	.DB  0x0,0x0,0x0,0x0,0x0,0x0,0x0,0x0
000cd8 0000
000cd9 0000
000cda 0000
000cdb 0000      	.DB  0x0,0x0,0x0,0x0,0x0,0x0,0x0,0x0
000cdc 0000
000cdd 0000
000cde 0000
000cdf 0000      	.DB  0x0,0x0,0x0,0x0,0x0,0x0,0x0,0x0
000ce0 0000
000ce1 0000
000ce2 0000
000ce3 0000      	.DB  0x0,0x0,0x0,0x0,0x0,0x0,0x0,0x0
000ce4 0000
000ce5 0000
000ce6 0000
000ce7 0000      	.DB  0x0,0x0,0x0,0x0,0x0,0x0,0x0,0x0
000ce8 0000
000ce9 0000
000cea 0000
000ceb 0000      	.DB  0x0,0x0,0x0,0x0,0x0,0x0,0x0,0x0
000cec 0000
000ced 0000
000cee 0000
000cef 0000      	.DB  0x0,0x0,0x0,0x0,0x0,0x0,0x0,0x0
000cf0 0000
000cf1 0000
000cf2 0000
000cf3 0000      	.DB  0x0,0x0,0x0,0x0,0x0,0x0,0x0,0x0
000cf4 0000
000cf5 0000
000cf6 0000
000cf7 0000      	.DB  0x0,0x0,0x0,0x0,0x0,0x0,0x0,0x0
000cf8 0000
000cf9 0000
000cfa 0000
000cfb 0000      	.DB  0x0,0x0,0x0,0x0,0x0,0x0,0x0,0x0
000cfc 0000
000cfd 0000
000cfe 0000
000cff 0000      	.DB  0x0,0x0,0x0,0x0,0x0,0x0,0x0,0x0
000d00 0000
000d01 0000
000d02 0000
000d03 0000      	.DB  0x0,0x0,0x0,0x0,0x0,0x0,0x0,0x0
000d04 0000
000d05 0000
000d06 0000
000d07 0000      	.DB  0x0,0x0,0x0,0x0,0x0,0x0,0x0,0x0
000d08 0000
000d09 0000
000d0a 0000
000d0b 0000      	.DB  0x0,0x0,0x0,0x0,0x0,0x0,0x0,0x0
000d0c 0000
000d0d 0000
000d0e 0000
000d0f 0000      	.DB  0x0,0x0,0x0,0x0,0x0,0x0,0x0,0x0
000d10 0000
000d11 0000
000d12 0000
000d13 0000      	.DB  0x0,0x0,0x0,0x0,0x0,0x0,0x0,0x0
000d14 0000
000d15 0000
000d16 0000
000d17 0000      	.DB  0x0,0x0,0x0,0x0,0x0,0x0,0x0,0x0
000d18 0000
000d19 0000
000d1a 0000
000d1b 0000      	.DB  0x0,0x0,0x0,0x0,0x0,0x0,0x0,0x0
000d1c 0000
000d1d 0000
000d1e 0000
000d1f 0000      	.DB  0x0,0x0,0x0,0x0,0x0,0x0,0x0,0x0
000d20 0000
000d21 0000
000d22 0000
000d23 0000      	.DB  0x0,0x0,0x0,0x0,0x0,0x0,0x0,0x0
000d24 0000
000d25 0000
000d26 0000
000d27 0000      	.DB  0x0,0x0,0x0,0x0,0x0,0x0,0x0,0x0
000d28 0000
000d29 0000
000d2a 0000
000d2b 0000      	.DB  0x0,0x0,0x0,0x0,0x0,0x0,0x0,0x0
000d2c 0000
000d2d 0000
000d2e 0000
000d2f 0000      	.DB  0x0,0x0,0x0,0x0,0x0,0x0,0x0,0x0
000d30 0000
000d31 0000
000d32 0000
000d33 0000      	.DB  0x0,0x0,0x0,0x0,0x0,0x0,0x0,0x0
000d34 0000
000d35 0000
000d36 0000
000d37 0000      	.DB  0x0,0x0,0x0,0x0,0x0,0x0,0x0,0x0
                 _square:
000d38 0000
000d39 0000
000d3a 0000
000d3b 0000      	.DB  0x0,0x0,0x0,0x0,0x0,0x0,0x0,0x0
000d3c 0000
000d3d 0000
000d3e 0000
000d3f 0000      	.DB  0x0,0x0,0x0,0x0,0x0,0x0,0x0,0x0
000d40 0000
000d41 0000
000d42 0000
000d43 0000      	.DB  0x0,0x0,0x0,0x0,0x0,0x0,0x0,0x0
000d44 0000
000d45 0000
000d46 0000
000d47 0000      	.DB  0x0,0x0,0x0,0x0,0x0,0x0,0x0,0x0
000d48 0000
000d49 0000
000d4a 0000
000d4b 0000      	.DB  0x0,0x0,0x0,0x0,0x0,0x0,0x0,0x0
000d4c 0000
000d4d f800
000d4e f8f8
000d4f 3838      	.DB  0x0,0x0,0x0,0xF8,0xF8,0xF8,0x38,0x38
000d50 3838
000d51 3838
000d52 3838
000d53 3838      	.DB  0x38,0x38,0x38,0x38,0x38,0x38,0x38,0x38
000d54 3838
000d55 3838
000d56 3838
000d57 3838      	.DB  0x38,0x38,0x38,0x38,0x38,0x38,0x38,0x38
000d58 3838
000d59 3838
000d5a 3838
000d5b 3838      	.DB  0x38,0x38,0x38,0x38,0x38,0x38,0x38,0x38
000d5c 3838
000d5d 3838
000d5e 3838
000d5f 3838      	.DB  0x38,0x38,0x38,0x38,0x38,0x38,0x38,0x38
000d60 3838
000d61 f838
000d62 f8f8
000d63 0000      	.DB  0x38,0x38,0x38,0xF8,0xF8,0xF8,0x0,0x0
000d64 0000
000d65 0000
000d66 0000
000d67 0000      	.DB  0x0,0x0,0x0,0x0,0x0,0x0,0x0,0x0
000d68 0000
000d69 0000
000d6a 0000
000d6b 0000      	.DB  0x0,0x0,0x0,0x0,0x0,0x0,0x0,0x0
000d6c 0000
000d6d 0000
000d6e 0000
000d6f 0000      	.DB  0x0,0x0,0x0,0x0,0x0,0x0,0x0,0x0
000d70 0000
000d71 0000
000d72 0000
000d73 0000      	.DB  0x0,0x0,0x0,0x0,0x0,0x0,0x0,0x0
000d74 0000
000d75 0000
000d76 0000
000d77 0000      	.DB  0x0,0x0,0x0,0x0,0x0,0x0,0x0,0x0
000d78 0000
000d79 0000
000d7a 0000
000d7b 0000      	.DB  0x0,0x0,0x0,0x0,0x0,0x0,0x0,0x0
000d7c 0000
000d7d 0000
000d7e 0000
000d7f 0000      	.DB  0x0,0x0,0x0,0x0,0x0,0x0,0x0,0x0
000d80 0000
000d81 0000
000d82 0000
000d83 0000      	.DB  0x0,0x0,0x0,0x0,0x0,0x0,0x0,0x0
000d84 0000
000d85 0000
000d86 0000
000d87 0000      	.DB  0x0,0x0,0x0,0x0,0x0,0x0,0x0,0x0
000d88 0000
000d89 0000
000d8a 0000
000d8b 0000      	.DB  0x0,0x0,0x0,0x0,0x0,0x0,0x0,0x0
000d8c 0000
000d8d ff00
000d8e ffff
000d8f 0000      	.DB  0x0,0x0,0x0,0xFF,0xFF,0xFF,0x0,0x0
000d90 0000
000d91 0000
000d92 0000
000d93 0000      	.DB  0x0,0x0,0x0,0x0,0x0,0x0,0x0,0x0
000d94 0000
000d95 0000
000d96 0000
000d97 0000      	.DB  0x0,0x0,0x0,0x0,0x0,0x0,0x0,0x0
000d98 0000
000d99 0000
000d9a 0000
000d9b 0000      	.DB  0x0,0x0,0x0,0x0,0x0,0x0,0x0,0x0
000d9c 0000
000d9d 0000
000d9e 0000
000d9f 0000      	.DB  0x0,0x0,0x0,0x0,0x0,0x0,0x0,0x0
000da0 0000
000da1 ff00
000da2 ffff
000da3 0000      	.DB  0x0,0x0,0x0,0xFF,0xFF,0xFF,0x0,0x0
000da4 0000
000da5 0000
000da6 0000
000da7 0000      	.DB  0x0,0x0,0x0,0x0,0x0,0x0,0x0,0x0
000da8 0000
000da9 0000
000daa 0000
000dab 0000      	.DB  0x0,0x0,0x0,0x0,0x0,0x0,0x0,0x0
000dac 0000
000dad 0000
000dae 0000
000daf 0000      	.DB  0x0,0x0,0x0,0x0,0x0,0x0,0x0,0x0
000db0 0000
000db1 0000
000db2 0000
000db3 0000      	.DB  0x0,0x0,0x0,0x0,0x0,0x0,0x0,0x0
000db4 0000
000db5 0000
000db6 0000
000db7 0000      	.DB  0x0,0x0,0x0,0x0,0x0,0x0,0x0,0x0
000db8 0000
000db9 0000
000dba 0000
000dbb 0000      	.DB  0x0,0x0,0x0,0x0,0x0,0x0,0x0,0x0
000dbc 0000
000dbd 0000
000dbe 0000
000dbf 0000      	.DB  0x0,0x0,0x0,0x0,0x0,0x0,0x0,0x0
000dc0 0000
000dc1 0000
000dc2 0000
000dc3 0000      	.DB  0x0,0x0,0x0,0x0,0x0,0x0,0x0,0x0
000dc4 0000
000dc5 0000
000dc6 0000
000dc7 0000      	.DB  0x0,0x0,0x0,0x0,0x0,0x0,0x0,0x0
000dc8 0000
000dc9 0000
000dca 0000
000dcb 0000      	.DB  0x0,0x0,0x0,0x0,0x0,0x0,0x0,0x0
000dcc 0000
000dcd ff00
000dce ffff
000dcf 0000      	.DB  0x0,0x0,0x0,0xFF,0xFF,0xFF,0x0,0x0
000dd0 0000
000dd1 0000
000dd2 0000
000dd3 0000      	.DB  0x0,0x0,0x0,0x0,0x0,0x0,0x0,0x0
000dd4 0000
000dd5 0000
000dd6 0000
000dd7 0000      	.DB  0x0,0x0,0x0,0x0,0x0,0x0,0x0,0x0
000dd8 0000
000dd9 0000
000dda 0000
000ddb 0000      	.DB  0x0,0x0,0x0,0x0,0x0,0x0,0x0,0x0
000ddc 0000
000ddd 0000
000dde 0000
000ddf 0000      	.DB  0x0,0x0,0x0,0x0,0x0,0x0,0x0,0x0
000de0 0000
000de1 ff00
000de2 ffff
000de3 0000      	.DB  0x0,0x0,0x0,0xFF,0xFF,0xFF,0x0,0x0
000de4 0000
000de5 0000
000de6 0000
000de7 0000      	.DB  0x0,0x0,0x0,0x0,0x0,0x0,0x0,0x0
000de8 0000
000de9 0000
000dea 0000
000deb 0000      	.DB  0x0,0x0,0x0,0x0,0x0,0x0,0x0,0x0
000dec 0000
000ded 0000
000dee 0000
000def 0000      	.DB  0x0,0x0,0x0,0x0,0x0,0x0,0x0,0x0
000df0 0000
000df1 0000
000df2 0000
000df3 0000      	.DB  0x0,0x0,0x0,0x0,0x0,0x0,0x0,0x0
000df4 0000
000df5 0000
000df6 0000
000df7 0000      	.DB  0x0,0x0,0x0,0x0,0x0,0x0,0x0,0x0
000df8 0000
000df9 0000
000dfa 0000
000dfb 0000      	.DB  0x0,0x0,0x0,0x0,0x0,0x0,0x0,0x0
000dfc 0000
000dfd 0000
000dfe 0000
000dff 0000      	.DB  0x0,0x0,0x0,0x0,0x0,0x0,0x0,0x0
000e00 0000
000e01 0000
000e02 0000
000e03 0000      	.DB  0x0,0x0,0x0,0x0,0x0,0x0,0x0,0x0
000e04 0000
000e05 0000
000e06 0000
000e07 0000      	.DB  0x0,0x0,0x0,0x0,0x0,0x0,0x0,0x0
000e08 0000
000e09 0000
000e0a 0000
000e0b 0000      	.DB  0x0,0x0,0x0,0x0,0x0,0x0,0x0,0x0
000e0c 0000
000e0d 0f00
000e0e 0f0f
000e0f 0e0e      	.DB  0x0,0x0,0x0,0xF,0xF,0xF,0xE,0xE
000e10 0e0e
000e11 0e0e
000e12 0e0e
000e13 0e0e      	.DB  0xE,0xE,0xE,0xE,0xE,0xE,0xE,0xE
000e14 0e0e
000e15 0e0e
000e16 0e0e
000e17 0e0e      	.DB  0xE,0xE,0xE,0xE,0xE,0xE,0xE,0xE
000e18 0e0e
000e19 0e0e
000e1a 0e0e
000e1b 0e0e      	.DB  0xE,0xE,0xE,0xE,0xE,0xE,0xE,0xE
000e1c 0e0e
000e1d 0e0e
000e1e 0e0e
000e1f 0e0e      	.DB  0xE,0xE,0xE,0xE,0xE,0xE,0xE,0xE
000e20 0e0e
000e21 0f0e
000e22 0f0f
000e23 0000      	.DB  0xE,0xE,0xE,0xF,0xF,0xF,0x0,0x0
000e24 0000
000e25 0000
000e26 0000
000e27 0000      	.DB  0x0,0x0,0x0,0x0,0x0,0x0,0x0,0x0
000e28 0000
000e29 0000
000e2a 0000
000e2b 0000      	.DB  0x0,0x0,0x0,0x0,0x0,0x0,0x0,0x0
000e2c 0000
000e2d 0000
000e2e 0000
000e2f 0000      	.DB  0x0,0x0,0x0,0x0,0x0,0x0,0x0,0x0
000e30 0000
000e31 0000
000e32 0000
000e33 0000      	.DB  0x0,0x0,0x0,0x0,0x0,0x0,0x0,0x0
000e34 0000
000e35 0000
000e36 0000
000e37 0000      	.DB  0x0,0x0,0x0,0x0,0x0,0x0,0x0,0x0
                 _APN:
000e38 636d
000e39 6e69
000e3a 7465
D:\project\vending\code\full\glcd_keypad_sim\Debug\List\glcd_keypad_sim.asm(2039): warning: .cseg .db misalignment - padding zero byte
000e3b 0000      	.DB  0x6D,0x63,0x69,0x6E,0x65,0x74,0x0
                 __glcd_mask:
000e3c 0100
000e3d 0703
000e3e 1f0f
000e3f 7f3f      	.DB  0x0,0x1,0x3,0x7,0xF,0x1F,0x3F,0x7F
D:\project\vending\code\full\glcd_keypad_sim\Debug\List\glcd_keypad_sim.asm(2042): warning: .cseg .db misalignment - padding zero byte
000e40 00ff      	.DB  0xFF
                 _tbl10_G103:
000e41 2710
000e42 03e8
000e43 0064
000e44 000a      	.DB  0x10,0x27,0xE8,0x3,0x64,0x0,0xA,0x0
000e45 0001      	.DB  0x1,0x0
                 _tbl16_G103:
000e46 1000
000e47 0100
000e48 0010
000e49 0001      	.DB  0x0,0x10,0x0,0x1,0x10,0x0,0x1,0x0
                 
                 ;REGISTER BIT VARIABLES INITIALIZATION
                 __REG_BIT_VARS:
000e4a 0000      	.DW  0x0000
                 
                 ;GLOBAL REGISTER VARIABLES INITIALIZATION
                 __REG_VARS:
000e4b 0000
000e4c 0000      	.DB  0x0,0x0,0x0,0x0
                 
                 _0x0:
000e4d 5441
000e4e 482b
000e4f 5454
000e50 4950      	.DB  0x41,0x54,0x2B,0x48,0x54,0x54,0x50,0x49
000e51 494e
000e52 0054
000e53 4b4f
000e54 4100      	.DB  0x4E,0x49,0x54,0x0,0x4F,0x4B,0x0,0x41
000e55 2b54
000e56 5448
000e57 5054
000e58 4554      	.DB  0x54,0x2B,0x48,0x54,0x54,0x50,0x54,0x45
000e59 4d52
000e5a 4100
000e5b 2b54
000e5c 5448      	.DB  0x52,0x4D,0x0,0x41,0x54,0x2B,0x48,0x54
000e5d 5054
000e5e 4150
000e5f 4152
000e60 223d      	.DB  0x54,0x50,0x50,0x41,0x52,0x41,0x3D,0x22
000e61 4943
000e62 2244
000e63 312c
000e64 2500      	.DB  0x43,0x49,0x44,0x22,0x2C,0x31,0x0,0x25
000e65 3f73
000e66 6870
000e67 6e6f
000e68 5f65      	.DB  0x73,0x3F,0x70,0x68,0x6F,0x6E,0x65,0x5F
000e69 756e
000e6a 626d
000e6b 7265
000e6c 253d      	.DB  0x6E,0x75,0x6D,0x62,0x65,0x72,0x3D,0x25
000e6d 0073
000e6e 5441
000e6f 482b
000e70 5454      	.DB  0x73,0x0,0x41,0x54,0x2B,0x48,0x54,0x54
000e71 5050
000e72 5241
000e73 3d41
000e74 5522      	.DB  0x50,0x50,0x41,0x52,0x41,0x3D,0x22,0x55
000e75 4c52
000e76 2c22
000e77 2522
000e78 2273      	.DB  0x52,0x4C,0x22,0x2C,0x22,0x25,0x73,0x22
000e79 4100
000e7a 2b54
000e7b 5448
000e7c 5054      	.DB  0x0,0x41,0x54,0x2B,0x48,0x54,0x54,0x50
000e7d 4341
000e7e 4954
000e7f 4e4f
000e80 313d      	.DB  0x41,0x43,0x54,0x49,0x4F,0x4E,0x3D,0x31
000e81 2b00
000e82 5448
000e83 5054
000e84 4341      	.DB  0x0,0x2B,0x48,0x54,0x54,0x50,0x41,0x43
000e85 4954
000e86 4e4f
000e87 003a
000e88 6f4e      	.DB  0x54,0x49,0x4F,0x4E,0x3A,0x0,0x4E,0x6F
000e89 4120
000e8a 7463
000e8b 6f69
000e8c 206e      	.DB  0x20,0x41,0x63,0x74,0x69,0x6F,0x6E,0x20
000e8d 6552
000e8e 7073
000e8f 2b00
000e90 5448      	.DB  0x52,0x65,0x73,0x70,0x0,0x2B,0x48,0x54
000e91 5054
000e92 4341
000e93 4954
000e94 4e4f      	.DB  0x54,0x50,0x41,0x43,0x54,0x49,0x4F,0x4E
000e95 203a
000e96 6425
000e97 252c
000e98 2c64      	.DB  0x3A,0x20,0x25,0x64,0x2C,0x25,0x64,0x2C
000e99 6425
000e9a 4100
000e9b 2b54
000e9c 5448      	.DB  0x25,0x64,0x0,0x41,0x54,0x2B,0x48,0x54
000e9d 5054
000e9e 4552
000e9f 4441
000ea0 6800      	.DB  0x54,0x50,0x52,0x45,0x41,0x44,0x0,0x68
000ea1 7474
000ea2 3a70
000ea3 2f2f
000ea4 3931      	.DB  0x74,0x74,0x70,0x3A,0x2F,0x2F,0x31,0x39
000ea5 2e33
000ea6 2e35
000ea7 3434
000ea8 312e      	.DB  0x33,0x2E,0x35,0x2E,0x34,0x34,0x2E,0x31
000ea9 3139
000eaa 682f
000eab 6d6f
000eac 2f65      	.DB  0x39,0x31,0x2F,0x68,0x6F,0x6D,0x65,0x2F
000ead 6f70
000eae 7473
000eaf 002f
000eb0 6e75      	.DB  0x70,0x6F,0x73,0x74,0x2F,0x0,0x75,0x6E
000eb1 6e6b
000eb2 776f
000eb3 006e
000eb4 4d53      	.DB  0x6B,0x6E,0x6F,0x77,0x6E,0x0,0x53,0x4D
000eb5 2053
000eb6 7266
000eb7 6d6f
000eb8 003a      	.DB  0x53,0x20,0x66,0x72,0x6F,0x6D,0x3A,0x0
000eb9 6954
000eba 656d
000ebb 756f
000ebc 2174      	.DB  0x54,0x69,0x6D,0x65,0x6F,0x75,0x74,0x21
000ebd 5420
000ebe 7972
000ebf 6120
000ec0 6167      	.DB  0x20,0x54,0x72,0x79,0x20,0x61,0x67,0x61
000ec1 6e69
000ec2 002e
000ec3 432b
000ec4 544d      	.DB  0x69,0x6E,0x2E,0x0,0x2B,0x43,0x4D,0x54
000ec5 003a
000ec6 6f4d
000ec7 7564
000ec8 656c      	.DB  0x3A,0x0,0x4D,0x6F,0x64,0x75,0x6C,0x65
000ec9 4920
000eca 696e
000ecb 2e74
000ecc 2e2e      	.DB  0x20,0x49,0x6E,0x69,0x74,0x2E,0x2E,0x2E
000ecd 5300
000ece 534d
000ecf 4920
000ed0 696e      	.DB  0x0,0x53,0x4D,0x53,0x20,0x49,0x6E,0x69
000ed1 2074
000ed2 6146
000ed3 6c69
000ed4 6465      	.DB  0x74,0x20,0x46,0x61,0x69,0x6C,0x65,0x64
000ed5 0021
000ed6 5047
000ed7 5352
000ed8 4920      	.DB  0x21,0x0,0x47,0x50,0x52,0x53,0x20,0x49
000ed9 696e
000eda 2074
000edb 6146
000edc 6c69      	.DB  0x6E,0x69,0x74,0x20,0x46,0x61,0x69,0x6C
000edd 6465
000ede 0021      	.DB  0x65,0x64,0x21,0x0
                 _0x20000:
000edf 7325
000ee0 0a0d
D:\project\vending\code\full\glcd_keypad_sim\Debug\List\glcd_keypad_sim.asm(2096): warning: .cseg .db misalignment - padding zero byte
000ee1 0000      	.DB  0x25,0x73,0xD,0xA,0x0
                 _0x40003:
000ee2 3231
000ee3 3433
000ee4 3635
000ee5 3837      	.DB  0x31,0x32,0x33,0x34,0x35,0x36,0x37,0x38
000ee6 2a39
000ee7 2330
000ee8 0507
000ee9 0406      	.DB  0x39,0x2A,0x30,0x23,0x7,0x5,0x6,0x4
000eea 0100
D:\project\vending\code\full\glcd_keypad_sim\Debug\List\glcd_keypad_sim.asm(2100): warning: .cseg .db misalignment - padding zero byte
000eeb 0002      	.DB  0x0,0x1,0x2
                 _0x60000:
000eec 4f4d
000eed 4f54
000eee 2052
000eef 6425      	.DB  0x4D,0x4F,0x54,0x4F,0x52,0x20,0x25,0x64
000ef0 4f20
000ef1 214e
D:\project\vending\code\full\glcd_keypad_sim\Debug\List\glcd_keypad_sim.asm(2103): warning: .cseg .db misalignment - padding zero byte
000ef2 0000      	.DB  0x20,0x4F,0x4E,0x21,0x0
                 _0x80000:
000ef3 6552
000ef4 7473
000ef5 7261
000ef6 6974      	.DB  0x52,0x65,0x73,0x74,0x61,0x72,0x74,0x69
000ef7 676e
000ef8 5320
000ef9 4d49
000efa 3038      	.DB  0x6E,0x67,0x20,0x53,0x49,0x4D,0x38,0x30
000efb 2e30
000efc 2e2e
000efd 4100
000efe 2b54      	.DB  0x30,0x2E,0x2E,0x2E,0x0,0x41,0x54,0x2B
000eff 4153
000f00 4250
000f01 3d52
000f02 2c32      	.DB  0x53,0x41,0x50,0x42,0x52,0x3D,0x32,0x2C
000f03 0031
000f04 5441
000f05 432b
000f06 4147      	.DB  0x31,0x0,0x41,0x54,0x2B,0x43,0x47,0x41
000f07 5454
000f08 303d
000f09 4100
000f0a 2b54      	.DB  0x54,0x54,0x3D,0x30,0x0,0x41,0x54,0x2B
000f0b 4743
000f0c 5441
000f0d 3d54
000f0e 0031      	.DB  0x43,0x47,0x41,0x54,0x54,0x3D,0x31,0x0
000f0f 5441
000f10 432b
000f11 4552
000f12 4553      	.DB  0x41,0x54,0x2B,0x43,0x52,0x45,0x53,0x45
000f13 0054
000f14 5441
000f15 432b
000f16 5546      	.DB  0x54,0x0,0x41,0x54,0x2B,0x43,0x46,0x55
000f17 3d4e
000f18 0030
000f19 5441
000f1a 432b      	.DB  0x4E,0x3D,0x30,0x0,0x41,0x54,0x2B,0x43
000f1b 5546
000f1c 3d4e
000f1d 0031
000f1e 5441      	.DB  0x46,0x55,0x4E,0x3D,0x31,0x0,0x41,0x54
000f1f 3045
000f20 4100
000f21 0054
000f22 4b4f      	.DB  0x45,0x30,0x0,0x41,0x54,0x0,0x4F,0x4B
000f23 5300
000f24 4d49
000f25 3038
000f26 2030      	.DB  0x0,0x53,0x49,0x4D,0x38,0x30,0x30,0x20
000f27 6f6e
000f28 2074
000f29 6572
000f2a 7073      	.DB  0x6E,0x6F,0x74,0x20,0x72,0x65,0x73,0x70
000f2b 6e6f
000f2c 6964
000f2d 676e
000f2e 0021      	.DB  0x6F,0x6E,0x64,0x69,0x6E,0x67,0x21,0x0
000f2f 5441
000f30 432b
000f31 4950
000f32 3f4e      	.DB  0x41,0x54,0x2B,0x43,0x50,0x49,0x4E,0x3F
000f33 4300
000f34 4950
000f35 004e
000f36 5441      	.DB  0x0,0x43,0x50,0x49,0x4E,0x0,0x41,0x54
000f37 432b
000f38 4552
000f39 3f47
000f3a 4300      	.DB  0x2B,0x43,0x52,0x45,0x47,0x3F,0x0,0x43
000f3b 4552
000f3c 0047
000f3d 432b
000f3e 4552      	.DB  0x52,0x45,0x47,0x0,0x2B,0x43,0x52,0x45
000f3f 3a47
000f40 5700
000f41 6961
000f42 6974      	.DB  0x47,0x3A,0x0,0x57,0x61,0x69,0x74,0x69
000f43 676e
000f44 6620
000f45 726f
000f46 6e20      	.DB  0x6E,0x67,0x20,0x66,0x6F,0x72,0x20,0x6E
000f47 7465
000f48 6f77
000f49 6b72
000f4a 2e2e      	.DB  0x65,0x74,0x77,0x6F,0x72,0x6B,0x2E,0x2E
000f4b 002e
000f4c 654e
000f4d 7774
000f4e 726f      	.DB  0x2E,0x0,0x4E,0x65,0x74,0x77,0x6F,0x72
000f4f 206b
000f50 4b4f
000f51 0021
000f52 5441      	.DB  0x6B,0x20,0x4F,0x4B,0x21,0x0,0x41,0x54
000f53 432b
000f54 5153
000f55 2b00
000f56 5343      	.DB  0x2B,0x43,0x53,0x51,0x0,0x2B,0x43,0x53
000f57 3a51
000f58 4e00
000f59 206f
000f5a 6973      	.DB  0x51,0x3A,0x0,0x4E,0x6F,0x20,0x73,0x69
000f5b 6e67
000f5c 6c61
000f5d 6120
000f5e 7466      	.DB  0x67,0x6E,0x61,0x6C,0x20,0x61,0x66,0x74
000f5f 7265
000f60 2520
000f61 2064
000f62 6572      	.DB  0x65,0x72,0x20,0x25,0x64,0x20,0x72,0x65
000f63 7274
000f64 6569
000f65 2173
000f66 000a      	.DB  0x74,0x72,0x69,0x65,0x73,0x21,0xA,0x0
000f67 6553
000f68 7474
000f69 6e69
000f6a 2067      	.DB  0x53,0x65,0x74,0x74,0x69,0x6E,0x67,0x20
000f6b 4d53
000f6c 2053
000f6d 6f4d
000f6e 6564      	.DB  0x53,0x4D,0x53,0x20,0x4D,0x6F,0x64,0x65
000f6f 2e2e
000f70 002e
000f71 5441
000f72 432b      	.DB  0x2E,0x2E,0x2E,0x0,0x41,0x54,0x2B,0x43
000f73 4353
000f74 4b4c
000f75 303d
000f76 4100      	.DB  0x53,0x43,0x4C,0x4B,0x3D,0x30,0x0,0x41
000f77 2b54
000f78 4d43
000f79 4647
000f7a 313d      	.DB  0x54,0x2B,0x43,0x4D,0x47,0x46,0x3D,0x31
000f7b 4100
000f7c 2b54
000f7d 4e43
000f7e 494d      	.DB  0x0,0x41,0x54,0x2B,0x43,0x4E,0x4D,0x49
000f7f 323d
000f80 322c
000f81 302c
000f82 302c      	.DB  0x3D,0x32,0x2C,0x32,0x2C,0x30,0x2C,0x30
000f83 302c
000f84 4100
000f85 2b54
000f86 4d43      	.DB  0x2C,0x30,0x0,0x41,0x54,0x2B,0x43,0x4D
000f87 4447
000f88 3d41
000f89 4422
000f8a 4c45      	.DB  0x47,0x44,0x41,0x3D,0x22,0x44,0x45,0x4C
000f8b 4120
000f8c 4c4c
000f8d 0022
000f8e 4d53      	.DB  0x20,0x41,0x4C,0x4C,0x22,0x0,0x53,0x4D
000f8f 2053
000f90 6552
000f91 6461
000f92 2e79      	.DB  0x53,0x20,0x52,0x65,0x61,0x64,0x79,0x2E
000f93 4300
000f94 6e6f
000f95 656e
000f96 7463      	.DB  0x0,0x43,0x6F,0x6E,0x6E,0x65,0x63,0x74
000f97 6e69
000f98 2067
000f99 6f74
000f9a 4720      	.DB  0x69,0x6E,0x67,0x20,0x74,0x6F,0x20,0x47
000f9b 5250
000f9c 2e53
000f9d 2e2e
000f9e 4100      	.DB  0x50,0x52,0x53,0x2E,0x2E,0x2E,0x0,0x41
000f9f 2b54
000fa0 4153
000fa1 4250
000fa2 3d52      	.DB  0x54,0x2B,0x53,0x41,0x50,0x42,0x52,0x3D
000fa3 2c33
000fa4 2c31
000fa5 4322
000fa6 6e6f      	.DB  0x33,0x2C,0x31,0x2C,0x22,0x43,0x6F,0x6E
000fa7 7974
000fa8 6570
000fa9 2c22
000faa 4722      	.DB  0x74,0x79,0x70,0x65,0x22,0x2C,0x22,0x47
000fab 5250
000fac 2253
000fad 4100
000fae 2b54      	.DB  0x50,0x52,0x53,0x22,0x0,0x41,0x54,0x2B
000faf 4153
000fb0 4250
000fb1 3d52
000fb2 2c33      	.DB  0x53,0x41,0x50,0x42,0x52,0x3D,0x33,0x2C
000fb3 2c31
000fb4 4122
000fb5 4e50
000fb6 2c22      	.DB  0x31,0x2C,0x22,0x41,0x50,0x4E,0x22,0x2C
000fb7 2522
000fb8 2273
000fb9 4100
000fba 2b54      	.DB  0x22,0x25,0x73,0x22,0x0,0x41,0x54,0x2B
000fbb 4153
000fbc 4250
000fbd 3d52
000fbe 2c31      	.DB  0x53,0x41,0x50,0x42,0x52,0x3D,0x31,0x2C
000fbf 0031
000fc0 6546
000fc1 6374
000fc2 6968      	.DB  0x31,0x0,0x46,0x65,0x74,0x63,0x68,0x69
000fc3 676e
000fc4 4920
000fc5 2e50
000fc6 2e2e      	.DB  0x6E,0x67,0x20,0x49,0x50,0x2E,0x2E,0x2E
000fc7 5300
000fc8 5041
000fc9 5242
000fca 4300      	.DB  0x0,0x53,0x41,0x50,0x42,0x52,0x0,0x43
000fcb 6568
000fcc 6b63
000fcd 6e69
000fce 2067      	.DB  0x68,0x65,0x63,0x6B,0x69,0x6E,0x67,0x20
000fcf 6e49
000fd0 6574
000fd1 6e72
000fd2 7465      	.DB  0x49,0x6E,0x74,0x65,0x72,0x6E,0x65,0x74
000fd3 2e2e
000fd4 002e
000fd5 5441
000fd6 482b      	.DB  0x2E,0x2E,0x2E,0x0,0x41,0x54,0x2B,0x48
000fd7 5454
000fd8 4950
000fd9 494e
000fda 0054      	.DB  0x54,0x54,0x50,0x49,0x4E,0x49,0x54,0x0
000fdb 5441
000fdc 482b
000fdd 5454
000fde 5050      	.DB  0x41,0x54,0x2B,0x48,0x54,0x54,0x50,0x50
000fdf 5241
000fe0 3d41
000fe1 4322
000fe2 4449      	.DB  0x41,0x52,0x41,0x3D,0x22,0x43,0x49,0x44
000fe3 2c22
000fe4 0031
000fe5 5441
000fe6 482b      	.DB  0x22,0x2C,0x31,0x0,0x41,0x54,0x2B,0x48
000fe7 5454
000fe8 5050
000fe9 5241
000fea 3d41      	.DB  0x54,0x54,0x50,0x50,0x41,0x52,0x41,0x3D
000feb 5522
000fec 4c52
000fed 2c22
000fee 6822      	.DB  0x22,0x55,0x52,0x4C,0x22,0x2C,0x22,0x68
000fef 7474
000ff0 3a70
000ff1 2f2f
000ff2 7777      	.DB  0x74,0x74,0x70,0x3A,0x2F,0x2F,0x77,0x77
000ff3 2e77
000ff4 6f67
000ff5 676f
000ff6 656c      	.DB  0x77,0x2E,0x67,0x6F,0x6F,0x67,0x6C,0x65
000ff7 632e
000ff8 6d6f
000ff9 0022
000ffa 5441      	.DB  0x2E,0x63,0x6F,0x6D,0x22,0x0,0x41,0x54
000ffb 482b
000ffc 5454
000ffd 4150
000ffe 5443      	.DB  0x2B,0x48,0x54,0x54,0x50,0x41,0x43,0x54
000fff 4f49
001000 3d4e
001001 0030
001002 5448      	.DB  0x49,0x4F,0x4E,0x3D,0x30,0x0,0x48,0x54
001003 5054
001004 4341
001005 4954
001006 4e4f      	.DB  0x54,0x50,0x41,0x43,0x54,0x49,0x4F,0x4E
001007 003a
001008 6e49
001009 6574
00100a 6e72      	.DB  0x3A,0x0,0x49,0x6E,0x74,0x65,0x72,0x6E
00100b 7465
00100c 4f20
00100d 004b
00100e 6e49      	.DB  0x65,0x74,0x20,0x4F,0x4B,0x0,0x49,0x6E
00100f 6574
001010 6e72
001011 7465
001012 4620      	.DB  0x74,0x65,0x72,0x6E,0x65,0x74,0x20,0x46
001013 6961
001014 656c
001015 0064
001016 6f4e      	.DB  0x61,0x69,0x6C,0x65,0x64,0x0,0x4E,0x6F
001017 7220
001018 7365
001019 6f70
00101a 736e      	.DB  0x20,0x72,0x65,0x73,0x70,0x6F,0x6E,0x73
00101b 2165
00101c 4100
00101d 2b54
00101e 5448      	.DB  0x65,0x21,0x0,0x41,0x54,0x2B,0x48,0x54
00101f 5054
001020 4554
001021 4d52
D:\project\vending\code\full\glcd_keypad_sim\Debug\List\glcd_keypad_sim.asm(2180): warning: .cseg .db misalignment - padding zero byte
001022 0000      	.DB  0x54,0x50,0x54,0x45,0x52,0x4D,0x0
                 _0x20A0060:
D:\project\vending\code\full\glcd_keypad_sim\Debug\List\glcd_keypad_sim.asm(2182): warning: .cseg .db misalignment - padding zero byte
001023 0001      	.DB  0x1
                 _0x20A0000:
001024 4e2d
001025 4e41
001026 4900
001027 464e      	.DB  0x2D,0x4E,0x41,0x4E,0x0,0x49,0x4E,0x46
D:\project\vending\code\full\glcd_keypad_sim\Debug\List\glcd_keypad_sim.asm(2185): warning: .cseg .db misalignment - padding zero byte
001028 0000      	.DB  0x0
                 
                 __GLOBAL_INI_TBL:
001029 0001      	.DW  0x01
00102a 0002      	.DW  0x02
00102b 1c94      	.DW  __REG_BIT_VARS*2
                 
00102c 0004      	.DW  0x04
00102d 0004      	.DW  0x04
00102e 1c96      	.DW  __REG_VARS*2
                 
00102f 000c      	.DW  0x0C
001030 0500      	.DW  _0x14
001031 1c9a      	.DW  _0x0*2
                 
001032 0003      	.DW  0x03
001033 050c      	.DW  _0x14+12
001034 1ca6      	.DW  _0x0*2+12
                 
001035 000c      	.DW  0x0C
001036 050f      	.DW  _0x14+15
001037 1ca9      	.DW  _0x0*2+15
                 
001038 0003      	.DW  0x03
001039 051b      	.DW  _0x14+27
00103a 1ca6      	.DW  _0x0*2+12
                 
00103b 0014      	.DW  0x14
00103c 051e      	.DW  _0x14+30
00103d 1cb5      	.DW  _0x0*2+27
                 
00103e 0003      	.DW  0x03
00103f 0532      	.DW  _0x14+50
001040 1ca6      	.DW  _0x0*2+12
                 
001041 000c      	.DW  0x0C
001042 0535      	.DW  _0x14+53
001043 1ca9      	.DW  _0x0*2+15
                 
001044 0003      	.DW  0x03
001045 0541      	.DW  _0x14+65
001046 1ca6      	.DW  _0x0*2+12
                 
001047 0003      	.DW  0x03
001048 0544      	.DW  _0x14+68
001049 1ca6      	.DW  _0x0*2+12
                 
00104a 000c      	.DW  0x0C
00104b 0547      	.DW  _0x14+71
00104c 1ca9      	.DW  _0x0*2+15
                 
00104d 0003      	.DW  0x03
00104e 0553      	.DW  _0x14+83
00104f 1ca6      	.DW  _0x0*2+12
                 
001050 0010      	.DW  0x10
001051 0556      	.DW  _0x14+86
001052 1cf3      	.DW  _0x0*2+89
                 
001053 000d      	.DW  0x0D
001054 0566      	.DW  _0x14+102
001055 1d03      	.DW  _0x0*2+105
                 
001056 000f      	.DW  0x0F
001057 0573      	.DW  _0x14+115
001058 1d10      	.DW  _0x0*2+118
                 
001059 000c      	.DW  0x0C
00105a 0582      	.DW  _0x14+130
00105b 1ca9      	.DW  _0x0*2+15
                 
00105c 0003      	.DW  0x03
00105d 058e      	.DW  _0x14+142
00105e 1ca6      	.DW  _0x0*2+12
                 
00105f 000d      	.DW  0x0D
001060 0591      	.DW  _0x14+145
001061 1d03      	.DW  _0x0*2+105
                 
001062 000c      	.DW  0x0C
001063 059e      	.DW  _0x14+158
001064 1ca9      	.DW  _0x0*2+15
                 
001065 0003      	.DW  0x03
001066 05aa      	.DW  _0x14+170
001067 1ca6      	.DW  _0x0*2+12
                 
001068 000c      	.DW  0x0C
001069 05ad      	.DW  _0x14+173
00106a 1d35      	.DW  _0x0*2+155
                 
00106b 0003      	.DW  0x03
00106c 05b9      	.DW  _0x14+185
00106d 1ca6      	.DW  _0x0*2+12
                 
00106e 000c      	.DW  0x0C
00106f 05bc      	.DW  _0x14+188
001070 1ca9      	.DW  _0x0*2+15
                 
001071 0003      	.DW  0x03
001072 05c8      	.DW  _0x14+200
001073 1ca6      	.DW  _0x0*2+12
                 
001074 001f      	.DW  0x1F
001075 05cb      	.DW  _0x1F
001076 1d41      	.DW  _0x0*2+167
                 
001077 0008      	.DW  0x08
001078 05ea      	.DW  _0x1F+31
001079 1d60      	.DW  _0x0*2+198
                 
00107a 000a      	.DW  0x0A
00107b 05f2      	.DW  _0x1F+39
00107c 1d68      	.DW  _0x0*2+206
                 
00107d 0014      	.DW  0x14
00107e 05fc      	.DW  _0x1F+49
00107f 1d72      	.DW  _0x0*2+216
                 
001080 0006      	.DW  0x06
001081 0610      	.DW  _0x38
001082 1d86      	.DW  _0x0*2+236
                 
001083 000f      	.DW  0x0F
001084 0616      	.DW  _0x41
001085 1d8c      	.DW  _0x0*2+242
                 
001086 0011      	.DW  0x11
001087 0625      	.DW  _0x41+15
001088 1d9b      	.DW  _0x0*2+257
                 
001089 0011      	.DW  0x11
00108a 0636      	.DW  _0x41+32
00108b 1d9b      	.DW  _0x0*2+257
                 
00108c 0012      	.DW  0x12
00108d 0647      	.DW  _0x41+49
00108e 1dac      	.DW  _0x0*2+274
                 
00108f 0015      	.DW  0x15
001090 0659      	.DW  _0x80003
001091 1de6      	.DW  _0x80000*2
                 
001092 000d      	.DW  0x0D
001093 066e      	.DW  _0x80003+21
001094 1dfb      	.DW  _0x80000*2+21
                 
001095 000b      	.DW  0x0B
001096 067b      	.DW  _0x80003+34
001097 1e08      	.DW  _0x80000*2+34
                 
001098 000b      	.DW  0x0B
001099 0686      	.DW  _0x80003+45
00109a 1e13      	.DW  _0x80000*2+45
                 
00109b 000a      	.DW  0x0A
00109c 0691      	.DW  _0x80003+56
00109d 1e1e      	.DW  _0x80000*2+56
                 
00109e 000a      	.DW  0x0A
00109f 069b      	.DW  _0x80003+66
0010a0 1e28      	.DW  _0x80000*2+66
                 
0010a1 000a      	.DW  0x0A
0010a2 06a5      	.DW  _0x80003+76
0010a3 1e32      	.DW  _0x80000*2+76
                 
0010a4 0005      	.DW  0x05
0010a5 06af      	.DW  _0x80003+86
0010a6 1e3c      	.DW  _0x80000*2+86
                 
0010a7 0003      	.DW  0x03
0010a8 06b4      	.DW  _0x80003+91
0010a9 1e41      	.DW  _0x80000*2+91
                 
0010aa 0003      	.DW  0x03
0010ab 06b7      	.DW  _0x80003+94
0010ac 1e44      	.DW  _0x80000*2+94
                 
0010ad 0017      	.DW  0x17
0010ae 06ba      	.DW  _0x80003+97
0010af 1e47      	.DW  _0x80000*2+97
                 
0010b0 0009      	.DW  0x09
0010b1 06d1      	.DW  _0x80005
0010b2 1e5e      	.DW  _0x80000*2+120
                 
0010b3 0005      	.DW  0x05
0010b4 06da      	.DW  _0x80005+9
0010b5 1e67      	.DW  _0x80000*2+129
                 
0010b6 0009      	.DW  0x09
0010b7 06df      	.DW  _0x80005+14
0010b8 1e6c      	.DW  _0x80000*2+134
                 
0010b9 0005      	.DW  0x05
0010ba 06e8      	.DW  _0x80005+23
0010bb 1e75      	.DW  _0x80000*2+143
                 
0010bc 0007      	.DW  0x07
0010bd 06ed      	.DW  _0x80005+28
0010be 1e7a      	.DW  _0x80000*2+148
                 
0010bf 0017      	.DW  0x17
0010c0 06f4      	.DW  _0x80005+35
0010c1 1e81      	.DW  _0x80000*2+155
                 
0010c2 000c      	.DW  0x0C
0010c3 070b      	.DW  _0x80005+58
0010c4 1e98      	.DW  _0x80000*2+178
                 
0010c5 0007      	.DW  0x07
0010c6 0717      	.DW  _0x8000D
0010c7 1ea4      	.DW  _0x80000*2+190
                 
0010c8 0004      	.DW  0x04
0010c9 071e      	.DW  _0x8000D+7
0010ca 1ea7      	.DW  _0x80000*2+193
                 
0010cb 0006      	.DW  0x06
0010cc 0722      	.DW  _0x8000D+11
0010cd 1eab      	.DW  _0x80000*2+197
                 
0010ce 0014      	.DW  0x14
0010cf 0728      	.DW  _0x80016
0010d0 1ece      	.DW  _0x80000*2+232
                 
0010d1 000a      	.DW  0x0A
0010d2 073c      	.DW  _0x80016+20
0010d3 1e32      	.DW  _0x80000*2+76
                 
0010d4 000b      	.DW  0x0B
0010d5 0746      	.DW  _0x80016+30
0010d6 1ee2      	.DW  _0x80000*2+252
                 
0010d7 000a      	.DW  0x0A
0010d8 0751      	.DW  _0x80016+41
0010d9 1eed      	.DW  _0x80000*2+263
                 
0010da 0012      	.DW  0x12
0010db 075b      	.DW  _0x80016+51
0010dc 1ef7      	.DW  _0x80000*2+273
                 
0010dd 0013      	.DW  0x13
0010de 076d      	.DW  _0x80016+69
0010df 1f09      	.DW  _0x80000*2+291
                 
0010e0 000b      	.DW  0x0B
0010e1 0780      	.DW  _0x80016+88
0010e2 1f1c      	.DW  _0x80000*2+310
                 
0010e3 0016      	.DW  0x16
0010e4 078b      	.DW  _0x80017
0010e5 1f27      	.DW  _0x80000*2+321
                 
0010e6 001e      	.DW  0x1E
0010e7 07a1      	.DW  _0x80017+22
0010e8 1f3d      	.DW  _0x80000*2+343
                 
0010e9 000d      	.DW  0x0D
0010ea 07bf      	.DW  _0x80017+52
0010eb 1f73      	.DW  _0x80000*2+397
                 
0010ec 0003      	.DW  0x03
0010ed 07cc      	.DW  _0x80017+65
0010ee 1e44      	.DW  _0x80000*2+94
                 
0010ef 000f      	.DW  0x0F
0010f0 07cf      	.DW  _0x80017+68
0010f1 1f80      	.DW  _0x80000*2+410
                 
0010f2 000d      	.DW  0x0D
0010f3 07de      	.DW  _0x80017+83
0010f4 1dfb      	.DW  _0x80000*2+21
                 
0010f5 0006      	.DW  0x06
0010f6 07eb      	.DW  _0x80017+96
0010f7 1f8f      	.DW  _0x80000*2+425
                 
0010f8 0015      	.DW  0x15
0010f9 07f1      	.DW  _0x8001A
0010fa 1f95      	.DW  _0x80000*2+431
                 
0010fb 000c      	.DW  0x0C
0010fc 0806      	.DW  _0x8001A+21
0010fd 1faa      	.DW  _0x80000*2+452
                 
0010fe 0014      	.DW  0x14
0010ff 0812      	.DW  _0x8001A+33
001100 1fb6      	.DW  _0x80000*2+464
                 
001101 002a      	.DW  0x2A
001102 0826      	.DW  _0x8001A+53
001103 1fca      	.DW  _0x80000*2+484
                 
001104 0010      	.DW  0x10
001105 0850      	.DW  _0x8001A+95
001106 1ff4      	.DW  _0x80000*2+526
                 
001107 000c      	.DW  0x0C
001108 0860      	.DW  _0x8001A+111
001109 2004      	.DW  _0x80000*2+542
                 
00110a 000c      	.DW  0x0C
00110b 086c      	.DW  _0x8001A+123
00110c 2010      	.DW  _0x80000*2+554
                 
00110d 0010      	.DW  0x10
00110e 0878      	.DW  _0x8001A+135
00110f 201c      	.DW  _0x80000*2+566
                 
001110 000d      	.DW  0x0D
001111 0888      	.DW  _0x8001A+151
001112 202c      	.DW  _0x80000*2+582
                 
001113 000c      	.DW  0x0C
001114 0895      	.DW  _0x8001A+164
001115 2039      	.DW  _0x80000*2+595
                 
001116 0001      	.DW  0x01
001117 0c2b      	.DW  __seed_G105
001118 2046      	.DW  _0x20A0060*2
                 
                 _0xFFFFFFFF:
001119 0000      	.DW  0
                 
                 #define __GLOBAL_INI_TBL_PRESENT 1
                 
                 __RESET:
00111a 94f8      	CLI
00111b 27ee      	CLR  R30
00111c bbec      	OUT  EECR,R30
                 
                 ;INTERRUPT VECTORS ARE PLACED
                 ;AT THE START OF FLASH
00111d e0f1      	LDI  R31,1
00111e bff5      	OUT  MCUCR,R31
00111f bfe5      	OUT  MCUCR,R30
001120 93e0 006c 	STS  XMCRB,R30
                 
                 ;CLEAR R2-R14
001122 e08d      	LDI  R24,(14-2)+1
001123 e0a2      	LDI  R26,2
001124 27bb      	CLR  R27
                 __CLEAR_REG:
001125 93ed      	ST   X+,R30
001126 958a      	DEC  R24
001127 f7e9      	BRNE __CLEAR_REG
                 
                 ;CLEAR SRAM
001128 e080      	LDI  R24,LOW(__CLEAR_SRAM_SIZE)
001129 e190      	LDI  R25,HIGH(__CLEAR_SRAM_SIZE)
00112a e0a0      	LDI  R26,LOW(__SRAM_START)
00112b e0b1      	LDI  R27,HIGH(__SRAM_START)
                 __CLEAR_SRAM:
00112c 93ed      	ST   X+,R30
00112d 9701      	SBIW R24,1
00112e f7e9      	BRNE __CLEAR_SRAM
                 
                 ;GLOBAL VARIABLES INITIALIZATION
00112f e5e2      	LDI  R30,LOW(__GLOBAL_INI_TBL*2)
001130 e2f0      	LDI  R31,HIGH(__GLOBAL_INI_TBL*2)
                 __GLOBAL_INI_NEXT:
001131 9185      	LPM  R24,Z+
001132 9195      	LPM  R25,Z+
001133 9700      	SBIW R24,0
001134 f061      	BREQ __GLOBAL_INI_END
001135 91a5      	LPM  R26,Z+
001136 91b5      	LPM  R27,Z+
001137 9005      	LPM  R0,Z+
001138 9015      	LPM  R1,Z+
001139 01bf      	MOVW R22,R30
00113a 01f0      	MOVW R30,R0
                 __GLOBAL_INI_LOOP:
00113b 9005      	LPM  R0,Z+
00113c 920d      	ST   X+,R0
00113d 9701      	SBIW R24,1
00113e f7e1      	BRNE __GLOBAL_INI_LOOP
00113f 01fb      	MOVW R30,R22
001140 cff0      	RJMP __GLOBAL_INI_NEXT
                 __GLOBAL_INI_END:
                 
                 ;HARDWARE STACK POINTER INITIALIZATION
001141 efef      	LDI  R30,LOW(__SRAM_END-__HEAP_SIZE)
001142 bfed      	OUT  SPL,R30
001143 e1e0      	LDI  R30,HIGH(__SRAM_END-__HEAP_SIZE)
001144 bfee      	OUT  SPH,R30
                 
                 ;DATA STACK POINTER INITIALIZATION
001145 e0c0      	LDI  R28,LOW(__SRAM_START+__DSTACK_SIZE)
001146 e0d5      	LDI  R29,HIGH(__SRAM_START+__DSTACK_SIZE)
                 
001147 940c 1437 	JMP  _main
                 
                 	.ESEG
                 	.ORG 0
                 
                 	.DSEG
                 	.ORG 0x500
                 
                 	.CSEG
                 ;#include <mega64a.h>
                 	#ifndef __SLEEP_DEFINED__
                 	#define __SLEEP_DEFINED__
                 	.EQU __se_bit=0x20
                 	.EQU __sm_mask=0x1C
                 	.EQU __sm_powerdown=0x10
                 	.EQU __sm_powersave=0x18
                 	.EQU __sm_standby=0x14
                 	.EQU __sm_ext_standby=0x1C
                 	.EQU __sm_adc_noise_red=0x08
                 	.SET power_ctrl_reg=mcucr
                 	#endif
                 ;#include <glcd.h>
                 ;#include <font5x7.h>
                 ;#include <stdio.h>
                 ;#include <string.h>
                 ;#include <stdlib.h> // E?C? C?E?CI? C? ECE? atoi
                 ;#include <delay.h>
                 ;
                 ;#include "bitmaps.h"
                 ;#include "common.h"
                 ;#include "keypad.h"
                 ;#include "motor.h"
                 ;#include "init_sms.h"
                 ;#include "sim800.h"
                 ;
                 ;
                 ;typedef unsigned char uint8_t;
                 ;typedef unsigned int  uint16_t;
                 ;typedef signed char   int8_t;
                 ;
                 ;volatile unsigned long millis_counter = 0;
                 ;//#define APN "mcinet" // APN C??CE?? I?I ?C ?C?I ???I
                 ;const char APN[] = "mcinet";
                 ;
                 ;unsigned long last_time = 0;
                 ;
                 ;
                 ;#define glcd_pixel(x, y, color) glcd_setpixel(x, y)
                 ;#define read_flash_byte(p) (*(p))
                 ;
                 ;#define HTTP_TIMEOUT_MS 5000
                 ;
                 ;char ip_address_buffer[16];
                 ;
                 ;volatile bit sms_received = 0;
                 ;
                 ;char header_buffer[100];
                 ;char content_buffer[100];
                 ;int header_index = 0;
                 ;int content_index = 0;
                 ;
                 ;
                 ;#define DATA_REGISTER_EMPTY (1<<UDRE0)
                 ;#define RX_COMPLETE (1<<RXC0)
                 ;#define FRAMING_ERROR (1<<FE0)
                 ;#define PARITY_ERROR (1<<UPE0)
                 ;#define DATA_OVERRUN (1<<DOR0)
                 ;
                 ;// USART0 Receiver buffer
                 ;#define RX_BUFFER_SIZE0 100
                 ;char rx_buffer0[RX_BUFFER_SIZE0];
                 ;
                 ;#if RX_BUFFER_SIZE0 <= 256
                 ;unsigned char rx_wr_index0=0,rx_rd_index0=0;
                 ;#else
                 ;unsigned int rx_wr_index0=0,rx_rd_index0=0;
                 ;#endif
                 ;
                 ;#if RX_BUFFER_SIZE0 < 256
                 ;unsigned char rx_counter0=0;
                 ;#else
                 ;unsigned int rx_counter0=0;
                 ;#endif
                 ;
                 ;// This flag is set on USART0 Receiver buffer overflow
                 ;bit rx_buffer_overflow0;
                 ;
                 ;// USART0 Receiver interrupt service routine
                 ;interrupt [USART0_RXC] void usart0_rx_isr(void)
                 ; 0000 0046 {
                 
                 	.CSEG
                 _usart0_rx_isr:
                 ; .FSTART _usart0_rx_isr
001149 93aa      	ST   -Y,R26
00114a 93ea      	ST   -Y,R30
00114b 93fa      	ST   -Y,R31
00114c b7ef      	IN   R30,SREG
00114d 93ea      	ST   -Y,R30
                 ; 0000 0047     char status,data;
                 ; 0000 0048     status=UCSR0A;
00114e 931a      	ST   -Y,R17
00114f 930a      	ST   -Y,R16
                 ;	status -> R17
                 ;	data -> R16
001150 b11b      	IN   R17,11
                 ; 0000 0049     data=UDR0;
001151 b10c      	IN   R16,12
                 ; 0000 004A     if ((status & (FRAMING_ERROR | PARITY_ERROR | DATA_OVERRUN))==0)
001152 2fe1      	MOV  R30,R17
001153 71ec      	ANDI R30,LOW(0x1C)
001154 f4e9      	BRNE _0x3
                 ; 0000 004B     {
                 ; 0000 004C         rx_buffer0[rx_wr_index0++]=data;
001155 91e0 08bf 	LDS  R30,_rx_wr_index0
001157 5fef      	SUBI R30,-LOW(1)
001158 93e0 08bf 	STS  _rx_wr_index0,R30
00115a 50e1      	SUBI R30,LOW(1)
00115b e0f0      	LDI  R31,0
00115c 56ef      	SUBI R30,LOW(-_rx_buffer0)
00115d 4ff6      	SBCI R31,HIGH(-_rx_buffer0)
00115e 8300      	ST   Z,R16
                 ; 0000 004D         #if RX_BUFFER_SIZE0 == 256
                 ; 0000 004E         // special case for receiver buffer size=256
                 ; 0000 004F         if (++rx_counter0 == 0) rx_buffer_overflow0=1;
                 ; 0000 0050         #else
                 ; 0000 0051         if (rx_wr_index0 == RX_BUFFER_SIZE0) rx_wr_index0=0;
00115f 91a0 08bf 	LDS  R26,_rx_wr_index0
001161 36a4      	CPI  R26,LOW(0x64)
001162 f419      	BRNE _0x4
001163 e0e0      	LDI  R30,LOW(0)
001164 93e0 08bf 	STS  _rx_wr_index0,R30
                 ; 0000 0052         if (++rx_counter0 == RX_BUFFER_SIZE0)
                 _0x4:
001166 91a0 08be 	LDS  R26,_rx_counter0
001168 5faf      	SUBI R26,-LOW(1)
001169 93a0 08be 	STS  _rx_counter0,R26
00116b 36a4      	CPI  R26,LOW(0x64)
00116c f429      	BRNE _0x5
                 ; 0000 0053             {
                 ; 0000 0054             rx_counter0=0;
00116d e0e0      	LDI  R30,LOW(0)
00116e 93e0 08be 	STS  _rx_counter0,R30
                 ; 0000 0055             rx_buffer_overflow0=1;
001170 9468      	SET
001171 f820      	BLD  R2,0
                 ; 0000 0056             }
                 ; 0000 0057         #endif
                 ; 0000 0058     }
                 _0x5:
                 ; 0000 0059 }
                 _0x3:
001172 9109      	LD   R16,Y+
001173 9119      	LD   R17,Y+
001174 91e9      	LD   R30,Y+
001175 bfef      	OUT  SREG,R30
001176 91f9      	LD   R31,Y+
001177 91e9      	LD   R30,Y+
001178 91a9      	LD   R26,Y+
001179 9518      	RETI
                 ; .FEND
                 ;
                 ;#ifndef _DEBUG_TERMINAL_IO_
                 ;// Get a character from the USART0 Receiver buffer
                 ;#define _ALTERNATE_GETCHAR_
                 ;#pragma used+
                 ;char getchar(void)
                 ; 0000 0060 {
                 _getchar:
                 ; .FSTART _getchar
                 ; 0000 0061     char data;
                 ; 0000 0062     while (rx_counter0==0);
00117a 931a      	ST   -Y,R17
                 ;	data -> R17
                 _0x6:
00117b 91e0 08be 	LDS  R30,_rx_counter0
00117d 30e0      	CPI  R30,0
00117e f3e1      	BREQ _0x6
                 ; 0000 0063     data=rx_buffer0[rx_rd_index0++];
00117f 91e0 08c0 	LDS  R30,_rx_rd_index0
001181 5fef      	SUBI R30,-LOW(1)
001182 93e0 08c0 	STS  _rx_rd_index0,R30
001184 50e1      	SUBI R30,LOW(1)
001185 e0f0      	LDI  R31,0
001186 56ef      	SUBI R30,LOW(-_rx_buffer0)
001187 4ff6      	SBCI R31,HIGH(-_rx_buffer0)
001188 8110      	LD   R17,Z
                 ; 0000 0064     #if RX_BUFFER_SIZE0 != 256
                 ; 0000 0065     if (rx_rd_index0 == RX_BUFFER_SIZE0) rx_rd_index0=0;
001189 91a0 08c0 	LDS  R26,_rx_rd_index0
00118b 36a4      	CPI  R26,LOW(0x64)
00118c f419      	BRNE _0x9
00118d e0e0      	LDI  R30,LOW(0)
00118e 93e0 08c0 	STS  _rx_rd_index0,R30
                 ; 0000 0066     #endif
                 ; 0000 0067     #asm("cli")
                 _0x9:
001190 94f8      	cli
                 ; 0000 0068     --rx_counter0;
001191 91e0 08be 	LDS  R30,_rx_counter0
001193 50e1      	SUBI R30,LOW(1)
001194 93e0 08be 	STS  _rx_counter0,R30
                 ; 0000 0069     #asm("sei")
001196 9478      	sei
                 ; 0000 006A     return data;
001197 2fe1      	MOV  R30,R17
001198 9119      	LD   R17,Y+
001199 9508      	RET
                 ; 0000 006B }
                 ; .FEND
                 ;#pragma used-
                 ;#endif
                 ;
                 ;// Standard Input/Output functions
                 ;#include <stdio.h>
                 ;
                 ;// Timer 0 overflow interrupt service routine
                 ;interrupt [TIM0_OVF] void timer0_ovf_isr(void)
                 ; 0000 0074 {
                 _timer0_ovf_isr:
                 ; .FSTART _timer0_ovf_isr
00119a 936a      	ST   -Y,R22
00119b 937a      	ST   -Y,R23
00119c 93ea      	ST   -Y,R30
00119d 93fa      	ST   -Y,R31
00119e b7ef      	IN   R30,SREG
00119f 93ea      	ST   -Y,R30
                 ; 0000 0075     //  0     ~32.768ms  
                 ; 0000 0076     millis_counter += 33;  //  (    prescaler  )
0011a0 940e 2274 	CALL SUBOPT_0x0
                +
0011a2 5def     +SUBI R30 , LOW ( - 33 )
0011a3 4fff     +SBCI R31 , HIGH ( - 33 )
0011a4 4f6f     +SBCI R22 , BYTE3 ( - 33 )
0011a5 4f7f     +SBCI R23 , BYTE4 ( - 33 )
                 	__ADDD1N 33
0011a6 93e0 08c1 	STS  _millis_counter,R30
0011a8 93f0 08c2 	STS  _millis_counter+1,R31
0011aa 9360 08c3 	STS  _millis_counter+2,R22
0011ac 9370 08c4 	STS  _millis_counter+3,R23
                 ; 0000 0077 
                 ; 0000 0078 }
0011ae 91e9      	LD   R30,Y+
0011af bfef      	OUT  SREG,R30
0011b0 91f9      	LD   R31,Y+
0011b1 91e9      	LD   R30,Y+
0011b2 9179      	LD   R23,Y+
0011b3 9169      	LD   R22,Y+
0011b4 9518      	RETI
                 ; .FEND
                 ;
                 ;////////////////////////////////////////////////////////////////////////////////////////////////////////////
                 ;
                 ;
                 ;void draw_bitmap(uint8_t x, uint8_t y, __flash unsigned char* bmp, uint8_t width, uint8_t height)
                 ; 0000 007E {
                 _draw_bitmap:
                 ; .FSTART _draw_bitmap
                 ; 0000 007F     uint16_t byte_index;
                 ; 0000 0080     uint8_t page;
                 ; 0000 0081     uint8_t col;
                 ; 0000 0082     uint8_t bit_pos;
                 ; 0000 0083     uint8_t data;
                 ; 0000 0084     uint8_t pages;
                 ; 0000 0085 
                 ; 0000 0086     byte_index = 0;
0011b5 93aa      	ST   -Y,R26
0011b6 9721      	SBIW R28,1
0011b7 940e 227d 	CALL SUBOPT_0x1
                 ;	x -> Y+12
                 ;	y -> Y+11
                 ;	*bmp -> Y+9
                 ;	width -> Y+8
                 ;	height -> Y+7
                 ;	byte_index -> R16,R17
                 ;	page -> R19
                 ;	col -> R18
                 ;	bit_pos -> R21
                 ;	data -> R20
                 ;	pages -> Y+6
                 ; 0000 0087     pages = height / 8;
0011b9 81af      	LDD  R26,Y+7
0011ba e0b0      	LDI  R27,0
0011bb e0e8      	LDI  R30,LOW(8)
0011bc e0f0      	LDI  R31,HIGH(8)
0011bd 940e 24b7 	CALL __DIVW21
0011bf 83ee      	STD  Y+6,R30
                 ; 0000 0088 
                 ; 0000 0089     for (page = 0; page < pages; page++) {
0011c0 e030      	LDI  R19,LOW(0)
                 _0xB:
0011c1 81ee      	LDD  R30,Y+6
0011c2 173e      	CP   R19,R30
0011c3 f550      	BRSH _0xC
                 ; 0000 008A         for (col = 0; col < width; col++) {
0011c4 e020      	LDI  R18,LOW(0)
                 _0xE:
0011c5 85e8      	LDD  R30,Y+8
0011c6 172e      	CP   R18,R30
0011c7 f520      	BRSH _0xF
                 ; 0000 008B             data = read_flash_byte(&bmp[byte_index++]);
0011c8 01f8      	MOVW R30,R16
                +
0011c9 5f0f     +SUBI R16 , LOW ( - 1 )
0011ca 4f1f     +SBCI R17 , HIGH ( - 1 )
                 	__ADDWRN 16,17,1
0011cb 85a9      	LDD  R26,Y+9
0011cc 85ba      	LDD  R27,Y+9+1
0011cd 0fea      	ADD  R30,R26
0011ce 1ffb      	ADC  R31,R27
0011cf 9144      	LPM  R20,Z
                 ; 0000 008C             for (bit_pos = 0; bit_pos < 8; bit_pos++) {
0011d0 e050      	LDI  R21,LOW(0)
                 _0x11:
0011d1 3058      	CPI  R21,8
0011d2 f4b8      	BRSH _0x12
                 ; 0000 008D                 if (data & (1 << bit_pos)) {
0011d3 2fe5      	MOV  R30,R21
0011d4 940e 2282 	CALL SUBOPT_0x2
0011d6 2fa4      	MOV  R26,R20
0011d7 940e 2287 	CALL SUBOPT_0x3
0011d9 f071      	BREQ _0x13
                 ; 0000 008E                     glcd_pixel(x + col, y + (page * 8) + bit_pos, 1);
0011da 2fe2      	MOV  R30,R18
0011db 85ac      	LDD  R26,Y+12
0011dc 0fea      	ADD  R30,R26
0011dd 93ea      	ST   -Y,R30
0011de 2fe3      	MOV  R30,R19
0011df 0fee      	LSL  R30
0011e0 0fee      	LSL  R30
0011e1 0fee      	LSL  R30
0011e2 85ac      	LDD  R26,Y+12
0011e3 0fea      	ADD  R30,R26
0011e4 0fe5      	ADD  R30,R21
0011e5 2fae      	MOV  R26,R30
0011e6 940e 1c74 	CALL _glcd_setpixel
                 ; 0000 008F                 }
                 ; 0000 0090             }
                 _0x13:
0011e8 5f5f      	SUBI R21,-1
0011e9 cfe7      	RJMP _0x11
                 _0x12:
                 ; 0000 0091         }
0011ea 5f2f      	SUBI R18,-1
0011eb cfd9      	RJMP _0xE
                 _0xF:
                 ; 0000 0092     }
0011ec 5f3f      	SUBI R19,-1
0011ed cfd3      	RJMP _0xB
                 _0xC:
                 ; 0000 0093 }
0011ee 940e 2510 	CALL __LOADLOCR6
0011f0 962d      	ADIW R28,13
0011f1 9508      	RET
                 ; .FEND
                 ;
                 ;
                 ;
                 ;unsigned long millis(void)
                 ; 0000 0098 {
                 _millis:
                 ; .FSTART _millis
                 ; 0000 0099     unsigned long ms;
                 ; 0000 009A     #asm("cli")
0011f2 9724      	SBIW R28,4
                 ;	ms -> Y+0
0011f3 94f8      	cli
                 ; 0000 009B     ms = millis_counter;
0011f4 940e 2274 	CALL SUBOPT_0x0
0011f6 940e 24d7 	CALL __PUTD1S0
                 ; 0000 009C     #asm("sei")
0011f8 9478      	sei
                 ; 0000 009D     return ms;
0011f9 940e 24d2 	CALL __GETD1S0
0011fb 9624      	ADIW R28,4
0011fc 9508      	RET
                 ; 0000 009E }
                 ; .FEND
                 ;
                 ;
                 ;
                 ;
                 ;unsigned char send_json_post(const char* base_url, const char* phone_number) {
                 ; 0000 00A3 unsigned char send_json_post(const char* base_url, const char* phone_number) {
                 _send_json_post:
                 ; .FSTART _send_json_post
                 ; 0000 00A4     // C??C? ?EU???C (C89)
                 ; 0000 00A5     char cmd[256];
                 ; 0000 00A6     char response[256];
                 ; 0000 00A7     char full_url[256];
                 ; 0000 00A8     char *action_ptr;
                 ; 0000 00A9     int method = 0, status_code = 0, data_len = 0;
                 ; 0000 00AA 
                 ; 0000 00AB     // ??C?O ??C? ??? GLCD
                 ; 0000 00AC     glcd_clear();
0011fd 93ba      	ST   -Y,R27
0011fe 93aa      	ST   -Y,R26
0011ff 9722      	SBIW R28,2
001200 50d3      	SUBI R29,3
001201 e0e0      	LDI  R30,LOW(0)
001202 83e8      	ST   Y,R30
001203 83e9      	STD  Y+1,R30
001204 940e 2509 	CALL __SAVELOCR6
                 ;	*base_url -> Y+778
                 ;	*phone_number -> Y+776
                 ;	cmd -> Y+520
                 ;	response -> Y+264
                 ;	full_url -> Y+8
                 ;	*action_ptr -> R16,R17
                 ;	method -> R18,R19
                 ;	status_code -> R20,R21
                 ;	data_len -> Y+6
                +
001206 e020     +LDI R18 , LOW ( 0 )
001207 e030     +LDI R19 , HIGH ( 0 )
                 	__GETWRN 18,19,0
                +
001208 e040     +LDI R20 , LOW ( 0 )
001209 e050     +LDI R21 , HIGH ( 0 )
                 	__GETWRN 20,21,0
00120a 940e 228c 	CALL SUBOPT_0x4
                 ; 0000 00AD     draw_bitmap(0, 0, lotfan_montazer_bemanid, 128, 64);
00120c e7e0      	LDI  R30,LOW(_lotfan_montazer_bemanid*2)
00120d e0fa      	LDI  R31,HIGH(_lotfan_montazer_bemanid*2)
00120e 940e 2292 	CALL SUBOPT_0x5
                 ; 0000 00AE 
                 ; 0000 00AF     // 0) ??O ??I? EC?? UART
                 ; 0000 00B0     rx_wr_index0 = rx_rd_index0 = 0;
001210 940e 229b 	CALL SUBOPT_0x6
                 ; 0000 00B1     rx_counter0 = 0;
                 ; 0000 00B2     rx_buffer_overflow0 = 0;
001212 94e8      	CLT
001213 f820      	BLD  R2,0
                 ; 0000 00B3 
                 ; 0000 00B4     // 1) Initialize HTTP service
                 ; 0000 00B5     send_at_command("AT+HTTPINIT");
                +
001214 e0a0     +LDI R26 , LOW ( _0x14 + ( 0 ) )
001215 e0b5     +LDI R27 , HIGH ( _0x14 + ( 0 ) )
                 	__POINTW2MN _0x14,0
001216 940e 22a3 	CALL SUBOPT_0x7
                 ; 0000 00B6     if (!read_serial_response(response, sizeof(response), 2000, "OK")) {
001218 ede0      	LDI  R30,LOW(2000)
001219 e0f7      	LDI  R31,HIGH(2000)
00121a 93fa      	ST   -Y,R31
00121b 93ea      	ST   -Y,R30
                +
00121c e0ac     +LDI R26 , LOW ( _0x14 + ( 12 ) )
00121d e0b5     +LDI R27 , HIGH ( _0x14 + ( 12 ) )
                 	__POINTW2MN _0x14,12
00121e 940e 1631 	CALL _read_serial_response
001220 30e0      	CPI  R30,0
001221 f461      	BRNE _0x15
                 ; 0000 00B7         // C?? I??E ?C? ???I? terminate ? I???
                 ; 0000 00B8         send_at_command("AT+HTTPTERM");
                +
001222 e0af     +LDI R26 , LOW ( _0x14 + ( 15 ) )
001223 e0b5     +LDI R27 , HIGH ( _0x14 + ( 15 ) )
                 	__POINTW2MN _0x14,15
001224 940e 22a3 	CALL SUBOPT_0x7
                 ; 0000 00B9         read_serial_response(response, sizeof(response), 1000, "OK");
001226 940e 22af 	CALL SUBOPT_0x8
                +
001228 e1ab     +LDI R26 , LOW ( _0x14 + ( 27 ) )
001229 e0b5     +LDI R27 , HIGH ( _0x14 + ( 27 ) )
                 	__POINTW2MN _0x14,27
00122a 940e 1631 	CALL _read_serial_response
                 ; 0000 00BA         return 0;
00122c e0e0      	LDI  R30,LOW(0)
00122d c0e8      	RJMP _0x212001B
                 ; 0000 00BB     }
                 ; 0000 00BC 
                 ; 0000 00BD     // 2) Set CID to bearer profile 1
                 ; 0000 00BE     send_at_command("AT+HTTPPARA=\"CID\",1");
                 _0x15:
                +
00122e e1ae     +LDI R26 , LOW ( _0x14 + ( 30 ) )
00122f e0b5     +LDI R27 , HIGH ( _0x14 + ( 30 ) )
                 	__POINTW2MN _0x14,30
001230 940e 22a3 	CALL SUBOPT_0x7
                 ; 0000 00BF     if (!read_serial_response(response, sizeof(response), 1000, "OK")) {
001232 940e 22af 	CALL SUBOPT_0x8
                +
001234 e3a2     +LDI R26 , LOW ( _0x14 + ( 50 ) )
001235 e0b5     +LDI R27 , HIGH ( _0x14 + ( 50 ) )
                 	__POINTW2MN _0x14,50
001236 940e 1631 	CALL _read_serial_response
001238 30e0      	CPI  R30,0
001239 f461      	BRNE _0x16
                 ; 0000 00C0         send_at_command("AT+HTTPTERM");
                +
00123a e3a5     +LDI R26 , LOW ( _0x14 + ( 53 ) )
00123b e0b5     +LDI R27 , HIGH ( _0x14 + ( 53 ) )
                 	__POINTW2MN _0x14,53
00123c 940e 22a3 	CALL SUBOPT_0x7
                 ; 0000 00C1         read_serial_response(response, sizeof(response), 1000, "OK");
00123e 940e 22af 	CALL SUBOPT_0x8
                +
001240 e4a1     +LDI R26 , LOW ( _0x14 + ( 65 ) )
001241 e0b5     +LDI R27 , HIGH ( _0x14 + ( 65 ) )
                 	__POINTW2MN _0x14,65
001242 940e 1631 	CALL _read_serial_response
                 ; 0000 00C2         return 0;
001244 e0e0      	LDI  R30,LOW(0)
001245 c0d0      	RJMP _0x212001B
                 ; 0000 00C3     }
                 ; 0000 00C4 
                 ; 0000 00C5     // 3) Build the full URL with query parameter
                 ; 0000 00C6     sprintf(full_url, "%s?phone_number=%s", base_url, phone_number);
                 _0x16:
001246 01fe      	MOVW R30,R28
001247 9638      	ADIW R30,8
001248 93fa      	ST   -Y,R31
001249 93ea      	ST   -Y,R30
                +
00124a ece9     +LDI R30 , LOW ( 2 * _0x0 + ( 47 ) )
00124b e1fc     +LDI R31 , HIGH ( 2 * _0x0 + ( 47 ) )
                 	__POINTW1FN _0x0,47
00124c 93fa      	ST   -Y,R31
00124d 93ea      	ST   -Y,R30
                +
00124e 01fe     +MOVW R30 , R28
00124f 5fe2     +SUBI R30 , LOW ( - 782 )
001250 4ffc     +SBCI R31 , HIGH ( - 782 )
001251 9001     +LD R0 , Z +
001252 81f0     +LD R31 , Z
001253 2de0     +MOV R30 , R0
                 	__GETW1SX 782
001254 940e 22b4 	CALL SUBOPT_0x9
                +
001256 01fe     +MOVW R30 , R28
001257 5fe0     +SUBI R30 , LOW ( - 784 )
001258 4ffc     +SBCI R31 , HIGH ( - 784 )
001259 9001     +LD R0 , Z +
00125a 81f0     +LD R31 , Z
00125b 2de0     +MOV R30 , R0
                 	__GETW1SX 784
00125c 940e 22b4 	CALL SUBOPT_0x9
00125e e088      	LDI  R24,8
00125f 940e 1f04 	CALL _sprintf
001261 962c      	ADIW R28,12
                 ; 0000 00C7 
                 ; 0000 00C8     // 4) Set the target URL
                 ; 0000 00C9     sprintf(cmd, "AT+HTTPPARA=\"URL\",\"%s\"", full_url);
001262 01fe      	MOVW R30,R28
001263 5fe8      	SUBI R30,LOW(-(520))
001264 4ffd      	SBCI R31,HIGH(-(520))
001265 93fa      	ST   -Y,R31
001266 93ea      	ST   -Y,R30
                +
001267 edec     +LDI R30 , LOW ( 2 * _0x0 + ( 66 ) )
001268 e1fc     +LDI R31 , HIGH ( 2 * _0x0 + ( 66 ) )
                 	__POINTW1FN _0x0,66
001269 93fa      	ST   -Y,R31
00126a 93ea      	ST   -Y,R30
00126b 01fe      	MOVW R30,R28
00126c 963c      	ADIW R30,12
00126d 940e 22b4 	CALL SUBOPT_0x9
00126f 940e 22b9 	CALL SUBOPT_0xA
                 ; 0000 00CA     send_at_command(cmd);
001271 01de      	MOVW R26,R28
001272 5fa8      	SUBI R26,LOW(-(520))
001273 4fbd      	SBCI R27,HIGH(-(520))
001274 940e 22a3 	CALL SUBOPT_0x7
                 ; 0000 00CB     if (!read_serial_response(response, sizeof(response), 2000, "OK")) {
001276 ede0      	LDI  R30,LOW(2000)
001277 e0f7      	LDI  R31,HIGH(2000)
001278 93fa      	ST   -Y,R31
001279 93ea      	ST   -Y,R30
                +
00127a e4a4     +LDI R26 , LOW ( _0x14 + ( 68 ) )
00127b e0b5     +LDI R27 , HIGH ( _0x14 + ( 68 ) )
                 	__POINTW2MN _0x14,68
00127c 940e 1631 	CALL _read_serial_response
00127e 30e0      	CPI  R30,0
00127f f461      	BRNE _0x17
                 ; 0000 00CC         send_at_command("AT+HTTPTERM");
                +
001280 e4a7     +LDI R26 , LOW ( _0x14 + ( 71 ) )
001281 e0b5     +LDI R27 , HIGH ( _0x14 + ( 71 ) )
                 	__POINTW2MN _0x14,71
001282 940e 22a3 	CALL SUBOPT_0x7
                 ; 0000 00CD         read_serial_response(response, sizeof(response), 1000, "OK");
001284 940e 22af 	CALL SUBOPT_0x8
                +
001286 e5a3     +LDI R26 , LOW ( _0x14 + ( 83 ) )
001287 e0b5     +LDI R27 , HIGH ( _0x14 + ( 83 ) )
                 	__POINTW2MN _0x14,83
001288 940e 1631 	CALL _read_serial_response
                 ; 0000 00CE         return 0;
00128a e0e0      	LDI  R30,LOW(0)
00128b c08a      	RJMP _0x212001B
                 ; 0000 00CF     }
                 ; 0000 00D0 
                 ; 0000 00D1     // 5) Start POST action
                 ; 0000 00D2     // ??O EC?? ?E? C? HTTPACTION
                 ; 0000 00D3     rx_wr_index0 = rx_rd_index0 = 0;
                 _0x17:
00128c e0e0      	LDI  R30,LOW(0)
00128d 940e 229b 	CALL SUBOPT_0x6
                 ; 0000 00D4     rx_counter0 = 0;
                 ; 0000 00D5     send_at_command("AT+HTTPACTION=1");
                +
00128f e5a6     +LDI R26 , LOW ( _0x14 + ( 86 ) )
001290 e0b5     +LDI R27 , HIGH ( _0x14 + ( 86 ) )
                 	__POINTW2MN _0x14,86
001291 940e 22a3 	CALL SUBOPT_0x7
                 ; 0000 00D6     if (!read_serial_response(response, sizeof(response), HTTP_TIMEOUT_MS, "+HTTPACTION:")) {
001293 e8e8      	LDI  R30,LOW(5000)
001294 e1f3      	LDI  R31,HIGH(5000)
001295 93fa      	ST   -Y,R31
001296 93ea      	ST   -Y,R30
                +
001297 e6a6     +LDI R26 , LOW ( _0x14 + ( 102 ) )
001298 e0b5     +LDI R27 , HIGH ( _0x14 + ( 102 ) )
                 	__POINTW2MN _0x14,102
001299 940e 1631 	CALL _read_serial_response
00129b 30e0      	CPI  R30,0
00129c f491      	BRNE _0x18
                 ; 0000 00D7         glcd_clear();
00129d 940e 228c 	CALL SUBOPT_0x4
                 ; 0000 00D8         glcd_outtextxy(0, 0, "No Action Resp");
                +
00129f e7a3     +LDI R26 , LOW ( _0x14 + ( 115 ) )
0012a0 e0b5     +LDI R27 , HIGH ( _0x14 + ( 115 ) )
                 	__POINTW2MN _0x14,115
0012a1 940e 22be 	CALL SUBOPT_0xB
                 ; 0000 00D9         delay_ms(500);
                 ; 0000 00DA         // terminate ? I???
                 ; 0000 00DB         send_at_command("AT+HTTPTERM");
                +
0012a3 e8a2     +LDI R26 , LOW ( _0x14 + ( 130 ) )
0012a4 e0b5     +LDI R27 , HIGH ( _0x14 + ( 130 ) )
                 	__POINTW2MN _0x14,130
0012a5 940e 22a3 	CALL SUBOPT_0x7
                 ; 0000 00DC         read_serial_response(response, sizeof(response), 1000, "OK");
0012a7 940e 22af 	CALL SUBOPT_0x8
                +
0012a9 e8ae     +LDI R26 , LOW ( _0x14 + ( 142 ) )
0012aa e0b5     +LDI R27 , HIGH ( _0x14 + ( 142 ) )
                 	__POINTW2MN _0x14,142
0012ab 940e 1631 	CALL _read_serial_response
                 ; 0000 00DD         return 0;
0012ad e0e0      	LDI  R30,LOW(0)
0012ae c067      	RJMP _0x212001B
                 ; 0000 00DE     }
                 ; 0000 00DF 
                 ; 0000 00E0     // 6) Parse status code from response
                 ; 0000 00E1     action_ptr = strstr(response, "+HTTPACTION:");
                 _0x18:
0012af 01fe      	MOVW R30,R28
0012b0 5fe8      	SUBI R30,LOW(-(264))
0012b1 4ffe      	SBCI R31,HIGH(-(264))
0012b2 93fa      	ST   -Y,R31
0012b3 93ea      	ST   -Y,R30
                +
0012b4 e9a1     +LDI R26 , LOW ( _0x14 + ( 145 ) )
0012b5 e0b5     +LDI R27 , HIGH ( _0x14 + ( 145 ) )
                 	__POINTW2MN _0x14,145
0012b6 940e 2139 	CALL _strstr
0012b8 018f      	MOVW R16,R30
                 ; 0000 00E2     if (action_ptr == NULL ||
                 ; 0000 00E3         sscanf(action_ptr, "+HTTPACTION: %d,%d,%d", &method, &status_code, &data_len) != 3) {
0012b9 2400      	CLR  R0
0012ba 1600      	CP   R0,R16
0012bb 0601      	CPC  R0,R17
0012bc f121      	BREQ _0x1A
0012bd 931a      	ST   -Y,R17
0012be 930a      	ST   -Y,R16
                +
0012bf e1ef     +LDI R30 , LOW ( 2 * _0x0 + ( 133 ) )
0012c0 e1fd     +LDI R31 , HIGH ( 2 * _0x0 + ( 133 ) )
                 	__POINTW1FN _0x0,133
0012c1 93fa      	ST   -Y,R31
0012c2 93ea      	ST   -Y,R30
0012c3 b7ed      	IN   R30,SPL
0012c4 b7fe      	IN   R31,SPH
0012c5 9731      	SBIW R30,1
0012c6 940e 24dc 	CALL __PUTPARD1L
0012c8 933f      	PUSH R19
0012c9 932f      	PUSH R18
0012ca b7ed      	IN   R30,SPL
0012cb b7fe      	IN   R31,SPH
0012cc 9731      	SBIW R30,1
0012cd 940e 24dc 	CALL __PUTPARD1L
0012cf 935f      	PUSH R21
0012d0 934f      	PUSH R20
0012d1 01fe      	MOVW R30,R28
0012d2 9672      	ADIW R30,18
0012d3 940e 22b4 	CALL SUBOPT_0x9
0012d5 e08c      	LDI  R24,12
0012d6 940e 20ba 	CALL _sscanf
0012d8 9660      	ADIW R28,16
0012d9 914f      	POP  R20
0012da 915f      	POP  R21
0012db 912f      	POP  R18
0012dc 913f      	POP  R19
0012dd 30e3      	CPI  R30,LOW(0x3)
0012de e0a0      	LDI  R26,HIGH(0x3)
0012df 07fa      	CPC  R31,R26
0012e0 f061      	BREQ _0x19
                 _0x1A:
                 ; 0000 00E4         send_at_command("AT+HTTPTERM");
                +
0012e1 e9ae     +LDI R26 , LOW ( _0x14 + ( 158 ) )
0012e2 e0b5     +LDI R27 , HIGH ( _0x14 + ( 158 ) )
                 	__POINTW2MN _0x14,158
0012e3 940e 22a3 	CALL SUBOPT_0x7
                 ; 0000 00E5         read_serial_response(response, sizeof(response), 1000, "OK");
0012e5 940e 22af 	CALL SUBOPT_0x8
                +
0012e7 eaaa     +LDI R26 , LOW ( _0x14 + ( 170 ) )
0012e8 e0b5     +LDI R27 , HIGH ( _0x14 + ( 170 ) )
                 	__POINTW2MN _0x14,170
0012e9 940e 1631 	CALL _read_serial_response
                 ; 0000 00E6         return 0;
0012eb e0e0      	LDI  R30,LOW(0)
0012ec c029      	RJMP _0x212001B
                 ; 0000 00E7     }
                 ; 0000 00E8 
                 ; 0000 00E9     // 7) Read server response if needed
                 ; 0000 00EA     send_at_command("AT+HTTPREAD");
                 _0x19:
                +
0012ed eaad     +LDI R26 , LOW ( _0x14 + ( 173 ) )
0012ee e0b5     +LDI R27 , HIGH ( _0x14 + ( 173 ) )
                 	__POINTW2MN _0x14,173
0012ef d220      	RCALL _send_at_command
                 ; 0000 00EB     // ??O EC?? ?E? C? HTTPREAD
                 ; 0000 00EC     rx_wr_index0 = rx_rd_index0 = 0;
0012f0 e0e0      	LDI  R30,LOW(0)
0012f1 940e 229b 	CALL SUBOPT_0x6
                 ; 0000 00ED     rx_counter0 = 0;
                 ; 0000 00EE     read_serial_response(response, sizeof(response), 3000, "OK");
0012f3 01fe      	MOVW R30,R28
0012f4 5fe8      	SUBI R30,LOW(-(264))
0012f5 4ffe      	SBCI R31,HIGH(-(264))
0012f6 93fa      	ST   -Y,R31
0012f7 93ea      	ST   -Y,R30
0012f8 e0e0      	LDI  R30,LOW(256)
0012f9 e0f1      	LDI  R31,HIGH(256)
0012fa 93fa      	ST   -Y,R31
0012fb 93ea      	ST   -Y,R30
0012fc ebe8      	LDI  R30,LOW(3000)
0012fd e0fb      	LDI  R31,HIGH(3000)
0012fe 93fa      	ST   -Y,R31
0012ff 93ea      	ST   -Y,R30
                +
001300 eba9     +LDI R26 , LOW ( _0x14 + ( 185 ) )
001301 e0b5     +LDI R27 , HIGH ( _0x14 + ( 185 ) )
                 	__POINTW2MN _0x14,185
001302 940e 1631 	CALL _read_serial_response
                 ; 0000 00EF 
                 ; 0000 00F0     // 8) Terminate HTTP service
                 ; 0000 00F1     send_at_command("AT+HTTPTERM");
                +
001304 ebac     +LDI R26 , LOW ( _0x14 + ( 188 ) )
001305 e0b5     +LDI R27 , HIGH ( _0x14 + ( 188 ) )
                 	__POINTW2MN _0x14,188
001306 940e 22a3 	CALL SUBOPT_0x7
                 ; 0000 00F2     read_serial_response(response, sizeof(response), 1000, "OK");
001308 940e 22af 	CALL SUBOPT_0x8
                +
00130a eca8     +LDI R26 , LOW ( _0x14 + ( 200 ) )
00130b e0b5     +LDI R27 , HIGH ( _0x14 + ( 200 ) )
                 	__POINTW2MN _0x14,200
00130c 940e 1631 	CALL _read_serial_response
                 ; 0000 00F3 
                 ; 0000 00F4     // 9) ?E???
                 ; 0000 00F5     return (status_code == 200) ? 1 : 0;
00130e ece8      	LDI  R30,LOW(200)
00130f e0f0      	LDI  R31,HIGH(200)
001310 17e4      	CP   R30,R20
001311 07f5      	CPC  R31,R21
001312 f411      	BRNE _0x1C
001313 e0e1      	LDI  R30,LOW(1)
001314 c001      	RJMP _0x1D
                 _0x1C:
001315 e0e0      	LDI  R30,LOW(0)
                 _0x1D:
                 _0x212001B:
001316 940e 2510 	CALL __LOADLOCR6
001318 962c      	ADIW R28,12
001319 5fdd      	SUBI R29,-3
00131a 9508      	RET
                 ; 0000 00F6 }
                 ; .FEND
                 
                 	.DSEG
                 _0x14:
000500           	.BYTE 0xCB
                 ;
                 ;
                 ;void handle_sms(void)
                 ; 0000 00FA {
                 
                 	.CSEG
                 _handle_sms:
                 ; .FSTART _handle_sms
                 ; 0000 00FB     const char* server_url = "http://193.5.44.191/home/post/";
                 ; 0000 00FC     int product_id = 0;
                 ; 0000 00FD     int timeout_counter = 0;
                 ; 0000 00FE     char key_pressed;
                 ; 0000 00FF     char *tok, phone[32];
                 ; 0000 0100     tok = strtok(header_buffer, "\"");      // ?IC ??I? +CMT:
00131b 97a3      	SBIW R28,35
00131c 940e 2509 	CALL __SAVELOCR6
                 ;	*server_url -> R16,R17
                 ;	product_id -> R18,R19
                 ;	timeout_counter -> R20,R21
                 ;	key_pressed -> Y+40
                 ;	*tok -> Y+38
                 ;	phone -> Y+6
                +
00131e ec0b     +LDI R16 , LOW ( _0x1F + ( 0 ) )
00131f e015     +LDI R17 , HIGH ( _0x1F + ( 0 ) )
                 	__POINTWRMN 16,17,_0x1F,0
                +
001320 e020     +LDI R18 , LOW ( 0 )
001321 e030     +LDI R19 , HIGH ( 0 )
                 	__GETWRN 18,19,0
                +
001322 e040     +LDI R20 , LOW ( 0 )
001323 e050     +LDI R21 , HIGH ( 0 )
                 	__GETWRN 20,21,0
001324 ece9      	LDI  R30,LOW(_header_buffer)
001325 e0f8      	LDI  R31,HIGH(_header_buffer)
001326 940e 22c4 	CALL SUBOPT_0xC
                 ; 0000 0101     tok = strtok(NULL, "\"");               // C???EC? O?C?? ICI? ??E?O?
001328 e0e0      	LDI  R30,LOW(0)
001329 e0f0      	LDI  R31,HIGH(0)
00132a 940e 22c4 	CALL SUBOPT_0xC
                 ; 0000 0102     if (tok) strcpy(phone, tok);
00132c a1ee      	LDD  R30,Y+38
00132d a1ff      	LDD  R31,Y+38+1
00132e 9730      	SBIW R30,0
00132f f039      	BREQ _0x20
001330 01fe      	MOVW R30,R28
001331 9636      	ADIW R30,6
001332 93fa      	ST   -Y,R31
001333 93ea      	ST   -Y,R30
001334 a5a8      	LDD  R26,Y+40
001335 a5b9      	LDD  R27,Y+40+1
001336 c006      	RJMP _0x54
                 ; 0000 0103     else    strcpy(phone, "unknown");
                 _0x20:
001337 01fe      	MOVW R30,R28
001338 9636      	ADIW R30,6
001339 93fa      	ST   -Y,R31
00133a 93ea      	ST   -Y,R30
                +
00133b eeaa     +LDI R26 , LOW ( _0x1F + ( 31 ) )
00133c e0b5     +LDI R27 , HIGH ( _0x1F + ( 31 ) )
                 	__POINTW2MN _0x1F,31
                 _0x54:
00133d 940e 20fc 	CALL _strcpy
                 ; 0000 0104 
                 ; 0000 0105     glcd_clear();
00133f 940e 228c 	CALL SUBOPT_0x4
                 ; 0000 0106     glcd_outtextxy(0,0,"SMS from:");
                +
001341 efa2     +LDI R26 , LOW ( _0x1F + ( 39 ) )
001342 e0b5     +LDI R27 , HIGH ( _0x1F + ( 39 ) )
                 	__POINTW2MN _0x1F,39
001343 940e 1d63 	CALL _glcd_outtextxy
                 ; 0000 0107     glcd_outtextxy(0,10,phone);
001345 940e 22cd 	CALL SUBOPT_0xD
001347 01de      	MOVW R26,R28
001348 9618      	ADIW R26,8
001349 940e 1d63 	CALL _glcd_outtextxy
                 ; 0000 0108     glcd_outtextxy(0,20,content_buffer);
00134b e0e0      	LDI  R30,LOW(0)
00134c 93ea      	ST   -Y,R30
00134d e1e4      	LDI  R30,LOW(20)
00134e 93ea      	ST   -Y,R30
00134f e2ad      	LDI  R26,LOW(_content_buffer)
001350 e0b9      	LDI  R27,HIGH(_content_buffer)
001351 940e 1d63 	CALL _glcd_outtextxy
                 ; 0000 0109     delay_ms(2000);
001353 eda0      	LDI  R26,LOW(2000)
001354 e0b7      	LDI  R27,HIGH(2000)
001355 940e 245b 	CALL _delay_ms
                 ; 0000 010A 
                 ; 0000 010B //////////////////////////////////////////////////////////////////////////////////////////////
                 ; 0000 010C 
                 ; 0000 010D 
                 ; 0000 010E     if (content_buffer == '1' || content_buffer == '2' || content_buffer == '3')
001357 e2ad      	LDI  R26,LOW(_content_buffer)
001358 e0b9      	LDI  R27,HIGH(_content_buffer)
001359 97d1      	SBIW R26,49
00135a f049      	BREQ _0x23
00135b e2ad      	LDI  R26,LOW(_content_buffer)
00135c e0b9      	LDI  R27,HIGH(_content_buffer)
00135d 97d2      	SBIW R26,50
00135e f029      	BREQ _0x23
00135f e2ad      	LDI  R26,LOW(_content_buffer)
001360 e0b9      	LDI  R27,HIGH(_content_buffer)
001361 97d3      	SBIW R26,51
001362 f009      	BREQ _0x23
001363 c065      	RJMP _0x22
                 _0x23:
                 ; 0000 010F     {
                 ; 0000 0110 
                 ; 0000 0111         if (send_json_post(server_url, phone))
001364 931a      	ST   -Y,R17
001365 930a      	ST   -Y,R16
001366 01de      	MOVW R26,R28
001367 9618      	ADIW R26,8
001368 de94      	RCALL _send_json_post
001369 30e0      	CPI  R30,0
00136a f409      	BRNE PC+2
00136b c056      	RJMP _0x25
                 ; 0000 0112         {
                 ; 0000 0113             glcd_clear();
00136c 940e 228c 	CALL SUBOPT_0x4
                 ; 0000 0114 
                 ; 0000 0115             draw_bitmap(0, 0, adad_ra_vared_namaeid, 128, 64);
00136e e7e0      	LDI  R30,LOW(_adad_ra_vared_namaeid*2)
00136f e0f6      	LDI  R31,HIGH(_adad_ra_vared_namaeid*2)
001370 940e 2292 	CALL SUBOPT_0x5
                 ; 0000 0116             draw_bitmap(0, 32, square, 128, 32);
001372 93ea      	ST   -Y,R30
001373 e2e0      	LDI  R30,LOW(32)
001374 93ea      	ST   -Y,R30
001375 e7e0      	LDI  R30,LOW(_square*2)
001376 e1fa      	LDI  R31,HIGH(_square*2)
001377 940e 22d2 	CALL SUBOPT_0xE
                 ; 0000 0117             glcd_outtextxy(64, 42, content_buffer);
001379 e4e0      	LDI  R30,LOW(64)
00137a 93ea      	ST   -Y,R30
00137b e2ea      	LDI  R30,LOW(42)
00137c 93ea      	ST   -Y,R30
00137d e2ad      	LDI  R26,LOW(_content_buffer)
00137e e0b9      	LDI  R27,HIGH(_content_buffer)
00137f 940e 1d63 	CALL _glcd_outtextxy
                 ; 0000 0118 
                 ; 0000 0119             key_pressed = 0;
001381 e0e0      	LDI  R30,LOW(0)
001382 a7e8      	STD  Y+40,R30
                 ; 0000 011A             for (timeout_counter = 0; timeout_counter < 200; timeout_counter++)
                +
001383 e040     +LDI R20 , LOW ( 0 )
001384 e050     +LDI R21 , HIGH ( 0 )
                 	__GETWRN 20,21,0
                 _0x27:
                +
001385 3c48     +CPI R20 , LOW ( 200 )
001386 e0e0     +LDI R30 , HIGH ( 200 )
001387 075e     +CPC R21 , R30
                 	__CPWRN 20,21,200
001388 f464      	BRGE _0x28
                 ; 0000 011B             {
                 ; 0000 011C                 key_pressed = get_key();
001389 940e 167d 	CALL _get_key
00138b a7e8      	STD  Y+40,R30
                 ; 0000 011D                 if (key_pressed != 0) break;
00138c 30e0      	CPI  R30,0
00138d f439      	BRNE _0x28
                 ; 0000 011E                 delay_ms(10);
00138e e0aa      	LDI  R26,LOW(10)
00138f e0b0      	LDI  R27,0
001390 940e 245b 	CALL _delay_ms
                 ; 0000 011F             }
                +
001392 5f4f     +SUBI R20 , LOW ( - 1 )
001393 4f5f     +SBCI R21 , HIGH ( - 1 )
                 	__ADDWRN 20,21,1
001394 cff0      	RJMP _0x27
                 _0x28:
                 ; 0000 0120 
                 ; 0000 0121             if (key_pressed == 0)
001395 a5e8      	LDD  R30,Y+40
001396 30e0      	CPI  R30,0
001397 f469      	BRNE _0x2A
                 ; 0000 0122             {
                 ; 0000 0123                 glcd_clear();
001398 940e 19ea 	CALL _glcd_clear
                 ; 0000 0124                 glcd_outtextxy(10, 25, "Timeout! Try again.");
00139a e0ea      	LDI  R30,LOW(10)
00139b 93ea      	ST   -Y,R30
00139c e1e9      	LDI  R30,LOW(25)
00139d 93ea      	ST   -Y,R30
                +
00139e efac     +LDI R26 , LOW ( _0x1F + ( 49 ) )
00139f e0b5     +LDI R27 , HIGH ( _0x1F + ( 49 ) )
                 	__POINTW2MN _0x1F,49
0013a0 940e 1d63 	CALL _glcd_outtextxy
                 ; 0000 0125                 delay_ms(200);
0013a2 eca8      	LDI  R26,LOW(200)
0013a3 e0b0      	LDI  R27,0
0013a4 c01a      	RJMP _0x55
                 ; 0000 0126             }
                 ; 0000 0127             else
                 _0x2A:
                 ; 0000 0128             {
                 ; 0000 0129 
                 ; 0000 012A                 if (key_pressed == content_buffer)
0013a5 e2ed      	LDI  R30,LOW(_content_buffer)
0013a6 e0f9      	LDI  R31,HIGH(_content_buffer)
0013a7 a5a8      	LDD  R26,Y+40
0013a8 e0b0      	LDI  R27,0
0013a9 17ea      	CP   R30,R26
0013aa 07fb      	CPC  R31,R27
0013ab f459      	BRNE _0x2C
                 ; 0000 012B                 {
                 ; 0000 012C                     glcd_clear();
0013ac 940e 19ea 	CALL _glcd_clear
                 ; 0000 012D                     product_id = content_buffer[0] - '0';
0013ae 91e0 092d 	LDS  R30,_content_buffer
0013b0 e0f0      	LDI  R31,0
0013b1 97f0      	SBIW R30,48
0013b2 019f      	MOVW R18,R30
                 ; 0000 012E                     activate_motor(product_id);
0013b3 01d9      	MOVW R26,R18
0013b4 940e 16c7 	CALL _activate_motor
                 ; 0000 012F                 }
                 ; 0000 0130                 else
0013b6 c00a      	RJMP _0x2D
                 _0x2C:
                 ; 0000 0131                 {
                 ; 0000 0132                     glcd_clear();
0013b7 940e 228c 	CALL SUBOPT_0x4
                 ; 0000 0133 //                                    glcd_outtextxy(5, 25, "Error in entry!");
                 ; 0000 0134                     draw_bitmap(0, 0, shomare_soton_dorost_vared_nashode, 128, 32);
0013b9 e7e0      	LDI  R30,LOW(_shomare_soton_dorost_vared_nashode*2)
0013ba e1f2      	LDI  R31,HIGH(_shomare_soton_dorost_vared_nashode*2)
0013bb 940e 22d2 	CALL SUBOPT_0xE
                 ; 0000 0135                     delay_ms(300);
0013bd e2ac      	LDI  R26,LOW(300)
0013be e0b1      	LDI  R27,HIGH(300)
                 _0x55:
0013bf 940e 245b 	CALL _delay_ms
                 ; 0000 0136                 }
                 _0x2D:
                 ; 0000 0137             }
                 ; 0000 0138         }
                 ; 0000 0139         else
0013c1 c006      	RJMP _0x2E
                 _0x25:
                 ; 0000 013A         {
                 ; 0000 013B             glcd_clear();
0013c2 940e 228c 	CALL SUBOPT_0x4
                 ; 0000 013C //                        glcd_outtextxy(0, 25, "You are not authorized!");
                 ; 0000 013D             draw_bitmap(0, 0, tedad_bish_az_had, 128, 64);
0013c4 e7e0      	LDI  R30,LOW(_tedad_bish_az_had*2)
0013c5 e1f6      	LDI  R31,HIGH(_tedad_bish_az_had*2)
0013c6 940e 22d9 	CALL SUBOPT_0xF
                 ; 0000 013E             delay_ms(300);
                 ; 0000 013F         }
                 _0x2E:
                 ; 0000 0140     }
                 ; 0000 0141 
                 ; 0000 0142     else
0013c8 c006      	RJMP _0x2F
                 _0x22:
                 ; 0000 0143     {
                 ; 0000 0144         glcd_clear();
0013c9 940e 228c 	CALL SUBOPT_0x4
                 ; 0000 0145         draw_bitmap(0, 0, shomare_dorost_payamak_nashode, 128, 64);
0013cb e7e0      	LDI  R30,LOW(_shomare_dorost_payamak_nashode*2)
0013cc e0fe      	LDI  R31,HIGH(_shomare_dorost_payamak_nashode*2)
0013cd 940e 22d9 	CALL SUBOPT_0xF
                 ; 0000 0146         delay_ms(300);
                 ; 0000 0147     }
                 _0x2F:
                 ; 0000 0148 
                 ; 0000 0149 ////////////////////////////////////////////////////////////////////////////////////////////
                 ; 0000 014A 
                 ; 0000 014B 
                 ; 0000 014C     sms_received = 0;  // A?CI? E?C? ??C? E?I?
0013cf 94e8      	CLT
0013d0 f821      	BLD  R2,1
                 ; 0000 014D }
0013d1 940e 2510 	CALL __LOADLOCR6
0013d3 96a9      	ADIW R28,41
0013d4 9508      	RET
                 ; .FEND
                 
                 	.DSEG
                 _0x1F:
0005cb           	.BYTE 0x45
                 ;
                 ;
                 ;void process_uart_data(void)
                 ; 0000 0151 {
                 
                 	.CSEG
                 _process_uart_data:
                 ; .FSTART _process_uart_data
                 ; 0000 0152     static uint8_t phase = 0;   // 0=I?C?I? ?I?? 1=I?C?I? ??E?C
                 ; 0000 0153     static uint8_t h_idx = 0;
                 ; 0000 0154     static uint8_t c_idx = 0;
                 ; 0000 0155     char d;
                 ; 0000 0156 
                 ; 0000 0157     while (rx_counter0 > 0 && !sms_received) {
0013d5 931a      	ST   -Y,R17
                 ;	d -> R17
                 _0x30:
0013d6 91a0 08be 	LDS  R26,_rx_counter0
0013d8 30a1      	CPI  R26,LOW(0x1)
0013d9 f010      	BRLO _0x33
0013da fe21      	SBRS R2,1
0013db c001      	RJMP _0x34
                 _0x33:
0013dc c058      	RJMP _0x32
                 _0x34:
                 ; 0000 0158         d = getchar();
0013dd dd9c      	RCALL _getchar
0013de 2f1e      	MOV  R17,R30
                 ; 0000 0159 
                 ; 0000 015A         if (phase == 0) {
0013df 91e0 09f5 	LDS  R30,_phase_S0000007000
0013e1 30e0      	CPI  R30,0
0013e2 f571      	BRNE _0x35
                 ; 0000 015B             // -- I?C?I? ?I? EC '\n' --
                 ; 0000 015C             if (d == '\n') {
0013e3 301a      	CPI  R17,10
0013e4 f4d9      	BRNE _0x36
                 ; 0000 015D                 header_buffer[h_idx] = '\0';
0013e5 91e0 09f6 	LDS  R30,_h_idx_S0000007000
0013e7 e0f0      	LDI  R31,0
0013e8 53e7      	SUBI R30,LOW(-_header_buffer)
0013e9 4ff7      	SBCI R31,HIGH(-_header_buffer)
0013ea e0a0      	LDI  R26,LOW(0)
0013eb 83a0      	STD  Z+0,R26
                 ; 0000 015E                 // ??? C?? ?I? ?C??? SMS ECOI? E??? ??CU I?C?I? ??E?C
                 ; 0000 015F                 if (strstr(header_buffer, "+CMT:") != NULL) {
0013ec ece9      	LDI  R30,LOW(_header_buffer)
0013ed e0f8      	LDI  R31,HIGH(_header_buffer)
0013ee 93fa      	ST   -Y,R31
0013ef 93ea      	ST   -Y,R30
                +
0013f0 e1a0     +LDI R26 , LOW ( _0x38 + ( 0 ) )
0013f1 e0b6     +LDI R27 , HIGH ( _0x38 + ( 0 ) )
                 	__POINTW2MN _0x38,0
0013f2 940e 2139 	CALL _strstr
0013f4 9730      	SBIW R30,0
0013f5 f031      	BREQ _0x37
                 ; 0000 0160                     phase = 1;
0013f6 e0e1      	LDI  R30,LOW(1)
0013f7 93e0 09f5 	STS  _phase_S0000007000,R30
                 ; 0000 0161                     c_idx = 0;  // A?CI? E?C? ?? ??I? content_buffer
0013f9 e0e0      	LDI  R30,LOW(0)
0013fa 93e0 09f7 	STS  _c_idx_S0000007000,R30
                 ; 0000 0162                 }
                 ; 0000 0163                 // ???O? h_idx ?C ???E ?? EC I??? E?I? C? C?? ?? O??I
                 ; 0000 0164                 h_idx = 0;
                 _0x37:
0013fc e0e0      	LDI  R30,LOW(0)
0013fd 93e0 09f6 	STS  _h_idx_S0000007000,R30
                 ; 0000 0165             }
                 ; 0000 0166             else if (d != '\r') {
0013ff c010      	RJMP _0x39
                 _0x36:
001400 301d      	CPI  R17,13
001401 f071      	BREQ _0x3A
                 ; 0000 0167                 // ?I???? ?C?C?E? I? header_buffer
                 ; 0000 0168                 if (h_idx < sizeof(header_buffer) - 1)
001402 91a0 09f6 	LDS  R26,_h_idx_S0000007000
001404 36a3      	CPI  R26,LOW(0x63)
001405 f450      	BRSH _0x3B
                 ; 0000 0169                     header_buffer[h_idx++] = d;
001406 91e0 09f6 	LDS  R30,_h_idx_S0000007000
001408 5fef      	SUBI R30,-LOW(1)
001409 93e0 09f6 	STS  _h_idx_S0000007000,R30
00140b 50e1      	SUBI R30,LOW(1)
00140c e0f0      	LDI  R31,0
00140d 53e7      	SUBI R30,LOW(-_header_buffer)
00140e 4ff7      	SBCI R31,HIGH(-_header_buffer)
00140f 8310      	ST   Z,R17
                 ; 0000 016A             }
                 _0x3B:
                 ; 0000 016B         }
                 _0x3A:
                 _0x39:
                 ; 0000 016C         else {
001410 c023      	RJMP _0x3C
                 _0x35:
                 ; 0000 016D             // -- I?C?I? ??E?C EC '\n' --
                 ; 0000 016E             if (d == '\n') {
001411 301a      	CPI  R17,10
001412 f489      	BRNE _0x3D
                 ; 0000 016F                 content_buffer[c_idx] = '\0';
001413 91e0 09f7 	LDS  R30,_c_idx_S0000007000
001415 e0f0      	LDI  R31,0
001416 5de3      	SUBI R30,LOW(-_content_buffer)
001417 4ff6      	SBCI R31,HIGH(-_content_buffer)
001418 e0a0      	LDI  R26,LOW(0)
001419 83a0      	STD  Z+0,R26
                 ; 0000 0170                 sms_received = 1;    // ?? SMS ?C?? I??C?E OI
00141a 9468      	SET
00141b f821      	BLD  R2,1
                 ; 0000 0171                 phase = 0;           // E?C? ??C? E?I? I?EC?? E??????I?? E? ?C? 0
00141c e0e0      	LDI  R30,LOW(0)
00141d 93e0 09f5 	STS  _phase_S0000007000,R30
                 ; 0000 0172                 h_idx = 0;           // C??I????C ?C ?? ?C? ???????
00141f 93e0 09f6 	STS  _h_idx_S0000007000,R30
                 ; 0000 0173                 c_idx = 0;
001421 93e0 09f7 	STS  _c_idx_S0000007000,R30
                 ; 0000 0174             }
                 ; 0000 0175             else if (d != '\r') {
001423 c010      	RJMP _0x3E
                 _0x3D:
001424 301d      	CPI  R17,13
001425 f071      	BREQ _0x3F
                 ; 0000 0176                 if (c_idx < sizeof(content_buffer) - 1)
001426 91a0 09f7 	LDS  R26,_c_idx_S0000007000
001428 36a3      	CPI  R26,LOW(0x63)
001429 f450      	BRSH _0x40
                 ; 0000 0177                     content_buffer[c_idx++] = d;
00142a 91e0 09f7 	LDS  R30,_c_idx_S0000007000
00142c 5fef      	SUBI R30,-LOW(1)
00142d 93e0 09f7 	STS  _c_idx_S0000007000,R30
00142f 50e1      	SUBI R30,LOW(1)
001430 e0f0      	LDI  R31,0
001431 5de3      	SUBI R30,LOW(-_content_buffer)
001432 4ff6      	SBCI R31,HIGH(-_content_buffer)
001433 8310      	ST   Z,R17
                 ; 0000 0178             }
                 _0x40:
                 ; 0000 0179         }
                 _0x3F:
                 _0x3E:
                 _0x3C:
                 ; 0000 017A     }
001434 cfa1      	RJMP _0x30
                 _0x32:
                 ; 0000 017B }
001435 940c 18e2 	JMP  _0x2120011
                 ; .FEND
                 
                 	.DSEG
                 _0x38:
000610           	.BYTE 0x6
                 ;
                 ;//
                 ;//unsigned char init_GPRS(void) {
                 ;//    char cmd[64], resp[256];
                 ;//    char *p, *end;
                 ;//    int  len;
                 ;//
                 ;//    // ??O ??I? EC?? ????? UART
                 ;//    rx_wr_index0 = rx_rd_index0 = 0;
                 ;//    rx_counter0  = 0;
                 ;//    rx_buffer_overflow0 = 0;
                 ;//
                 ;//    glcd_clear();
                 ;//    glcd_outtextxy(0, 0, "Init GPRS...");
                 ;//
                 ;//    // ?? I?E?? AT ?C?? E?C? C????C?
                 ;//    send_at_command("AT");
                 ;//    if (!read_serial_response(resp, sizeof(resp), 1000, "OK")) {
                 ;//        glcd_outtextxy(0,10,"No AT OK"); delay_ms(2000); return 0;
                 ;//    }
                 ;//
                 ;//    // 1) U?? ??C? ??I? Sleep
                 ;//    send_at_command("AT+CSCLK=0");
                 ;//    if (!read_serial_response(resp, sizeof(resp), 1000, "OK")) {
                 ;//        glcd_outtextxy(0,10,"No CSCLK OK"); delay_ms(2000); return 0;
                 ;//    }
                 ;//
                 ;//    // 2) C?EUC? E?C? EEE OE??
                 ;//    glcd_clear(); glcd_outtextxy(0,0,"Wait Network...");
                 ;//    if (!wait_for_network()) {
                 ;//        glcd_outtextxy(0,10,"Net Fail"); delay_ms(2000); return 0;
                 ;//    }
                 ;//
                 ;//    // 3) C?EUC? E?C? Attach GPRS
                 ;//    glcd_clear(); glcd_outtextxy(0,0,"Wait GPRS...");
                 ;//    if (!wait_for_attach()) {
                 ;//        glcd_outtextxy(0,10,"Attach Fail"); delay_ms(2000); return 0;
                 ;//    }
                 ;//
                 ;//    // 4) E?U?? Contype
                 ;//    send_at_command("AT+SAPBR=3,1,\"Contype\",\"GPRS\"");
                 ;//    if (!read_serial_response(resp, sizeof(resp), 1000, "OK")) {
                 ;//        glcd_outtextxy(0,10,"No Contype"); delay_ms(2000); return 0;
                 ;//    }
                 ;//
                 ;//    // 5) E?U?? APN
                 ;//    sprintf(cmd, "AT+SAPBR=3,1,\"APN\",\"%s\"", APN);
                 ;//    send_at_command(cmd);
                 ;//    if (!read_serial_response(resp, sizeof(resp), 2000, "OK")) {
                 ;//        glcd_outtextxy(0,10,"No APN OK"); delay_ms(2000); return 0;
                 ;//    }
                 ;//
                 ;//    // 6) EC? ??I? ?C?C? (EC 30 EC??? ?E?)
                 ;//    send_at_command("AT+SAPBR=1,1");
                 ;//    if (!read_serial_response(resp, sizeof(resp), 30000, "OK")) {
                 ;//        glcd_outtextxy(0,10,"SAPBR OPEN FAIL"); delay_ms(2000); return 0;
                 ;//    }
                 ;//
                 ;//    // 7) I?I?C?E IP
                 ;//    glcd_clear(); glcd_outtextxy(0,0,"Fetch IP...");
                 ;//    rx_wr_index0 = rx_rd_index0 = 0; rx_counter0 = 0;
                 ;//    send_at_command("AT+SAPBR=2,1");
                 ;//    if (!read_serial_response(resp, sizeof(resp), 10000, "+SAPBR: 1,1,")) {
                 ;//        glcd_outtextxy(0,10,"No IP Resp"); delay_ms(2000); return 0;
                 ;//    }
                 ;//
                 ;//    // 8) C?EI?C? IP
                 ;//    p = strstr(resp, "+SAPBR: 1,1,");
                 ;//    p += strlen("+SAPBR: 1,1,");
                 ;//    while (*p == ' ') p++;
                 ;//    end = p;
                 ;//    while (*end && *end != '\r' && *end != '\n') end++;
                 ;//    len = end - p;
                 ;//    if (len <= 0) {
                 ;//        glcd_outtextxy(0,10,"No IP Found"); delay_ms(2000); return 0;
                 ;//    }
                 ;//    if (len >= (int)sizeof(ip_address_buffer))
                 ;//        len = sizeof(ip_address_buffer) - 1;
                 ;//    memcpy(ip_address_buffer, p, len);
                 ;//    ip_address_buffer[len] = '\0';
                 ;//
                 ;//    // 9) ??C?O IP
                 ;//    glcd_clear();
                 ;//    glcd_outtextxy(0, 0, "GPRS OK, IP:");
                 ;//    glcd_outtextxy(0,10, ip_address_buffer);
                 ;//    delay_ms(3000);
                 ;//
                 ;//    return 1;
                 ;//}
                 ;
                 ;
                 ;
                 ;
                 ;
                 ;
                 ;void main(void)
                 ; 0000 01DC {
                 
                 	.CSEG
                 _main:
                 ; .FSTART _main
                 ; 0000 01DD 
                 ; 0000 01DE     GLCDINIT_t glcd_init_data;
                 ; 0000 01DF 
                 ; 0000 01E0 
                 ; 0000 01E1     DDRA=(0<<DDA7) | (0<<DDA6) | (0<<DDA5) | (0<<DDA4) | (0<<DDA3) | (0<<DDA2) | (0<<DDA1) | (0<<DDA0);
001437 9726      	SBIW R28,6
                 ;	glcd_init_data -> Y+0
001438 e0e0      	LDI  R30,LOW(0)
001439 bbea      	OUT  0x1A,R30
                 ; 0000 01E2     PORTA=(0<<PORTA7) | (0<<PORTA6) | (0<<PORTA5) | (0<<PORTA4) | (0<<PORTA3) | (0<<PORTA2) | (0<<PORTA1) | (0<<PORTA0);
00143a bbeb      	OUT  0x1B,R30
                 ; 0000 01E3 
                 ; 0000 01E4     DDRB=(0<<DDB7) | (0<<DDB6) | (0<<DDB5) | (0<<DDB4) | (0<<DDB3) | (0<<DDB2) | (0<<DDB1) | (0<<DDB0);
00143b bbe7      	OUT  0x17,R30
                 ; 0000 01E5     PORTB=(1<<PORTB7) | (1<<PORTB6) | (1<<PORTB5) | (1<<PORTB4) | (0<<PORTB3) | (0<<PORTB2) | (0<<PORTB1) | (0<<PORTB0);
00143c efe0      	LDI  R30,LOW(240)
00143d bbe8      	OUT  0x18,R30
                 ; 0000 01E6 
                 ; 0000 01E7     DDRC=(0<<DDC7) | (0<<DDC6) | (0<<DDC5) | (0<<DDC4) | (0<<DDC3) | (1<<DDC2) | (1<<DDC1) | (1<<DDC0);
00143e e0e7      	LDI  R30,LOW(7)
00143f bbe4      	OUT  0x14,R30
                 ; 0000 01E8     PORTC=(1<<PORTC7) | (1<<PORTC6) | (1<<PORTC5) | (1<<PORTC4) | (0<<PORTC3) | (0<<PORTC2) | (0<<PORTC1) | (0<<PORTC0);
001440 efe0      	LDI  R30,LOW(240)
001441 bbe5      	OUT  0x15,R30
                 ; 0000 01E9 
                 ; 0000 01EA     DDRD=(0<<DDD7) | (0<<DDD6) | (0<<DDD5) | (0<<DDD4) | (0<<DDD3) | (0<<DDD2) | (0<<DDD1) | (0<<DDD0);
001442 e0e0      	LDI  R30,LOW(0)
001443 bbe1      	OUT  0x11,R30
                 ; 0000 01EB     PORTD=(0<<PORTD7) | (0<<PORTD6) | (0<<PORTD5) | (0<<PORTD4) | (0<<PORTD3) | (0<<PORTD2) | (1<<PORTD1) | (0<<PORTD0);
001444 e0e2      	LDI  R30,LOW(2)
001445 bbe2      	OUT  0x12,R30
                 ; 0000 01EC 
                 ; 0000 01ED     DDRE=(0<<DDE7) | (0<<DDE6) | (1<<DDE5) | (1<<DDE4) | (1<<DDE3) | (1<<DDE2) | (0<<DDE1) | (0<<DDE0);
001446 e3ec      	LDI  R30,LOW(60)
001447 b9e2      	OUT  0x2,R30
                 ; 0000 01EE     PORTE=(0<<PORTE7) | (0<<PORTE6) | (0<<PORTE5) | (0<<PORTE4) | (0<<PORTE3) | (0<<PORTE2) | (0<<PORTE1) | (0<<PORTE0);
001448 e0e0      	LDI  R30,LOW(0)
001449 b9e3      	OUT  0x3,R30
                 ; 0000 01EF 
                 ; 0000 01F0     DDRF=(0<<DDF7) | (0<<DDF6) | (0<<DDF5) | (0<<DDF4) | (0<<DDF3) | (0<<DDF2) | (0<<DDF1) | (0<<DDF0);
00144a 93e0 0061 	STS  97,R30
                 ; 0000 01F1     PORTF=(0<<PORTF7) | (0<<PORTF6) | (0<<PORTF5) | (0<<PORTF4) | (0<<PORTF3) | (0<<PORTF2) | (0<<PORTF1) | (0<<PORTF0);
00144c 93e0 0062 	STS  98,R30
                 ; 0000 01F2 
                 ; 0000 01F3     DDRG=(0<<DDG4) | (0<<DDG3) | (0<<DDG2) | (0<<DDG1) | (0<<DDG0);
00144e 93e0 0064 	STS  100,R30
                 ; 0000 01F4     PORTG=(0<<PORTG4) | (0<<PORTG3) | (0<<PORTG2) | (0<<PORTG1) | (0<<PORTG0);
001450 93e0 0065 	STS  101,R30
                 ; 0000 01F5 
                 ; 0000 01F6     // Timer Period: 32.768 ms
                 ; 0000 01F7     ASSR=0<<AS0;
001452 bfe0      	OUT  0x30,R30
                 ; 0000 01F8     TCCR0=(0<<WGM00) | (0<<COM01) | (0<<COM00) | (0<<WGM01) | (1<<CS02) | (1<<CS01) | (1<<CS00);
001453 e0e7      	LDI  R30,LOW(7)
001454 bfe3      	OUT  0x33,R30
                 ; 0000 01F9     TCNT0=0x00;
001455 e0e0      	LDI  R30,LOW(0)
001456 bfe2      	OUT  0x32,R30
                 ; 0000 01FA     OCR0=0x00;
001457 bfe1      	OUT  0x31,R30
                 ; 0000 01FB 
                 ; 0000 01FC     TCCR1A=(0<<COM1A1) | (0<<COM1A0) | (0<<COM1B1) | (0<<COM1B0) | (0<<COM1C1) | (0<<COM1C0) | (0<<WGM11) | (0<<WGM10);
001458 bdef      	OUT  0x2F,R30
                 ; 0000 01FD     TCCR1B=(0<<ICNC1) | (0<<ICES1) | (0<<WGM13) | (0<<WGM12) | (0<<CS12) | (0<<CS11) | (0<<CS10);
001459 bdee      	OUT  0x2E,R30
                 ; 0000 01FE     TCNT1H=0x00;
00145a bded      	OUT  0x2D,R30
                 ; 0000 01FF     TCNT1L=0x00;
00145b bdec      	OUT  0x2C,R30
                 ; 0000 0200     ICR1H=0x00;
00145c bde7      	OUT  0x27,R30
                 ; 0000 0201     ICR1L=0x00;
00145d bde6      	OUT  0x26,R30
                 ; 0000 0202     OCR1AH=0x00;
00145e bdeb      	OUT  0x2B,R30
                 ; 0000 0203     OCR1AL=0x00;
00145f bdea      	OUT  0x2A,R30
                 ; 0000 0204     OCR1BH=0x00;
001460 bde9      	OUT  0x29,R30
                 ; 0000 0205     OCR1BL=0x00;
001461 bde8      	OUT  0x28,R30
                 ; 0000 0206     OCR1CH=0x00;
001462 93e0 0079 	STS  121,R30
                 ; 0000 0207     OCR1CL=0x00;
001464 93e0 0078 	STS  120,R30
                 ; 0000 0208 
                 ; 0000 0209     TCCR2=(0<<WGM20) | (0<<COM21) | (0<<COM20) | (0<<WGM21) | (0<<CS22) | (0<<CS21) | (0<<CS20);
001466 bde5      	OUT  0x25,R30
                 ; 0000 020A     TCNT2=0x00;
001467 bde4      	OUT  0x24,R30
                 ; 0000 020B     OCR2=0x00;
001468 bde3      	OUT  0x23,R30
                 ; 0000 020C 
                 ; 0000 020D 
                 ; 0000 020E     TCCR3A=(0<<COM3A1) | (0<<COM3A0) | (0<<COM3B1) | (0<<COM3B0) | (0<<COM3C1) | (0<<COM3C0) | (0<<WGM31) | (0<<WGM30);
001469 93e0 008b 	STS  139,R30
                 ; 0000 020F     TCCR3B=(0<<ICNC3) | (0<<ICES3) | (0<<WGM33) | (0<<WGM32) | (0<<CS32) | (0<<CS31) | (0<<CS30);
00146b 93e0 008a 	STS  138,R30
                 ; 0000 0210     TCNT3H=0x00;
00146d 93e0 0089 	STS  137,R30
                 ; 0000 0211     TCNT3L=0x00;
00146f 93e0 0088 	STS  136,R30
                 ; 0000 0212     ICR3H=0x00;
001471 93e0 0081 	STS  129,R30
                 ; 0000 0213     ICR3L=0x00;
001473 93e0 0080 	STS  128,R30
                 ; 0000 0214     OCR3AH=0x00;
001475 93e0 0087 	STS  135,R30
                 ; 0000 0215     OCR3AL=0x00;
001477 93e0 0086 	STS  134,R30
                 ; 0000 0216     OCR3BH=0x00;
001479 93e0 0085 	STS  133,R30
                 ; 0000 0217     OCR3BL=0x00;
00147b 93e0 0084 	STS  132,R30
                 ; 0000 0218     OCR3CH=0x00;
00147d 93e0 0083 	STS  131,R30
                 ; 0000 0219     OCR3CL=0x00;
00147f 93e0 0082 	STS  130,R30
                 ; 0000 021A 
                 ; 0000 021B     TIMSK=(0<<OCIE2) | (0<<TOIE2) | (0<<TICIE1) | (0<<OCIE1A) | (0<<OCIE1B) | (0<<TOIE1) | (0<<OCIE0) | (1<<TOIE0);
001481 e0e1      	LDI  R30,LOW(1)
001482 bfe7      	OUT  0x37,R30
                 ; 0000 021C     ETIMSK=(0<<TICIE3) | (0<<OCIE3A) | (0<<OCIE3B) | (0<<TOIE3) | (0<<OCIE3C) | (0<<OCIE1C);
001483 e0e0      	LDI  R30,LOW(0)
001484 93e0 007d 	STS  125,R30
                 ; 0000 021D 
                 ; 0000 021E     EICRA=(0<<ISC31) | (0<<ISC30) | (0<<ISC21) | (0<<ISC20) | (0<<ISC11) | (0<<ISC10) | (0<<ISC01) | (0<<ISC00);
001486 93e0 006a 	STS  106,R30
                 ; 0000 021F     EICRB=(0<<ISC71) | (0<<ISC70) | (0<<ISC61) | (0<<ISC60) | (0<<ISC51) | (0<<ISC50) | (0<<ISC41) | (0<<ISC40);
001488 bfea      	OUT  0x3A,R30
                 ; 0000 0220     EIMSK=(0<<INT7) | (0<<INT6) | (0<<INT5) | (0<<INT4) | (0<<INT3) | (0<<INT2) | (0<<INT1) | (0<<INT0);
001489 bfe9      	OUT  0x39,R30
                 ; 0000 0221 
                 ; 0000 0222     UCSR0A=(0<<RXC0) | (0<<TXC0) | (0<<UDRE0) | (0<<FE0) | (0<<DOR0) | (0<<UPE0) | (0<<U2X0) | (0<<MPCM0);
00148a b9eb      	OUT  0xB,R30
                 ; 0000 0223     UCSR0B=(1<<RXCIE0) | (0<<TXCIE0) | (0<<UDRIE0) | (1<<RXEN0) | (1<<TXEN0) | (0<<UCSZ02) | (0<<RXB80) | (0<<TXB80);
00148b e9e8      	LDI  R30,LOW(152)
00148c b9ea      	OUT  0xA,R30
                 ; 0000 0224     UCSR0C=(0<<UMSEL0) | (0<<UPM01) | (0<<UPM00) | (0<<USBS0) | (1<<UCSZ01) | (1<<UCSZ00) | (0<<UCPOL0);
00148d e0e6      	LDI  R30,LOW(6)
00148e 93e0 0095 	STS  149,R30
                 ; 0000 0225     UBRR0H=0x00;
001490 e0e0      	LDI  R30,LOW(0)
001491 93e0 0090 	STS  144,R30
                 ; 0000 0226     UBRR0L=0x33;
001493 e3e3      	LDI  R30,LOW(51)
001494 b9e9      	OUT  0x9,R30
                 ; 0000 0227 
                 ; 0000 0228     UCSR1B=(0<<RXCIE1) | (0<<TXCIE1) | (0<<UDRIE1) | (0<<RXEN1) | (0<<TXEN1) | (0<<UCSZ12) | (0<<RXB81) | (0<<TXB81);
001495 e0e0      	LDI  R30,LOW(0)
001496 93e0 009a 	STS  154,R30
                 ; 0000 0229 
                 ; 0000 022A     ACSR=(1<<ACD) | (0<<ACBG) | (0<<ACO) | (0<<ACI) | (0<<ACIE) | (0<<ACIC) | (0<<ACIS1) | (0<<ACIS0);
001498 e8e0      	LDI  R30,LOW(128)
001499 b9e8      	OUT  0x8,R30
                 ; 0000 022B     SFIOR=(0<<ACME);
00149a e0e0      	LDI  R30,LOW(0)
00149b bde0      	OUT  0x20,R30
                 ; 0000 022C 
                 ; 0000 022D     ADCSRA=(0<<ADEN) | (0<<ADSC) | (0<<ADFR) | (0<<ADIF) | (0<<ADIE) | (0<<ADPS2) | (0<<ADPS1) | (0<<ADPS0);
00149c b9e6      	OUT  0x6,R30
                 ; 0000 022E 
                 ; 0000 022F     SPCR=(0<<SPIE) | (0<<SPE) | (0<<DORD) | (0<<MSTR) | (0<<CPOL) | (0<<CPHA) | (0<<SPR1) | (0<<SPR0);
00149d b9ed      	OUT  0xD,R30
                 ; 0000 0230 
                 ; 0000 0231     TWCR=(0<<TWEA) | (0<<TWSTA) | (0<<TWSTO) | (0<<TWEN) | (0<<TWIE);
00149e 93e0 0074 	STS  116,R30
                 ; 0000 0232 
                 ; 0000 0233     MCUCSR = (1 << JTD);
0014a0 e8e0      	LDI  R30,LOW(128)
0014a1 bfe4      	OUT  0x34,R30
                 ; 0000 0234     MCUCSR = (1 << JTD);
0014a2 bfe4      	OUT  0x34,R30
                 ; 0000 0235 
                 ; 0000 0236     glcd_init_data.font=font5x7;
0014a3 e8ec      	LDI  R30,LOW(_font5x7*2)
0014a4 e0f0      	LDI  R31,HIGH(_font5x7*2)
0014a5 83e8      	ST   Y,R30
0014a6 83f9      	STD  Y+1,R31
                 ; 0000 0237     glcd_init_data.readxmem=NULL;
0014a7 e0e0      	LDI  R30,LOW(0)
0014a8 83ea      	STD  Y+2,R30
0014a9 83eb      	STD  Y+2+1,R30
                 ; 0000 0238     glcd_init_data.writexmem=NULL;
0014aa 83ec      	STD  Y+4,R30
0014ab 83ed      	STD  Y+4+1,R30
                 ; 0000 0239     glcd_init(&glcd_init_data);
0014ac 01de      	MOVW R26,R28
0014ad 940e 1969 	CALL _glcd_init
                 ; 0000 023A     glcd_setfont(font5x7);
0014af e8ec      	LDI  R30,LOW(_font5x7*2)
0014b0 e0f0      	LDI  R31,HIGH(_font5x7*2)
0014b1 940e 22e4 	CALL SUBOPT_0x10
                 ; 0000 023B 
                 ; 0000 023C     // Global enable interrupts
                 ; 0000 023D     #asm("sei")
0014b3 9478      	sei
                 ; 0000 023E 
                 ; 0000 023F     glcd_clear();
0014b4 940e 228c 	CALL SUBOPT_0x4
                 ; 0000 0240     glcd_outtextxy(0, 0, "Module Init...");
                +
0014b6 e1a6     +LDI R26 , LOW ( _0x41 + ( 0 ) )
0014b7 e0b6     +LDI R27 , HIGH ( _0x41 + ( 0 ) )
                 	__POINTW2MN _0x41,0
0014b8 940e 22be 	CALL SUBOPT_0xB
                 ; 0000 0241     delay_ms(500);
                 ; 0000 0242 
                 ; 0000 0243     sim800_restart();
0014ba 940e 171a 	CALL _sim800_restart
                 ; 0000 0244     check_sim();
0014bc 940e 1754 	CALL _check_sim
                 ; 0000 0245 
                 ; 0000 0246 //
                 ; 0000 0247     if (!check_signal_with_restart()) { glcd_outtextxy(0, 10, "SMS Init Failed!"); while(1); }
0014be 940e 17cf 	CALL _check_signal_with_restart
0014c0 30e0      	CPI  R30,0
0014c1 f439      	BRNE _0x42
0014c2 940e 22cd 	CALL SUBOPT_0xD
                +
0014c4 e2a5     +LDI R26 , LOW ( _0x41 + ( 15 ) )
0014c5 e0b6     +LDI R27 , HIGH ( _0x41 + ( 15 ) )
                 	__POINTW2MN _0x41,15
0014c6 940e 1d63 	CALL _glcd_outtextxy
                 _0x43:
0014c8 cfff      	RJMP _0x43
                 ; 0000 0248 
                 ; 0000 0249     if (!init_sms()) { glcd_outtextxy(0, 10, "SMS Init Failed!"); while(1); }
                 _0x42:
0014c9 940e 17f2 	CALL _init_sms
0014cb 30e0      	CPI  R30,0
0014cc f439      	BRNE _0x46
0014cd 940e 22cd 	CALL SUBOPT_0xD
                +
0014cf e3a6     +LDI R26 , LOW ( _0x41 + ( 32 ) )
0014d0 e0b6     +LDI R27 , HIGH ( _0x41 + ( 32 ) )
                 	__POINTW2MN _0x41,32
0014d1 940e 1d63 	CALL _glcd_outtextxy
                 _0x47:
0014d3 cfff      	RJMP _0x47
                 ; 0000 024A     if (!init_GPRS()) { glcd_outtextxy(0, 10, "GPRS Init Failed!"); while(1); }
                 _0x46:
0014d4 940e 1819 	CALL _init_GPRS
0014d6 30e0      	CPI  R30,0
0014d7 f439      	BRNE _0x4A
0014d8 940e 22cd 	CALL SUBOPT_0xD
                +
0014da e4a7     +LDI R26 , LOW ( _0x41 + ( 49 ) )
0014db e0b6     +LDI R27 , HIGH ( _0x41 + ( 49 ) )
                 	__POINTW2MN _0x41,49
0014dc 940e 1d63 	CALL _glcd_outtextxy
                 _0x4B:
0014de cfff      	RJMP _0x4B
                 ; 0000 024B     gprs_keep_alive();
                 _0x4A:
0014df 940e 1865 	CALL _gprs_keep_alive
                 ; 0000 024C 
                 ; 0000 024D 
                 ; 0000 024E 
                 ; 0000 024F     glcd_clear();
0014e1 940e 228c 	CALL SUBOPT_0x4
                 ; 0000 0250     draw_bitmap(0, 0, shomare_soton_ra_payamak, 128, 64);
0014e3 e7e0      	LDI  R30,LOW(_shomare_soton_ra_payamak*2)
0014e4 e0f2      	LDI  R31,HIGH(_shomare_soton_ra_payamak*2)
0014e5 93fa      	ST   -Y,R31
0014e6 93ea      	ST   -Y,R30
0014e7 e8e0      	LDI  R30,LOW(128)
0014e8 93ea      	ST   -Y,R30
0014e9 e4a0      	LDI  R26,LOW(64)
0014ea dcca      	RCALL _draw_bitmap
                 ; 0000 0251 
                 ; 0000 0252     while (1){
                 _0x4E:
                 ; 0000 0253 
                 ; 0000 0254 
                 ; 0000 0255         process_uart_data();
0014eb dee9      	RCALL _process_uart_data
                 ; 0000 0256         if (sms_received) {
0014ec fc21      	SBRC R2,1
                 ; 0000 0257             handle_sms();        // ECE?? ?? header_buffer ? content_buffer ?C ??C?O ???I?I
0014ed de2d      	RCALL _handle_sms
                 ; 0000 0258         }
                 ; 0000 0259 
                 ; 0000 025A         if (millis() - last_time > 50000) {
0014ee dd03      	RCALL _millis
0014ef 01df      	MOVW R26,R30
0014f0 01cb      	MOVW R24,R22
0014f1 91e0 08c5 	LDS  R30,_last_time
0014f3 91f0 08c6 	LDS  R31,_last_time+1
0014f5 9160 08c7 	LDS  R22,_last_time+2
0014f7 9170 08c8 	LDS  R23,_last_time+3
0014f9 940e 2469 	CALL __SUBD21
                +
0014fb 35a1     +CPI R26 , LOW ( 0xC351 )
0014fc ece3     +LDI R30 , HIGH ( 0xC351 )
0014fd 07be     +CPC R27 , R30
0014fe e0e0     +LDI R30 , BYTE3 ( 0xC351 )
0014ff 078e     +CPC R24 , R30
001500 e0e0     +LDI R30 , BYTE4 ( 0xC351 )
001501 079e     +CPC R25 , R30
                 	__CPD2N 0xC351
001502 f058      	BRLO _0x52
                 ; 0000 025B             gprs_keep_alive();
001503 940e 1865 	CALL _gprs_keep_alive
                 ; 0000 025C             last_time = millis();
001505 dcec      	RCALL _millis
001506 93e0 08c5 	STS  _last_time,R30
001508 93f0 08c6 	STS  _last_time+1,R31
00150a 9360 08c7 	STS  _last_time+2,R22
00150c 9370 08c8 	STS  _last_time+3,R23
                 ; 0000 025D         }
                 ; 0000 025E 
                 ; 0000 025F     }
                 _0x52:
00150e cfdc      	RJMP _0x4E
                 ; 0000 0260 }
                 _0x53:
00150f cfff      	RJMP _0x53
                 ; .FEND
                 
                 	.DSEG
                 _0x41:
000616           	.BYTE 0x43
                 ;#include "common.h"
                 	#ifndef __SLEEP_DEFINED__
                 	#endif
                 ;#include <string.h>
                 ;#include <delay.h>
                 ;#include <mega64a.h>
                 ;#include <glcd.h>
                 ;
                 ;
                 ;// ---   AT ---
                 ;void send_at_command(char *command)
                 ; 0001 000A {
                 
                 	.CSEG
                 _send_at_command:
                 ; .FSTART _send_at_command
                 ; 0001 000B     printf("%s\r\n", command);
001510 93ba      	ST   -Y,R27
001511 93aa      	ST   -Y,R26
                 ;	*command -> Y+0
                +
001512 ebee     +LDI R30 , LOW ( 2 * _0x20000 + ( 0 ) )
001513 e1fd     +LDI R31 , HIGH ( 2 * _0x20000 + ( 0 ) )
                 	__POINTW1FN _0x20000,0
001514 93fa      	ST   -Y,R31
001515 93ea      	ST   -Y,R30
001516 81ea      	LDD  R30,Y+2
001517 81fb      	LDD  R31,Y+2+1
001518 940e 22b4 	CALL SUBOPT_0x9
00151a e084      	LDI  R24,4
00151b 940e 1f32 	CALL _printf
00151d 9626      	ADIW R28,6
                 ; 0001 000C }
00151e 940c 1967 	JMP  _0x2120010
                 ; .FEND
                 ;
                 ;// ---    USART0 ---
                 ;void uart_flush0(void)
                 ; 0001 0010 {
                 ; 0001 0011     unsigned char dummy;
                 ; 0001 0012 
                 ; 0001 0013     //    
                 ; 0001 0014     while (UCSR0A & (1<<RXC0)) {
                 ;	dummy -> R17
                 ; 0001 0015         dummy = UDR0;
                 ; 0001 0016     }
                 ; 0001 0017 //
                 ; 0001 0018 //    //    
                 ; 0001 0019 //    rx_wr_index0 = rx_rd_index0 = 0;
                 ; 0001 001A //    rx_counter0 = 0;
                 ; 0001 001B //    rx_buffer_overflow0 = 0;
                 ; 0001 001C }
                 ;
                 ;
                 ;void uart_buffer_reset(void) {
                 ; 0001 001F void uart_buffer_reset(void) {
                 _uart_buffer_reset:
                 ; .FSTART _uart_buffer_reset
                 ; 0001 0020     rx_wr_index0 = rx_rd_index0 = 0;
001520 e0e0      	LDI  R30,LOW(0)
001521 940e 229b 	CALL SUBOPT_0x6
                 ; 0001 0021     rx_counter0 = 0;
                 ; 0001 0022     rx_buffer_overflow0 = 0;
001523 94e8      	CLT
001524 f820      	BLD  R2,0
                 ; 0001 0023 }
001525 9508      	RET
                 ; .FEND
                 ;
                 ;
                 ;unsigned char read_serial_timeout_simple(char* buffer, int buffer_size, unsigned long timeout_ms) {
                 ; 0001 0026 unsigned char read_serial_timeout_simple(char* buffer, int buffer_size, unsigned long timeout_ms) {
                 ; 0001 0027     int i = 0;
                 ; 0001 0028     unsigned long elapsed = 0;
                 ; 0001 0029 
                 ; 0001 002A     //     
                 ; 0001 002B     memset(buffer, 0, buffer_size);
                 ;	*buffer -> Y+12
                 ;	buffer_size -> Y+10
                 ;	timeout_ms -> Y+6
                 ;	i -> R16,R17
                 ;	elapsed -> Y+2
                 ; 0001 002C 
                 ; 0001 002D     //       delay
                 ; 0001 002E     while (elapsed < timeout_ms && i < buffer_size - 1) {
                 ; 0001 002F         //    UART  
                 ; 0001 0030         while (rx_counter0 > 0 && i < buffer_size - 1) {
                 ; 0001 0031             char c = getchar();  //     UART
                 ; 0001 0032             buffer[i++] = c;
                 ;	*buffer -> Y+13
                 ;	buffer_size -> Y+11
                 ;	timeout_ms -> Y+7
                 ;	elapsed -> Y+3
                 ;	c -> Y+0
                 ; 0001 0033             buffer[i] = '\0';
                 ; 0001 0034 
                 ; 0001 0035             //    GLCD
                 ; 0001 0036             glcd_outtextxy(0, 0, buffer);
                 ; 0001 0037         }
                 ; 0001 0038         delay_ms(1);
                 ; 0001 0039         elapsed++;
                 ; 0001 003A     }
                 ; 0001 003B 
                 ; 0001 003C     return (i > 0); // 1       
                 ; 0001 003D }
                 ;
                 ;
                 ;
                 ;//     
                 ;unsigned char read_until_keyword_keep_all(char* buffer, int buffer_size, unsigned long timeout_ms, const char* keyword)  ...
                 ; 0001 0042 unsigned char read_until_keyword_keep_all(char* buffer, int buffer_size, unsigned long timeout_ms, const char* keyword) {
                 _read_until_keyword_keep_all:
                 ; .FSTART _read_until_keyword_keep_all
                 ; 0001 0043     int i = 0;
                 ; 0001 0044     unsigned long elapsed = 0;
                 ; 0001 0045     int found = 0;
                 ; 0001 0046     int keyword_len = strlen(keyword);
                 ; 0001 0047 
                 ; 0001 0048     memset(buffer, 0, buffer_size);
001526 93ba      	ST   -Y,R27
001527 93aa      	ST   -Y,R26
001528 9724      	SBIW R28,4
001529 e0e0      	LDI  R30,LOW(0)
00152a 83e8      	ST   Y,R30
00152b 83e9      	STD  Y+1,R30
00152c 83ea      	STD  Y+2,R30
00152d 83eb      	STD  Y+3,R30
00152e 940e 227d 	CALL SUBOPT_0x1
                 ;	*buffer -> Y+18
                 ;	buffer_size -> Y+16
                 ;	timeout_ms -> Y+12
                 ;	*keyword -> Y+10
                 ;	i -> R16,R17
                 ;	elapsed -> Y+6
                 ;	found -> R18,R19
                 ;	keyword_len -> R20,R21
                +
001530 e020     +LDI R18 , LOW ( 0 )
001531 e030     +LDI R19 , HIGH ( 0 )
                 	__GETWRN 18,19,0
001532 85aa      	LDD  R26,Y+10
001533 85bb      	LDD  R27,Y+10+1
001534 940e 2109 	CALL _strlen
001536 01af      	MOVW R20,R30
001537 89ea      	LDD  R30,Y+18
001538 89fb      	LDD  R31,Y+18+1
001539 93fa      	ST   -Y,R31
00153a 93ea      	ST   -Y,R30
00153b e0e0      	LDI  R30,LOW(0)
00153c 93ea      	ST   -Y,R30
00153d 89ab      	LDD  R26,Y+19
00153e 89bc      	LDD  R27,Y+19+1
00153f 940e 20df 	CALL _memset
                 ; 0001 0049 
                 ; 0001 004A     while (elapsed < timeout_ms && i < buffer_size - 1) {
                 _0x20010:
                +
001541 85ec     +LDD R30 , Y + 12
001542 85fd     +LDD R31 , Y + 12 + 1
001543 856e     +LDD R22 , Y + 12 + 2
001544 857f     +LDD R23 , Y + 12 + 3
                 	__GETD1S 12
                +
001545 81ae     +LDD R26 , Y + 6
001546 81bf     +LDD R27 , Y + 6 + 1
001547 8588     +LDD R24 , Y + 6 + 2
001548 8599     +LDD R25 , Y + 6 + 3
                 	__GETD2S 6
001549 940e 2504 	CALL __CPD21
00154b f430      	BRSH _0x20013
00154c 89e8      	LDD  R30,Y+16
00154d 89f9      	LDD  R31,Y+16+1
00154e 9731      	SBIW R30,1
00154f 170e      	CP   R16,R30
001550 071f      	CPC  R17,R31
001551 f00c      	BRLT _0x20014
                 _0x20013:
001552 c059      	RJMP _0x20012
                 _0x20014:
                 ; 0001 004B         while (rx_counter0 > 0 && i < buffer_size - 1) {
                 _0x20015:
001553 91a0 08be 	LDS  R26,_rx_counter0
001555 30a1      	CPI  R26,LOW(0x1)
001556 f030      	BRLO _0x20018
001557 89e8      	LDD  R30,Y+16
001558 89f9      	LDD  R31,Y+16+1
001559 9731      	SBIW R30,1
00155a 170e      	CP   R16,R30
00155b 071f      	CPC  R17,R31
00155c f00c      	BRLT _0x20019
                 _0x20018:
00155d c02e      	RJMP _0x20017
                 _0x20019:
                 ; 0001 004C             char c = getchar();
                 ; 0001 004D             buffer[i++] = c;
00155e 9721      	SBIW R28,1
                 ;	*buffer -> Y+19
                 ;	buffer_size -> Y+17
                 ;	timeout_ms -> Y+13
                 ;	*keyword -> Y+11
                 ;	elapsed -> Y+7
                 ;	c -> Y+0
00155f 940e 117a 	CALL _getchar
001561 83e8      	ST   Y,R30
001562 01f8      	MOVW R30,R16
                +
001563 5f0f     +SUBI R16 , LOW ( - 1 )
001564 4f1f     +SBCI R17 , HIGH ( - 1 )
                 	__ADDWRN 16,17,1
001565 89ab      	LDD  R26,Y+19
001566 89bc      	LDD  R27,Y+19+1
001567 0fea      	ADD  R30,R26
001568 1ffb      	ADC  R31,R27
001569 81a8      	LD   R26,Y
00156a 83a0      	STD  Z+0,R26
                 ; 0001 004E             buffer[i] = '\0';
00156b 01f8      	MOVW R30,R16
00156c 89ab      	LDD  R26,Y+19
00156d 89bc      	LDD  R27,Y+19+1
00156e 0fae      	ADD  R26,R30
00156f 1fbf      	ADC  R27,R31
001570 e0e0      	LDI  R30,LOW(0)
001571 93ec      	ST   X,R30
                 ; 0001 004F 
                 ; 0001 0050             //   keyword
                 ; 0001 0051             if (!found && i >= keyword_len) {
001572 2e02      	MOV  R0,R18
001573 2a03      	OR   R0,R19
001574 f419      	BRNE _0x2001B
                +
001575 1704     +CP R16 , R20
001576 0715     +CPC R17 , R21
                 	__CPWRR 16,17,20,21
001577 f40c      	BRGE _0x2001C
                 _0x2001B:
001578 c011      	RJMP _0x2001A
                 _0x2001C:
                 ; 0001 0052                 if (strstr(buffer, keyword) != NULL) {
001579 89eb      	LDD  R30,Y+19
00157a 89fc      	LDD  R31,Y+19+1
00157b 93fa      	ST   -Y,R31
00157c 93ea      	ST   -Y,R30
00157d 85ad      	LDD  R26,Y+13
00157e 85be      	LDD  R27,Y+13+1
00157f 940e 2139 	CALL _strstr
001581 9730      	SBIW R30,0
001582 f039      	BREQ _0x2001D
                 ; 0001 0053                     found = 1;
                +
001583 e021     +LDI R18 , LOW ( 1 )
001584 e030     +LDI R19 , HIGH ( 1 )
                 	__GETWRN 18,19,1
                 ; 0001 0054                     elapsed = 0;   //    ?      
001585 e0e0      	LDI  R30,LOW(0)
                +
001586 83ef     +STD Y + 7 , R30
001587 87e8     +STD Y + 7 + 1 , R30
001588 87e9     +STD Y + 7 + 2 , R30
001589 87ea     +STD Y + 7 + 3 , R30
                 	__CLRD1S 7
                 ; 0001 0055                 }
                 ; 0001 0056             }
                 _0x2001D:
                 ; 0001 0057         }
                 _0x2001A:
00158a 9621      	ADIW R28,1
00158b cfc7      	RJMP _0x20015
                 _0x20017:
                 ; 0001 0058 
                 ; 0001 0059         if (found && elapsed > 100) {
00158c 2e02      	MOV  R0,R18
00158d 2a03      	OR   R0,R19
00158e f061      	BREQ _0x2001F
                +
00158f 81ae     +LDD R26 , Y + 6
001590 81bf     +LDD R27 , Y + 6 + 1
001591 8588     +LDD R24 , Y + 6 + 2
001592 8599     +LDD R25 , Y + 6 + 3
                 	__GETD2S 6
                +
001593 36a5     +CPI R26 , LOW ( 0x65 )
001594 e0e0     +LDI R30 , HIGH ( 0x65 )
001595 07be     +CPC R27 , R30
001596 e0e0     +LDI R30 , BYTE3 ( 0x65 )
001597 078e     +CPC R24 , R30
001598 e0e0     +LDI R30 , BYTE4 ( 0x65 )
001599 079e     +CPC R25 , R30
                 	__CPD2N 0x65
00159a f408      	BRSH _0x20020
                 _0x2001F:
00159b c001      	RJMP _0x2001E
                 _0x20020:
                 ; 0001 005A             //  100ms      
                 ; 0001 005B             break;
00159c c00f      	RJMP _0x20012
                 ; 0001 005C         }
                 ; 0001 005D 
                 ; 0001 005E         delay_ms(1);
                 _0x2001E:
00159d 940e 22e9 	CALL SUBOPT_0x11
                 ; 0001 005F         elapsed++;
                +
00159f 81ee     +LDD R30 , Y + 6
0015a0 81ff     +LDD R31 , Y + 6 + 1
0015a1 8568     +LDD R22 , Y + 6 + 2
0015a2 8579     +LDD R23 , Y + 6 + 3
                 	__GETD1S 6
                +
0015a3 5fef     +SUBI R30 , LOW ( - 1 )
0015a4 4fff     +SBCI R31 , HIGH ( - 1 )
0015a5 4f6f     +SBCI R22 , BYTE3 ( - 1 )
0015a6 4f7f     +SBCI R23 , BYTE4 ( - 1 )
                 	__SUBD1N -1
                +
0015a7 83ee     +STD Y + 6 , R30
0015a8 83ff     +STD Y + 6 + 1 , R31
0015a9 8768     +STD Y + 6 + 2 , R22
0015aa 8779     +STD Y + 6 + 3 , R23
                 	__PUTD1S 6
                 ; 0001 0060     }
0015ab cf95      	RJMP _0x20010
                 _0x20012:
                 ; 0001 0061 
                 ; 0001 0062     return (i > 0);
0015ac 01d8      	MOVW R26,R16
0015ad e0e0      	LDI  R30,LOW(0)
0015ae e0f0      	LDI  R31,HIGH(0)
0015af 940e 2496 	CALL __GTW12
0015b1 940e 2510 	CALL __LOADLOCR6
0015b3 9664      	ADIW R28,20
0015b4 9508      	RET
                 ; 0001 0063 }
                 ; .FEND
                 ;
                 ;//     
                 ;int extract_value_after_keyword(const char* input, const char* keyword, char* out_value, int out_size) {
                 ; 0001 0066 int extract_value_after_keyword(const char* input, const char* keyword, char* out_value, int out_size) {
                 ; 0001 0067     const char* p = strstr(input, keyword);
                 ; 0001 0068     int i = 0;
                 ; 0001 0069     if (p) {
                 ;	*input -> Y+10
                 ;	*keyword -> Y+8
                 ;	*out_value -> Y+6
                 ;	out_size -> Y+4
                 ;	*p -> R16,R17
                 ;	i -> R18,R19
                 ; 0001 006A         p += strlen(keyword);  //    
                 ; 0001 006B         while (*p == ' ' || *p == '\t') p++;  //   
                 ; 0001 006E while (*p && *p != ',' && *p != '\r' && *p != '\n' && *p != ' ' && i < out_size - 1) {
                 ; 0001 006F             out_value[i++] = *p++;
                 ; 0001 0070         }
                 ; 0001 0071         out_value[i] = '\0';
                 ; 0001 0072         return 1;  // 
                 ; 0001 0073     }
                 ; 0001 0074     return 0;  //  
                 ; 0001 0075 }
                 ;
                 ;
                 ;
                 ;int extract_field_after_keyword(const char* input, const char* keyword, int field_index, char* out_value, int out_size)
                 ; 0001 007A {
                 _extract_field_after_keyword:
                 ; .FSTART _extract_field_after_keyword
                 ; 0001 007B     int current_field = 0;
                 ; 0001 007C     int i = 0;
                 ; 0001 007D     const char* p = strstr(input, keyword);
                 ; 0001 007E 
                 ; 0001 007F     if (!p) return 0; //   
0015b5 93ba      	ST   -Y,R27
0015b6 93aa      	ST   -Y,R26
0015b7 940e 227d 	CALL SUBOPT_0x1
                 ;	*input -> Y+14
                 ;	*keyword -> Y+12
                 ;	field_index -> Y+10
                 ;	*out_value -> Y+8
                 ;	out_size -> Y+6
                 ;	current_field -> R16,R17
                 ;	i -> R18,R19
                 ;	*p -> R20,R21
                +
0015b9 e020     +LDI R18 , LOW ( 0 )
0015ba e030     +LDI R19 , HIGH ( 0 )
                 	__GETWRN 18,19,0
0015bb 85ee      	LDD  R30,Y+14
0015bc 85ff      	LDD  R31,Y+14+1
0015bd 93fa      	ST   -Y,R31
0015be 93ea      	ST   -Y,R30
0015bf 85ae      	LDD  R26,Y+14
0015c0 85bf      	LDD  R27,Y+14+1
0015c1 940e 2139 	CALL _strstr
0015c3 01af      	MOVW R20,R30
0015c4 2e04      	MOV  R0,R20
0015c5 2a05      	OR   R0,R21
0015c6 f409      	BRNE _0x2002C
0015c7 c063      	RJMP _0x212001A
                 ; 0001 0080 
                 ; 0001 0081     p += strlen(keyword);      //    
                 _0x2002C:
0015c8 85ac      	LDD  R26,Y+12
0015c9 85bd      	LDD  R27,Y+12+1
0015ca 940e 2109 	CALL _strlen
                +
0015cc 0f4e     +ADD R20 , R30
0015cd 1f5f     +ADC R21 , R31
                 	__ADDWRR 20,21,30,31
                 ; 0001 0082     while (*p == ' ' || *p == '\t') p++; //   
                 _0x2002D:
0015ce 01da      	MOVW R26,R20
0015cf 91ac      	LD   R26,X
0015d0 32a0      	CPI  R26,LOW(0x20)
0015d1 f021      	BREQ _0x20030
0015d2 01da      	MOVW R26,R20
0015d3 91ac      	LD   R26,X
0015d4 30a9      	CPI  R26,LOW(0x9)
0015d5 f419      	BRNE _0x2002F
                 _0x20030:
                +
0015d6 5f4f     +SUBI R20 , LOW ( - 1 )
0015d7 4f5f     +SBCI R21 , HIGH ( - 1 )
                 	__ADDWRN 20,21,1
0015d8 cff5      	RJMP _0x2002D
                 _0x2002F:
                 ; 0001 0084 while (*p && current_field <= field_index)
                 _0x20032:
0015d9 01da      	MOVW R26,R20
0015da 91ec      	LD   R30,X
0015db 30e0      	CPI  R30,0
0015dc f029      	BREQ _0x20035
0015dd 85ea      	LDD  R30,Y+10
0015de 85fb      	LDD  R31,Y+10+1
0015df 17e0      	CP   R30,R16
0015e0 07f1      	CPC  R31,R17
0015e1 f40c      	BRGE _0x20036
                 _0x20035:
0015e2 c048      	RJMP _0x20034
                 _0x20036:
                 ; 0001 0085     {
                 ; 0001 0086         if (current_field == field_index)
0015e3 85ea      	LDD  R30,Y+10
0015e4 85fb      	LDD  R31,Y+10+1
0015e5 17e0      	CP   R30,R16
0015e6 07f1      	CPC  R31,R17
0015e7 f579      	BRNE _0x20037
                 ; 0001 0087         {
                 ; 0001 0088             //        CRLF  
                 ; 0001 0089             while (*p && *p != ',' && *p != '\r' && *p != '\n' && i < out_size - 1)
                 _0x20038:
0015e8 01da      	MOVW R26,R20
0015e9 91ec      	LD   R30,X
0015ea 30e0      	CPI  R30,0
0015eb f089      	BREQ _0x2003B
0015ec 91ac      	LD   R26,X
0015ed 32ac      	CPI  R26,LOW(0x2C)
0015ee f071      	BREQ _0x2003B
0015ef 01da      	MOVW R26,R20
0015f0 91ac      	LD   R26,X
0015f1 30ad      	CPI  R26,LOW(0xD)
0015f2 f051      	BREQ _0x2003B
0015f3 01da      	MOVW R26,R20
0015f4 91ac      	LD   R26,X
0015f5 30aa      	CPI  R26,LOW(0xA)
0015f6 f031      	BREQ _0x2003B
0015f7 81ee      	LDD  R30,Y+6
0015f8 81ff      	LDD  R31,Y+6+1
0015f9 9731      	SBIW R30,1
0015fa 172e      	CP   R18,R30
0015fb 073f      	CPC  R19,R31
0015fc f00c      	BRLT _0x2003C
                 _0x2003B:
0015fd c00f      	RJMP _0x2003A
                 _0x2003C:
                 ; 0001 008A             {
                 ; 0001 008B                 out_value[i++] = *p++;
0015fe 01f9      	MOVW R30,R18
                +
0015ff 5f2f     +SUBI R18 , LOW ( - 1 )
001600 4f3f     +SBCI R19 , HIGH ( - 1 )
                 	__ADDWRN 18,19,1
001601 85a8      	LDD  R26,Y+8
001602 85b9      	LDD  R27,Y+8+1
001603 0fea      	ADD  R30,R26
001604 1ffb      	ADC  R31,R27
001605 010f      	MOVW R0,R30
001606 01da      	MOVW R26,R20
                +
001607 5f4f     +SUBI R20 , LOW ( - 1 )
001608 4f5f     +SBCI R21 , HIGH ( - 1 )
                 	__ADDWRN 20,21,1
001609 91ec      	LD   R30,X
00160a 01d0      	MOVW R26,R0
00160b 93ec      	ST   X,R30
                 ; 0001 008C             }
00160c cfdb      	RJMP _0x20038
                 _0x2003A:
                 ; 0001 008D             out_value[i] = '\0';
00160d 01f9      	MOVW R30,R18
00160e 85a8      	LDD  R26,Y+8
00160f 85b9      	LDD  R27,Y+8+1
001610 0fae      	ADD  R26,R30
001611 1fbf      	ADC  R27,R31
001612 e0e0      	LDI  R30,LOW(0)
001613 93ec      	ST   X,R30
                 ; 0001 008E             return 1; // 
001614 e0e1      	LDI  R30,LOW(1)
001615 e0f0      	LDI  R31,HIGH(1)
001616 c016      	RJMP _0x2120019
                 ; 0001 008F         }
                 ; 0001 0090 
                 ; 0001 0091         //    
                 ; 0001 0092         while (*p && *p != ',') p++;
                 _0x20037:
                 _0x2003D:
001617 01da      	MOVW R26,R20
001618 91ec      	LD   R30,X
001619 30e0      	CPI  R30,0
00161a f019      	BREQ _0x20040
00161b 91ac      	LD   R26,X
00161c 32ac      	CPI  R26,LOW(0x2C)
00161d f409      	BRNE _0x20041
                 _0x20040:
00161e c003      	RJMP _0x2003F
                 _0x20041:
                +
00161f 5f4f     +SUBI R20 , LOW ( - 1 )
001620 4f5f     +SBCI R21 , HIGH ( - 1 )
                 	__ADDWRN 20,21,1
001621 cff5      	RJMP _0x2003D
                 _0x2003F:
                 ; 0001 0093 if (*p == ',') p++;
001622 01da      	MOVW R26,R20
001623 91ac      	LD   R26,X
001624 32ac      	CPI  R26,LOW(0x2C)
001625 f411      	BRNE _0x20042
                +
001626 5f4f     +SUBI R20 , LOW ( - 1 )
001627 4f5f     +SBCI R21 , HIGH ( - 1 )
                 	__ADDWRN 20,21,1
                 ; 0001 0094         current_field++;
                 _0x20042:
                +
001628 5f0f     +SUBI R16 , LOW ( - 1 )
001629 4f1f     +SBCI R17 , HIGH ( - 1 )
                 	__ADDWRN 16,17,1
                 ; 0001 0095     }
00162a cfae      	RJMP _0x20032
                 _0x20034:
                 ; 0001 0096 
                 ; 0001 0097     return 0; //    
                 _0x212001A:
00162b e0e0      	LDI  R30,LOW(0)
00162c e0f0      	LDI  R31,HIGH(0)
                 _0x2120019:
00162d 940e 2510 	CALL __LOADLOCR6
00162f 9660      	ADIW R28,16
001630 9508      	RET
                 ; 0001 0098 }
                 ; .FEND
                 ;
                 ;
                 ;
                 ;//unsigned char read_serial_response(char* buffer, int buffer_size, int timeout_ms, const char* end_pattern) {
                 ;//    int i = 0;
                 ;//    unsigned int elapsed = 0;
                 ;//
                 ;//    memset(buffer, 0, buffer_size);
                 ;//
                 ;//    while (elapsed < (unsigned)timeout_ms) {
                 ;//        while (rx_counter0 > 0 && i < buffer_size - 1) {
                 ;//            buffer[i++] = getchar();
                 ;//        }
                 ;//
                 ;//        //    
                 ;//        if (end_pattern != NULL && strstr(buffer, end_pattern)) {
                 ;//            buffer[i] = '\0';
                 ;//            return 1;
                 ;//        }
                 ;//
                 ;//        if (i >= buffer_size - 1) {
                 ;//            buffer[i] = '\0';
                 ;//            return 1;
                 ;//        }
                 ;//
                 ;//        delay_ms(1);
                 ;//        elapsed++;
                 ;//    }
                 ;//
                 ;//    buffer[i] = '\0';
                 ;//    return (i > 0);
                 ;//}
                 ;
                 ;//// ---     timeout ---
                 ;unsigned char read_serial_response(char* buffer, int buffer_size, int timeout_ms, const char* expected_response) {
                 ; 0001 00BB unsigned char read_serial_response(char* buffer, int buffer_size, int timeout_ms, const char* expected_response) {
                 _read_serial_response:
                 ; .FSTART _read_serial_response
                 ; 0001 00BC     int i = 0;
                 ; 0001 00BD     unsigned int elapsed = 0;
                 ; 0001 00BE 
                 ; 0001 00BF     // ?C? ??I? EC?? ?C?E?
                 ; 0001 00C0     memset(buffer, 0, buffer_size);
001631 93ba      	ST   -Y,R27
001632 93aa      	ST   -Y,R26
001633 940e 250b 	CALL __SAVELOCR4
                 ;	*buffer -> Y+10
                 ;	buffer_size -> Y+8
                 ;	timeout_ms -> Y+6
                 ;	*expected_response -> Y+4
                 ;	i -> R16,R17
                 ;	elapsed -> R18,R19
                +
001635 e000     +LDI R16 , LOW ( 0 )
001636 e010     +LDI R17 , HIGH ( 0 )
                 	__GETWRN 16,17,0
                +
001637 e020     +LDI R18 , LOW ( 0 )
001638 e030     +LDI R19 , HIGH ( 0 )
                 	__GETWRN 18,19,0
001639 940e 22ed 	CALL SUBOPT_0x12
00163b e0e0      	LDI  R30,LOW(0)
00163c 93ea      	ST   -Y,R30
00163d 85ab      	LDD  R26,Y+11
00163e 85bc      	LDD  R27,Y+11+1
00163f 940e 20df 	CALL _memset
                 ; 0001 00C1 
                 ; 0001 00C2     while (elapsed < (unsigned)timeout_ms) {
                 _0x20043:
001641 81ee      	LDD  R30,Y+6
001642 81ff      	LDD  R31,Y+6+1
001643 172e      	CP   R18,R30
001644 073f      	CPC  R19,R31
001645 f548      	BRSH _0x20045
                 ; 0001 00C3         // ?? EC?? E?C? EC?E??C? I? I?E?? ????? UART ?C EI?C??I
                 ; 0001 00C4         while (rx_counter0 > 0 && i < buffer_size - 1) {
                 _0x20046:
001646 91a0 08be 	LDS  R26,_rx_counter0
001648 30a1      	CPI  R26,LOW(0x1)
001649 f030      	BRLO _0x20049
00164a 85e8      	LDD  R30,Y+8
00164b 85f9      	LDD  R31,Y+8+1
00164c 9731      	SBIW R30,1
00164d 170e      	CP   R16,R30
00164e 071f      	CPC  R17,R31
00164f f00c      	BRLT _0x2004A
                 _0x20049:
001650 c00f      	RJMP _0x20048
                 _0x2004A:
                 ; 0001 00C5             buffer[i++] = getchar();  // getchar C? ????? EC?? ???A?I
001651 01f8      	MOVW R30,R16
                +
001652 5f0f     +SUBI R16 , LOW ( - 1 )
001653 4f1f     +SBCI R17 , HIGH ( - 1 )
                 	__ADDWRN 16,17,1
001654 85aa      	LDD  R26,Y+10
001655 85bb      	LDD  R27,Y+10+1
001656 0fea      	ADD  R30,R26
001657 1ffb      	ADC  R31,R27
001658 93ff      	PUSH R31
001659 93ef      	PUSH R30
00165a 940e 117a 	CALL _getchar
00165c 91af      	POP  R26
00165d 91bf      	POP  R27
00165e 93ec      	ST   X,R30
                 ; 0001 00C6         }
00165f cfe6      	RJMP _0x20046
                 _0x20048:
                 ; 0001 00C7         // C?? C?EUC??C? ?C I?I??? ??I E???I??
                 ; 0001 00C8         if (strstr(buffer, expected_response)) {
001660 940e 22ed 	CALL SUBOPT_0x12
001662 81ae      	LDD  R26,Y+6
001663 81bf      	LDD  R27,Y+6+1
001664 940e 2139 	CALL _strstr
001666 9730      	SBIW R30,0
001667 f011      	BREQ _0x2004B
                 ; 0001 00C9             return 1;
001668 e0e1      	LDI  R30,LOW(1)
001669 c00f      	RJMP _0x2120018
                 ; 0001 00CA         }
                 ; 0001 00CB         delay_ms(1);
                 _0x2004B:
00166a 940e 22e9 	CALL SUBOPT_0x11
                 ; 0001 00CC         elapsed++;
                +
00166c 5f2f     +SUBI R18 , LOW ( - 1 )
00166d 4f3f     +SBCI R19 , HIGH ( - 1 )
                 	__ADDWRN 18,19,1
                 ; 0001 00CD     }
00166e cfd2      	RJMP _0x20043
                 _0x20045:
                 ; 0001 00CE     // ?? C? ?C?C? EC???C?E ?? ??EC? I??? ?? ???????
                 ; 0001 00CF     return (strstr(buffer, expected_response) != NULL);
00166f 940e 22ed 	CALL SUBOPT_0x12
001671 81ae      	LDD  R26,Y+6
001672 81bf      	LDD  R27,Y+6+1
001673 940e 2139 	CALL _strstr
001675 e0a0      	LDI  R26,LOW(0)
001676 e0b0      	LDI  R27,HIGH(0)
001677 940e 2490 	CALL __NEW12
                 _0x2120018:
001679 940e 2512 	CALL __LOADLOCR4
00167b 962c      	ADIW R28,12
00167c 9508      	RET
                 ; 0001 00D0 }
                 ; .FEND
                 ;#include "keypad.h"
                 	#ifndef __SLEEP_DEFINED__
                 	#endif
                 ;
                 ;char get_key(void)
                 ; 0002 0004 {
                 
                 	.CSEG
                 _get_key:
                 ; .FSTART _get_key
                 ; 0002 0005     unsigned char row, col;
                 ; 0002 0006     const unsigned char column_pins[3] = {COL1_PIN, COL2_PIN, COL3_PIN};
                 ; 0002 0007     const unsigned char row_pins[4] = {ROW1_PIN, ROW2_PIN, ROW3_PIN, ROW4_PIN};
                 ; 0002 0008 
                 ; 0002 0009     const char key_map[4][3] = {
                 ; 0002 000A         {'1', '2', '3'},
                 ; 0002 000B         {'4', '5', '6'},
                 ; 0002 000C         {'7', '8', '9'},
                 ; 0002 000D         {'*', '0', '#'}
                 ; 0002 000E     };
                 ; 0002 000F 
                 ; 0002 0010     for (col = 0; col < 3; col++)
00167d 9763      	SBIW R28,19
00167e e183      	LDI  R24,19
00167f e0a0      	LDI  R26,LOW(0)
001680 e0b0      	LDI  R27,HIGH(0)
001681 ece4      	LDI  R30,LOW(_0x40003*2)
001682 e1fd      	LDI  R31,HIGH(_0x40003*2)
001683 940e 2517 	CALL __INITLOCB
001685 931a      	ST   -Y,R17
001686 930a      	ST   -Y,R16
                 ;	row -> R17
                 ;	col -> R16
                 ;	column_pins -> Y+18
                 ;	row_pins -> Y+14
                 ;	key_map -> Y+2
001687 e000      	LDI  R16,LOW(0)
                 _0x40005:
001688 3003      	CPI  R16,3
001689 f5c0      	BRSH _0x40006
                 ; 0002 0011     {
                 ; 0002 0012         KEYPAD_PORT |= (1 << COL1_PIN) | (1 << COL2_PIN) | (1 << COL3_PIN);
00168a b3e5      	IN   R30,0x15
00168b 60e7      	ORI  R30,LOW(0x7)
00168c bbe5      	OUT  0x15,R30
                 ; 0002 0013         KEYPAD_PORT &= ~(1 << column_pins[col]);
00168d b215      	IN   R1,21
00168e 2fe0      	MOV  R30,R16
00168f e0f0      	LDI  R31,0
001690 01de      	MOVW R26,R28
001691 9652      	ADIW R26,18
001692 0fae      	ADD  R26,R30
001693 1fbf      	ADC  R27,R31
001694 91ec      	LD   R30,X
001695 e0a1      	LDI  R26,LOW(1)
001696 940e 22f2 	CALL SUBOPT_0x13
001698 bbe5      	OUT  0x15,R30
                 ; 0002 0014 
                 ; 0002 0015         for (row = 0; row < 4; row++)
001699 e010      	LDI  R17,LOW(0)
                 _0x40008:
00169a 3014      	CPI  R17,4
00169b f520      	BRSH _0x40009
                 ; 0002 0016         {
                 ; 0002 0017             if (!(KEYPAD_PIN & (1 << row_pins[row])))
00169c 940e 22f7 	CALL SUBOPT_0x14
00169e 2da1      	MOV  R26,R1
00169f 940e 2287 	CALL SUBOPT_0x3
0016a1 f4e1      	BRNE _0x4000A
                 ; 0002 0018             {
                 ; 0002 0019                 delay_ms(10);
0016a2 e0aa      	LDI  R26,LOW(10)
0016a3 e0b0      	LDI  R27,0
0016a4 940e 245b 	CALL _delay_ms
                 ; 0002 001A                 if (!(KEYPAD_PIN & (1 << row_pins[row])))
0016a6 940e 22f7 	CALL SUBOPT_0x14
0016a8 2da1      	MOV  R26,R1
0016a9 940e 2287 	CALL SUBOPT_0x3
0016ab f491      	BRNE _0x4000B
                 ; 0002 001B                 {
                 ; 0002 001C                     while (!(KEYPAD_PIN & (1 << row_pins[row])));
                 _0x4000C:
0016ac 940e 22f7 	CALL SUBOPT_0x14
0016ae 2da1      	MOV  R26,R1
0016af 940e 2287 	CALL SUBOPT_0x3
0016b1 f3d1      	BREQ _0x4000C
                 ; 0002 001D                     return key_map[row][col];
0016b2 e0a3      	LDI  R26,LOW(3)
0016b3 9f1a      	MUL  R17,R26
0016b4 01f0      	MOVW R30,R0
0016b5 01de      	MOVW R26,R28
0016b6 9612      	ADIW R26,2
0016b7 0fae      	ADD  R26,R30
0016b8 1fbf      	ADC  R27,R31
0016b9 27ee      	CLR  R30
0016ba 0fa0      	ADD  R26,R16
0016bb 1fbe      	ADC  R27,R30
0016bc 91ec      	LD   R30,X
0016bd c005      	RJMP _0x2120017
                 ; 0002 001E                 }
                 ; 0002 001F             }
                 _0x4000B:
                 ; 0002 0020         }
                 _0x4000A:
0016be 5f1f      	SUBI R17,-1
0016bf cfda      	RJMP _0x40008
                 _0x40009:
                 ; 0002 0021     }
0016c0 5f0f      	SUBI R16,-1
0016c1 cfc6      	RJMP _0x40005
                 _0x40006:
                 ; 0002 0022 
                 ; 0002 0023     return 0;
0016c2 e0e0      	LDI  R30,LOW(0)
                 _0x2120017:
0016c3 8119      	LDD  R17,Y+1
0016c4 8108      	LDD  R16,Y+0
0016c5 9665      	ADIW R28,21
0016c6 9508      	RET
                 ; 0002 0024 }
                 ; .FEND
                 ;#include "motor.h"
                 	#ifndef __SLEEP_DEFINED__
                 	#endif
                 ;
                 ;void activate_motor(int product_id)
                 ; 0003 0004 {
                 
                 	.CSEG
                 _activate_motor:
                 ; .FSTART _activate_motor
                 ; 0003 0005     unsigned char motor_pin;
                 ; 0003 0006     char motor_msg[20];
                 ; 0003 0007     int timeout = 1000;
                 ; 0003 0008 
                 ; 0003 0009     switch (product_id)
0016c7 93ba      	ST   -Y,R27
0016c8 93aa      	ST   -Y,R26
0016c9 9764      	SBIW R28,20
0016ca 940e 250b 	CALL __SAVELOCR4
                 ;	product_id -> Y+24
                 ;	motor_pin -> R17
                 ;	motor_msg -> Y+4
                 ;	timeout -> R18,R19
                +
0016cc ee28     +LDI R18 , LOW ( 1000 )
0016cd e033     +LDI R19 , HIGH ( 1000 )
                 	__GETWRN 18,19,1000
0016ce 8de8      	LDD  R30,Y+24
0016cf 8df9      	LDD  R31,Y+24+1
                 ; 0003 000A     {
                 ; 0003 000B         case 1: motor_pin = MOTOR_PIN_1; break;
0016d0 30e1      	CPI  R30,LOW(0x1)
0016d1 e0a0      	LDI  R26,HIGH(0x1)
0016d2 07fa      	CPC  R31,R26
0016d3 f411      	BRNE _0x60006
0016d4 e012      	LDI  R17,LOW(2)
0016d5 c00d      	RJMP _0x60005
                 ; 0003 000C         case 2: motor_pin = MOTOR_PIN_2; break;
                 _0x60006:
0016d6 30e2      	CPI  R30,LOW(0x2)
0016d7 e0a0      	LDI  R26,HIGH(0x2)
0016d8 07fa      	CPC  R31,R26
0016d9 f411      	BRNE _0x60007
0016da e013      	LDI  R17,LOW(3)
0016db c007      	RJMP _0x60005
                 ; 0003 000D         case 3: motor_pin = MOTOR_PIN_3; break;
                 _0x60007:
0016dc 30e3      	CPI  R30,LOW(0x3)
0016dd e0a0      	LDI  R26,HIGH(0x3)
0016de 07fa      	CPC  R31,R26
0016df f411      	BRNE _0x60009
0016e0 e014      	LDI  R17,LOW(4)
0016e1 c001      	RJMP _0x60005
                 ; 0003 000E         default: return;
                 _0x60009:
0016e2 c033      	RJMP _0x2120016
                 ; 0003 000F     }
                 _0x60005:
                 ; 0003 0010 
                 ; 0003 0011     sprintf(motor_msg, "MOTOR %d ON!", product_id);
0016e3 01fe      	MOVW R30,R28
0016e4 9634      	ADIW R30,4
0016e5 93fa      	ST   -Y,R31
0016e6 93ea      	ST   -Y,R30
                +
0016e7 ede8     +LDI R30 , LOW ( 2 * _0x60000 + ( 0 ) )
0016e8 e1fd     +LDI R31 , HIGH ( 2 * _0x60000 + ( 0 ) )
                 	__POINTW1FN _0x60000,0
0016e9 93fa      	ST   -Y,R31
0016ea 93ea      	ST   -Y,R30
0016eb 8dec      	LDD  R30,Y+28
0016ec 8dfd      	LDD  R31,Y+28+1
0016ed 940e 248b 	CALL __CWD1
0016ef 940e 24de 	CALL __PUTPARD1
0016f1 940e 22b9 	CALL SUBOPT_0xA
                 ; 0003 0012     glcd_clear();
0016f3 940e 19ea 	CALL _glcd_clear
                 ; 0003 0013     glcd_outtextxy(10, 20, motor_msg);
0016f5 e0ea      	LDI  R30,LOW(10)
0016f6 93ea      	ST   -Y,R30
0016f7 e1e4      	LDI  R30,LOW(20)
0016f8 93ea      	ST   -Y,R30
0016f9 01de      	MOVW R26,R28
0016fa 9616      	ADIW R26,6
0016fb 940e 1d63 	CALL _glcd_outtextxy
                 ; 0003 0014     MOTOR_PORT |= (1 << motor_pin);
0016fd b013      	IN   R1,3
0016fe 2fe1      	MOV  R30,R17
0016ff e0a1      	LDI  R26,LOW(1)
001700 940e 2472 	CALL __LSLB12
001702 29e1      	OR   R30,R1
001703 b9e3      	OUT  0x3,R30
                 ; 0003 0015 
                 ; 0003 0016     while (!(PIND & (1 << PIND1)) && timeout > 0)
                 _0x6000A:
001704 9981      	SBIC 0x10,1
001705 c004      	RJMP _0x6000D
001706 2400      	CLR  R0
001707 1602      	CP   R0,R18
001708 0603      	CPC  R0,R19
001709 f00c      	BRLT _0x6000E
                 _0x6000D:
00170a c005      	RJMP _0x6000C
                 _0x6000E:
                 ; 0003 0017     {
                 ; 0003 0018         delay_ms(1);
00170b 940e 22e9 	CALL SUBOPT_0x11
                 ; 0003 0019         timeout--;
                +
00170d 5021     +SUBI R18 , LOW ( 1 )
00170e 4030     +SBCI R19 , HIGH ( 1 )
                 	__SUBWRN 18,19,1
                 ; 0003 001A     }
00170f cff4      	RJMP _0x6000A
                 _0x6000C:
                 ; 0003 001B 
                 ; 0003 001C     MOTOR_PORT &= ~(1 << motor_pin);
001710 b013      	IN   R1,3
001711 2fe1      	MOV  R30,R17
001712 e0a1      	LDI  R26,LOW(1)
001713 940e 22f2 	CALL SUBOPT_0x13
001715 b9e3      	OUT  0x3,R30
                 ; 0003 001D }
                 _0x2120016:
001716 940e 2512 	CALL __LOADLOCR4
001718 966a      	ADIW R28,26
001719 9508      	RET
                 ; .FEND
                 ;#include "common.h"
                 	#ifndef __SLEEP_DEFINED__
                 	#endif
                 ;#include <stdlib.h>
                 ;#include <glcd.h>
                 ;#include <delay.h>
                 ;#include <string.h>
                 ;
                 ;#define BUFFER_SIZE 512
                 ;#define MAX_RETRY   3   //   
                 ;
                 ;
                 ;
                 ;char value[16];
                 ;char at_command[30];
                 ;
                 ;char buffer[BUFFER_SIZE];
                 ;
                 ;
                 ;
                 ;//unsigned char sim800_basic_init(void) {
                 ;//    uart_buffer_reset();
                 ;//
                 ;//    send_at_command("ATE0");   //   Echo
                 ;//    delay_ms(100);
                 ;//
                 ;//    uart_buffer_reset();
                 ;//    send_at_command("AT");     //    
                 ;//    if (!read_until_keyword_keep_all(buffer, BUFFER_SIZE, 2000, "OK")) {
                 ;//        glcd_outtextxy(0, 10, "SIM800 not responding!");
                 ;//        return 0; // Failure
                 ;//    }
                 ;//    glcd_outtextxy(0, 0, buffer);
                 ;//    delay_ms(100);
                 ;//
                 ;//    return 1; // Success
                 ;//}
                 ;
                 ;
                 ;void sim800_restart(void) {
                 ; 0004 0026 void sim800_restart(void) {
                 
                 	.CSEG
                 _sim800_restart:
                 ; .FSTART _sim800_restart
                 ; 0004 0027 
                 ; 0004 0028     glcd_clear();
00171a 940e 228c 	CALL SUBOPT_0x4
                 ; 0004 0029     glcd_outtextxy(0, 0, "Restarting SIM800...");
                +
00171c e5a9     +LDI R26 , LOW ( _0x80003 + ( 0 ) )
00171d e0b6     +LDI R27 , HIGH ( _0x80003 + ( 0 ) )
                 	__POINTW2MN _0x80003,0
00171e 940e 2300 	CALL SUBOPT_0x15
                 ; 0004 002A 
                 ; 0004 002B     // ---   UART ---
                 ; 0004 002C     uart_buffer_reset();
                 ; 0004 002D 
                 ; 0004 002E     send_at_command("AT+SAPBR=2,1");
                +
001720 e6ae     +LDI R26 , LOW ( _0x80003 + ( 21 ) )
001721 e0b6     +LDI R27 , HIGH ( _0x80003 + ( 21 ) )
                 	__POINTW2MN _0x80003,21
001722 940e 2304 	CALL SUBOPT_0x16
                 ; 0004 002F     delay_ms(100);
                 ; 0004 0030 
                 ; 0004 0031 
                 ; 0004 0032     send_at_command("AT+CGATT=0");
                +
001724 e7ab     +LDI R26 , LOW ( _0x80003 + ( 34 ) )
001725 e0b6     +LDI R27 , HIGH ( _0x80003 + ( 34 ) )
                 	__POINTW2MN _0x80003,34
001726 940e 2304 	CALL SUBOPT_0x16
                 ; 0004 0033     delay_ms(100);
                 ; 0004 0034 
                 ; 0004 0035 
                 ; 0004 0036     send_at_command("AT+CGATT=1");
                +
001728 e8a6     +LDI R26 , LOW ( _0x80003 + ( 45 ) )
001729 e0b6     +LDI R27 , HIGH ( _0x80003 + ( 45 ) )
                 	__POINTW2MN _0x80003,45
00172a 940e 2304 	CALL SUBOPT_0x16
                 ; 0004 0037     delay_ms(100);
                 ; 0004 0038 
                 ; 0004 0039     // ---    () ---                      //   
                 ; 0004 003A 
                 ; 0004 003B     send_at_command("AT+CRESET");
                +
00172c e9a1     +LDI R26 , LOW ( _0x80003 + ( 56 ) )
00172d e0b6     +LDI R27 , HIGH ( _0x80003 + ( 56 ) )
                 	__POINTW2MN _0x80003,56
00172e 940e 230a 	CALL SUBOPT_0x17
                 ; 0004 003C     delay_ms(500);
                 ; 0004 003D 
                 ; 0004 003E     send_at_command("AT+CFUN=0");  //  
                +
001730 e9ab     +LDI R26 , LOW ( _0x80003 + ( 66 ) )
001731 e0b6     +LDI R27 , HIGH ( _0x80003 + ( 66 ) )
                 	__POINTW2MN _0x80003,66
001732 940e 230a 	CALL SUBOPT_0x17
                 ; 0004 003F     delay_ms(500);                       //   
                 ; 0004 0040 
                 ; 0004 0041 
                 ; 0004 0042     send_at_command("AT+CFUN=1");  //  
                +
001734 eaa5     +LDI R26 , LOW ( _0x80003 + ( 76 ) )
001735 e0b6     +LDI R27 , HIGH ( _0x80003 + ( 76 ) )
                 	__POINTW2MN _0x80003,76
001736 940e 230a 	CALL SUBOPT_0x17
                 ; 0004 0043     delay_ms(500);                       //   
                 ; 0004 0044 
                 ; 0004 0045 
                 ; 0004 0046 //    send_at_command("AT+CFUN=1,1");  //  
                 ; 0004 0047 //    delay_ms(2000);
                 ; 0004 0048 
                 ; 0004 0049     // ---   Echo ---
                 ; 0004 004A     uart_buffer_reset();
001738 940e 1520 	CALL _uart_buffer_reset
                 ; 0004 004B     send_at_command("ATE0");
                +
00173a eaaf     +LDI R26 , LOW ( _0x80003 + ( 86 ) )
00173b e0b6     +LDI R27 , HIGH ( _0x80003 + ( 86 ) )
                 	__POINTW2MN _0x80003,86
00173c 940e 2304 	CALL SUBOPT_0x16
                 ; 0004 004C     delay_ms(100);
                 ; 0004 004D 
                 ; 0004 004E     // ---     ---
                 ; 0004 004F     uart_buffer_reset();
00173e 940e 1520 	CALL _uart_buffer_reset
                 ; 0004 0050     send_at_command("AT");
                +
001740 eba4     +LDI R26 , LOW ( _0x80003 + ( 91 ) )
001741 e0b6     +LDI R27 , HIGH ( _0x80003 + ( 91 ) )
                 	__POINTW2MN _0x80003,91
001742 940e 2310 	CALL SUBOPT_0x18
                 ; 0004 0051     if (!read_until_keyword_keep_all(buffer, BUFFER_SIZE, 2000, "OK")) {
001744 940e 231b 	CALL SUBOPT_0x19
                +
001746 eba7     +LDI R26 , LOW ( _0x80003 + ( 94 ) )
001747 e0b6     +LDI R27 , HIGH ( _0x80003 + ( 94 ) )
                 	__POINTW2MN _0x80003,94
001748 940e 1526 	CALL _read_until_keyword_keep_all
00174a 30e0      	CPI  R30,0
00174b f439      	BRNE _0x80004
                 ; 0004 0052         glcd_outtextxy(0, 10, "SIM800 not responding!");
00174c 940e 22cd 	CALL SUBOPT_0xD
                +
00174e ebaa     +LDI R26 , LOW ( _0x80003 + ( 97 ) )
00174f e0b6     +LDI R27 , HIGH ( _0x80003 + ( 97 ) )
                 	__POINTW2MN _0x80003,97
001750 940e 1d63 	CALL _glcd_outtextxy
                 ; 0004 0053         return;  //   
001752 9508      	RET
                 ; 0004 0054     }
                 ; 0004 0055 
                 ; 0004 0056 }
                 _0x80004:
001753 9508      	RET
                 ; .FEND
                 
                 	.DSEG
                 _0x80003:
000659           	.BYTE 0x78
                 ;
                 ;
                 ;unsigned char check_sim(void) {
                 ; 0004 0059 unsigned char check_sim(void) {
                 
                 	.CSEG
                 _check_sim:
                 ; .FSTART _check_sim
                 ; 0004 005A     int stat;
                 ; 0004 005B     char *comma;
                 ; 0004 005C 
                 ; 0004 005D     glcd_clear();
001754 940e 250b 	CALL __SAVELOCR4
                 ;	stat -> R16,R17
                 ;	*comma -> R18,R19
001756 940e 19ea 	CALL _glcd_clear
                 ; 0004 005E     // ---    ---
                 ; 0004 005F     uart_buffer_reset();
001758 940e 1520 	CALL _uart_buffer_reset
                 ; 0004 0060     send_at_command("AT+CPIN?");
                +
00175a eda1     +LDI R26 , LOW ( _0x80005 + ( 0 ) )
00175b e0b6     +LDI R27 , HIGH ( _0x80005 + ( 0 ) )
                 	__POINTW2MN _0x80005,0
00175c 940e 2310 	CALL SUBOPT_0x18
                 ; 0004 0061     if (read_until_keyword_keep_all(buffer, BUFFER_SIZE, 5000, "CPIN")) {
00175e 940e 2322 	CALL SUBOPT_0x1A
                +
001760 edaa     +LDI R26 , LOW ( _0x80005 + ( 9 ) )
001761 e0b6     +LDI R27 , HIGH ( _0x80005 + ( 9 ) )
                 	__POINTW2MN _0x80005,9
001762 940e 1526 	CALL _read_until_keyword_keep_all
001764 30e0      	CPI  R30,0
001765 f021      	BREQ _0x80006
                 ; 0004 0062         glcd_outtextxy(0, 0, buffer);
001766 940e 2329 	CALL SUBOPT_0x1B
001768 940e 232f 	CALL SUBOPT_0x1C
                 ; 0004 0063         delay_ms(1000);
                 ; 0004 0064 //        if (extract_field_after_keyword(buffer, "+CPIN:", value, sizeof(value))) {
                 ; 0004 0065 //            glcd_outtextxy(0, 16, value);  //  READY  PIN
                 ; 0004 0066 //        }
                 ; 0004 0067 //        delay_ms(1000);
                 ; 0004 0068     }
                 ; 0004 0069 
                 ; 0004 006A //    uart_buffer_reset();
                 ; 0004 006B //    send_at_command("AT+CREG?");
                 ; 0004 006C //    if (read_until_keyword_keep_all(buffer, BUFFER_SIZE, 5000, "+CREG")) {
                 ; 0004 006D //        glcd_outtextxy(0, 0, buffer);
                 ; 0004 006E //        if (extract_value_after_keyword(buffer, "+CREG:", value, sizeof(value))) {
                 ; 0004 006F //            glcd_outtextxy(0, 16, value);  //  READY  PIN
                 ; 0004 0070 //        }
                 ; 0004 0071 //    }
                 ; 0004 0072 
                 ; 0004 0073     // ---       ---
                 ; 0004 0074     do {
                 _0x80006:
                 _0x80008:
                 ; 0004 0075         glcd_clear();
00176a d27f      	RCALL _glcd_clear
                 ; 0004 0076         uart_buffer_reset();
00176b 940e 1520 	CALL _uart_buffer_reset
                 ; 0004 0077         send_at_command("AT+CREG?");
                +
00176d edaf     +LDI R26 , LOW ( _0x80005 + ( 14 ) )
00176e e0b6     +LDI R27 , HIGH ( _0x80005 + ( 14 ) )
                 	__POINTW2MN _0x80005,14
00176f 940e 2310 	CALL SUBOPT_0x18
                 ; 0004 0078         if (read_until_keyword_keep_all(buffer, BUFFER_SIZE, 2000, "CREG")) {
001771 940e 231b 	CALL SUBOPT_0x19
                +
001773 eea8     +LDI R26 , LOW ( _0x80005 + ( 23 ) )
001774 e0b6     +LDI R27 , HIGH ( _0x80005 + ( 23 ) )
                 	__POINTW2MN _0x80005,23
001775 940e 1526 	CALL _read_until_keyword_keep_all
001777 30e0      	CPI  R30,0
001778 f0d9      	BREQ _0x8000A
                 ; 0004 0079 //            glcd_outtextxy(0, 10, buffer);  //   
                 ; 0004 007A 
                 ; 0004 007B 
                 ; 0004 007C             if (extract_field_after_keyword(buffer, "+CREG:", 1, value, sizeof(value))) {
001779 940e 2335 	CALL SUBOPT_0x1D
                +
00177b eeed     +LDI R30 , LOW ( _0x80005 + ( 28 ) )
00177c e0f6     +LDI R31 , HIGH ( _0x80005 + ( 28 ) )
                 	__POINTW1MN _0x80005,28
00177d 93fa      	ST   -Y,R31
00177e 93ea      	ST   -Y,R30
00177f e0e1      	LDI  R30,LOW(1)
001780 e0f0      	LDI  R31,HIGH(1)
001781 940e 233a 	CALL SUBOPT_0x1E
001783 f081      	BREQ _0x8000B
                 ; 0004 007D                 glcd_outtextxy(0, 10, value);
001784 940e 22cd 	CALL SUBOPT_0xD
001786 efa8      	LDI  R26,LOW(_value)
001787 e0b9      	LDI  R27,HIGH(_value)
001788 940e 232f 	CALL SUBOPT_0x1C
                 ; 0004 007E                 delay_ms(1000);
                 ; 0004 007F                 stat = atoi(value);
00178a efa8      	LDI  R26,LOW(_value)
00178b e0b9      	LDI  R27,HIGH(_value)
00178c 940e 21a9 	CALL _atoi
00178e 018f      	MOVW R16,R30
                 ; 0004 0080                 if (stat == 1) break;
00178f e0e1      	LDI  R30,LOW(1)
001790 e0f0      	LDI  R31,HIGH(1)
001791 17e0      	CP   R30,R16
001792 07f1      	CPC  R31,R17
001793 f049      	BREQ _0x80009
                 ; 0004 0081             }
                 ; 0004 0082         }
                 _0x8000B:
                 ; 0004 0083         glcd_outtextxy(0, 15, "Waiting for network...");
                 _0x8000A:
001794 e0e0      	LDI  R30,LOW(0)
001795 93ea      	ST   -Y,R30
001796 e0ef      	LDI  R30,LOW(15)
001797 93ea      	ST   -Y,R30
                +
001798 efa4     +LDI R26 , LOW ( _0x80005 + ( 35 ) )
001799 e0b6     +LDI R27 , HIGH ( _0x80005 + ( 35 ) )
                 	__POINTW2MN _0x80005,35
00179a 940e 1d63 	CALL _glcd_outtextxy
                 ; 0004 0084 
                 ; 0004 0085     } while (1);
00179c cfcd      	RJMP _0x80008
                 _0x80009:
                 ; 0004 0086 
                 ; 0004 0087     glcd_outtextxy(0, 20, "Network OK!");
00179d e0e0      	LDI  R30,LOW(0)
00179e 93ea      	ST   -Y,R30
00179f e1e4      	LDI  R30,LOW(20)
0017a0 93ea      	ST   -Y,R30
                +
0017a1 e0ab     +LDI R26 , LOW ( _0x80005 + ( 58 ) )
0017a2 e0b7     +LDI R27 , HIGH ( _0x80005 + ( 58 ) )
                 	__POINTW2MN _0x80005,58
0017a3 940e 22be 	CALL SUBOPT_0xB
                 ; 0004 0088     delay_ms(500);
                 ; 0004 0089 
                 ; 0004 008A     return 1;  // 
0017a5 e0e1      	LDI  R30,LOW(1)
0017a6 c265      	RJMP _0x212000F
                 ; 0004 008B 
                 ; 0004 008C }
                 ; .FEND
                 
                 	.DSEG
                 _0x80005:
0006d1           	.BYTE 0x46
                 ;
                 ;
                 ;
                 ;unsigned char check_signal_quality(void) {
                 ; 0004 0090 unsigned char check_signal_quality(void) {
                 
                 	.CSEG
                 _check_signal_quality:
                 ; .FSTART _check_signal_quality
                 ; 0004 0091 
                 ; 0004 0092     uart_buffer_reset();
0017a7 940e 1520 	CALL _uart_buffer_reset
                 ; 0004 0093     send_at_command("AT+CSQ");
                +
0017a9 e1a7     +LDI R26 , LOW ( _0x8000D + ( 0 ) )
0017aa e0b7     +LDI R27 , HIGH ( _0x8000D + ( 0 ) )
                 	__POINTW2MN _0x8000D,0
0017ab 940e 2310 	CALL SUBOPT_0x18
                 ; 0004 0094 
                 ; 0004 0095     if (read_until_keyword_keep_all(buffer, BUFFER_SIZE, 5000, "CSQ")) {
0017ad 940e 2322 	CALL SUBOPT_0x1A
                +
0017af e1ae     +LDI R26 , LOW ( _0x8000D + ( 7 ) )
0017b0 e0b7     +LDI R27 , HIGH ( _0x8000D + ( 7 ) )
                 	__POINTW2MN _0x8000D,7
0017b1 940e 1526 	CALL _read_until_keyword_keep_all
0017b3 30e0      	CPI  R30,0
0017b4 f0c9      	BREQ _0x8000E
                 ; 0004 0096         glcd_clear();
0017b5 940e 228c 	CALL SUBOPT_0x4
                 ; 0004 0097         glcd_outtextxy(0, 0, buffer);
0017b7 e2a6      	LDI  R26,LOW(_buffer)
0017b8 e0ba      	LDI  R27,HIGH(_buffer)
0017b9 940e 1d63 	CALL _glcd_outtextxy
                 ; 0004 0098 
                 ; 0004 0099         if (extract_field_after_keyword(buffer, "+CSQ:", 0, value, sizeof(value))) {
0017bb 940e 2335 	CALL SUBOPT_0x1D
                +
0017bd e2e2     +LDI R30 , LOW ( _0x8000D + ( 11 ) )
0017be e0f7     +LDI R31 , HIGH ( _0x8000D + ( 11 ) )
                 	__POINTW1MN _0x8000D,11
0017bf 93fa      	ST   -Y,R31
0017c0 93ea      	ST   -Y,R30
0017c1 e0e0      	LDI  R30,LOW(0)
0017c2 e0f0      	LDI  R31,HIGH(0)
0017c3 940e 233a 	CALL SUBOPT_0x1E
0017c5 f041      	BREQ _0x8000F
                 ; 0004 009A //            int csq = atoi(value);  //    
                 ; 0004 009B //            glcd_outtextxy(0, 16, value);  //   
                 ; 0004 009C //            delay_ms(200);
                 ; 0004 009D             //stat = atoi(value);
                 ; 0004 009E             if (atoi(value) < 5) {
0017c6 efa8      	LDI  R26,LOW(_value)
0017c7 e0b9      	LDI  R27,HIGH(_value)
0017c8 940e 21a9 	CALL _atoi
0017ca 9735      	SBIW R30,5
0017cb f40c      	BRGE _0x80010
                 ; 0004 009F                 //   =>   
                 ; 0004 00A0                 return 0;
0017cc c08c      	RJMP _0x2120014
                 ; 0004 00A1             } else {
                 _0x80010:
                 ; 0004 00A2                 return 1;
0017cd c095      	RJMP _0x2120013
                 ; 0004 00A3             }
                 ; 0004 00A4         }
                 ; 0004 00A5     }
                 _0x8000F:
                 ; 0004 00A6     return 0; //    
                 _0x8000E:
0017ce c08a      	RJMP _0x2120014
                 ; 0004 00A7 }
                 ; .FEND
                 
                 	.DSEG
                 _0x8000D:
000717           	.BYTE 0x11
                 ;
                 ;
                 ;
                 ;
                 ;unsigned char check_signal_with_restart() {
                 ; 0004 00AC unsigned char check_signal_with_restart() {
                 
                 	.CSEG
                 _check_signal_with_restart:
                 ; .FSTART _check_signal_with_restart
                 ; 0004 00AD     int i;
                 ; 0004 00AE     for (i = 0; i < MAX_RETRY; i++) {
0017cf 931a      	ST   -Y,R17
0017d0 930a      	ST   -Y,R16
                 ;	i -> R16,R17
                +
0017d1 e000     +LDI R16 , LOW ( 0 )
0017d2 e010     +LDI R17 , HIGH ( 0 )
                 	__GETWRN 16,17,0
                 _0x80013:
                +
0017d3 3003     +CPI R16 , LOW ( 3 )
0017d4 e0e0     +LDI R30 , HIGH ( 3 )
0017d5 071e     +CPC R17 , R30
                 	__CPWRN 16,17,3
0017d6 f454      	BRGE _0x80014
                 ; 0004 00AF         if (check_signal_quality()) {
0017d7 dfcf      	RCALL _check_signal_quality
0017d8 30e0      	CPI  R30,0
0017d9 f011      	BREQ _0x80015
                 ; 0004 00B0             //      
                 ; 0004 00B1             return 1;
0017da e0e1      	LDI  R30,LOW(1)
0017db c013      	RJMP _0x2120015
                 ; 0004 00B2         }
                 ; 0004 00B3         //   :
                 ; 0004 00B4         sim800_restart();   //  
                 _0x80015:
0017dc df3d      	RCALL _sim800_restart
                 ; 0004 00B5         check_sim();
0017dd df76      	RCALL _check_sim
                 ; 0004 00B6     }
                +
0017de 5f0f     +SUBI R16 , LOW ( - 1 )
0017df 4f1f     +SBCI R17 , HIGH ( - 1 )
                 	__ADDWRN 16,17,1
0017e0 cff2      	RJMP _0x80013
                 _0x80014:
                 ; 0004 00B7     //       3     
                 ; 0004 00B8     //       
                 ; 0004 00B9     printf("No signal after %d retries!\n", MAX_RETRY);
                +
0017e1 ebe1     +LDI R30 , LOW ( 2 * _0x80000 + ( 203 ) )
0017e2 e1fe     +LDI R31 , HIGH ( 2 * _0x80000 + ( 203 ) )
                 	__POINTW1FN _0x80000,203
0017e3 93fa      	ST   -Y,R31
0017e4 93ea      	ST   -Y,R30
                +
0017e5 e0e3     +LDI R30 , LOW ( 0x3 )
0017e6 e0f0     +LDI R31 , HIGH ( 0x3 )
0017e7 e060     +LDI R22 , BYTE3 ( 0x3 )
0017e8 e070     +LDI R23 , BYTE4 ( 0x3 )
                 	__GETD1N 0x3
0017e9 940e 24de 	CALL __PUTPARD1
0017eb e084      	LDI  R24,4
0017ec 940e 1f32 	CALL _printf
0017ee 9626      	ADIW R28,6
                 ; 0004 00BA }
                 _0x2120015:
0017ef 9109      	LD   R16,Y+
0017f0 9119      	LD   R17,Y+
0017f1 9508      	RET
                 ; .FEND
                 ;
                 ;
                 ;
                 ;unsigned char init_sms(void)
                 ; 0004 00BF {
                 _init_sms:
                 ; .FSTART _init_sms
                 ; 0004 00C0     glcd_clear();
0017f2 940e 228c 	CALL SUBOPT_0x4
                 ; 0004 00C1     glcd_outtextxy(0, 0, "Setting SMS Mode...");
                +
0017f4 e2a8     +LDI R26 , LOW ( _0x80016 + ( 0 ) )
0017f5 e0b7     +LDI R27 , HIGH ( _0x80016 + ( 0 ) )
                 	__POINTW2MN _0x80016,0
0017f6 940e 1d63 	CALL _glcd_outtextxy
                 ; 0004 00C2 
                 ; 0004 00C3     send_at_command("AT+CFUN=1");
                +
0017f8 e3ac     +LDI R26 , LOW ( _0x80016 + ( 20 ) )
0017f9 e0b7     +LDI R27 , HIGH ( _0x80016 + ( 20 ) )
                 	__POINTW2MN _0x80016,20
0017fa 940e 230a 	CALL SUBOPT_0x17
                 ; 0004 00C4     delay_ms(500);
                 ; 0004 00C5 
                 ; 0004 00C6     send_at_command("AT+CSCLK=0");
                +
0017fc e4a6     +LDI R26 , LOW ( _0x80016 + ( 30 ) )
0017fd e0b7     +LDI R27 , HIGH ( _0x80016 + ( 30 ) )
                 	__POINTW2MN _0x80016,30
0017fe 940e 2346 	CALL SUBOPT_0x1F
                 ; 0004 00C7     delay_ms(200);
                 ; 0004 00C8 
                 ; 0004 00C9     //  SMS
                 ; 0004 00CA     send_at_command("AT+CMGF=1");
                +
001800 e5a1     +LDI R26 , LOW ( _0x80016 + ( 41 ) )
001801 e0b7     +LDI R27 , HIGH ( _0x80016 + ( 41 ) )
                 	__POINTW2MN _0x80016,41
001802 940e 2346 	CALL SUBOPT_0x1F
                 ; 0004 00CB     delay_ms(200);
                 ; 0004 00CC 
                 ; 0004 00CD     send_at_command("AT+CNMI=2,2,0,0,0");
                +
001804 e5ab     +LDI R26 , LOW ( _0x80016 + ( 51 ) )
001805 e0b7     +LDI R27 , HIGH ( _0x80016 + ( 51 ) )
                 	__POINTW2MN _0x80016,51
001806 940e 2346 	CALL SUBOPT_0x1F
                 ; 0004 00CE     delay_ms(200);
                 ; 0004 00CF 
                 ; 0004 00D0     send_at_command("AT+CMGDA=\"DEL ALL\"");
                +
001808 e6ad     +LDI R26 , LOW ( _0x80016 + ( 69 ) )
001809 e0b7     +LDI R27 , HIGH ( _0x80016 + ( 69 ) )
                 	__POINTW2MN _0x80016,69
00180a 940e 1510 	CALL _send_at_command
                 ; 0004 00D1     delay_ms(300);
00180c e2ac      	LDI  R26,LOW(300)
00180d e0b1      	LDI  R27,HIGH(300)
00180e 940e 245b 	CALL _delay_ms
                 ; 0004 00D2 
                 ; 0004 00D3     glcd_outtextxy(0, 10, "SMS Ready.");
001810 940e 22cd 	CALL SUBOPT_0xD
                +
001812 e8a0     +LDI R26 , LOW ( _0x80016 + ( 88 ) )
001813 e0b7     +LDI R27 , HIGH ( _0x80016 + ( 88 ) )
                 	__POINTW2MN _0x80016,88
001814 940e 1d63 	CALL _glcd_outtextxy
                 ; 0004 00D4     delay_ms(300);
001816 e2ac      	LDI  R26,LOW(300)
001817 e0b1      	LDI  R27,HIGH(300)
001818 c048      	RJMP _0x2120012
                 ; 0004 00D5 
                 ; 0004 00D6     return 1;
                 ; 0004 00D7 }
                 ; .FEND
                 
                 	.DSEG
                 _0x80016:
000728           	.BYTE 0x63
                 ;
                 ;
                 ;
                 ;unsigned char init_GPRS(void)
                 ; 0004 00DC {
                 
                 	.CSEG
                 _init_GPRS:
                 ; .FSTART _init_GPRS
                 ; 0004 00DD     glcd_clear();
001819 940e 228c 	CALL SUBOPT_0x4
                 ; 0004 00DE     glcd_outtextxy(0, 0, "Connecting to GPRS...");
                +
00181b e8ab     +LDI R26 , LOW ( _0x80017 + ( 0 ) )
00181c e0b7     +LDI R27 , HIGH ( _0x80017 + ( 0 ) )
                 	__POINTW2MN _0x80017,0
00181d 940e 1d63 	CALL _glcd_outtextxy
                 ; 0004 00DF 
                 ; 0004 00E0     send_at_command("AT+SAPBR=3,1,\"Contype\",\"GPRS\"");
                +
00181f eaa1     +LDI R26 , LOW ( _0x80017 + ( 22 ) )
001820 e0b7     +LDI R27 , HIGH ( _0x80017 + ( 22 ) )
                 	__POINTW2MN _0x80017,22
001821 940e 234c 	CALL SUBOPT_0x20
                 ; 0004 00E1     delay_ms(150);
                 ; 0004 00E2 
                 ; 0004 00E3     sprintf(at_command, "AT+SAPBR=3,1,\"APN\",\"%s\"", APN);
001823 e0e8      	LDI  R30,LOW(_at_command)
001824 e0fa      	LDI  R31,HIGH(_at_command)
001825 93fa      	ST   -Y,R31
001826 93ea      	ST   -Y,R30
                +
001827 e5eb     +LDI R30 , LOW ( 2 * _0x80000 + ( 373 ) )
001828 e1ff     +LDI R31 , HIGH ( 2 * _0x80000 + ( 373 ) )
                 	__POINTW1FN _0x80000,373
001829 93fa      	ST   -Y,R31
00182a 93ea      	ST   -Y,R30
00182b e7e0      	LDI  R30,LOW(_APN*2)
00182c e1fc      	LDI  R31,HIGH(_APN*2)
00182d 940e 22b4 	CALL SUBOPT_0x9
00182f 940e 22b9 	CALL SUBOPT_0xA
                 ; 0004 00E4     send_at_command(at_command);
001831 e0a8      	LDI  R26,LOW(_at_command)
001832 e0ba      	LDI  R27,HIGH(_at_command)
001833 940e 234c 	CALL SUBOPT_0x20
                 ; 0004 00E5     delay_ms(150);
                 ; 0004 00E6 
                 ; 0004 00E7     uart_buffer_reset();
001835 940e 1520 	CALL _uart_buffer_reset
                 ; 0004 00E8 
                 ; 0004 00E9     send_at_command("AT+SAPBR=1,1");
                +
001837 ebaf     +LDI R26 , LOW ( _0x80017 + ( 52 ) )
001838 e0b7     +LDI R27 , HIGH ( _0x80017 + ( 52 ) )
                 	__POINTW2MN _0x80017,52
001839 940e 2310 	CALL SUBOPT_0x18
                 ; 0004 00EA     if (read_until_keyword_keep_all(buffer, BUFFER_SIZE, 10000, "OK")) {
00183b 940e 2352 	CALL SUBOPT_0x21
                +
00183d ecac     +LDI R26 , LOW ( _0x80017 + ( 65 ) )
00183e e0b7     +LDI R27 , HIGH ( _0x80017 + ( 65 ) )
                 	__POINTW2MN _0x80017,65
00183f 940e 1526 	CALL _read_until_keyword_keep_all
001841 30e0      	CPI  R30,0
001842 f021      	BREQ _0x80018
                 ; 0004 00EB         glcd_outtextxy(0, 0, buffer);  //    "+CSQ: 11,0"  "OK"  
001843 940e 2329 	CALL SUBOPT_0x1B
001845 940e 22be 	CALL SUBOPT_0xB
                 ; 0004 00EC         delay_ms(500);
                 ; 0004 00ED     }
                 ; 0004 00EE 
                 ; 0004 00EF     glcd_clear();
                 _0x80018:
001847 940e 228c 	CALL SUBOPT_0x4
                 ; 0004 00F0     glcd_outtextxy(0, 0, "Fetching IP...");
                +
001849 ecaf     +LDI R26 , LOW ( _0x80017 + ( 68 ) )
00184a e0b7     +LDI R27 , HIGH ( _0x80017 + ( 68 ) )
                 	__POINTW2MN _0x80017,68
00184b 940e 2300 	CALL SUBOPT_0x15
                 ; 0004 00F1 
                 ; 0004 00F2     uart_buffer_reset();
                 ; 0004 00F3 
                 ; 0004 00F4     send_at_command("AT+SAPBR=2,1"); // Request IP
                +
00184d edae     +LDI R26 , LOW ( _0x80017 + ( 83 ) )
00184e e0b7     +LDI R27 , HIGH ( _0x80017 + ( 83 ) )
                 	__POINTW2MN _0x80017,83
00184f 940e 2310 	CALL SUBOPT_0x18
                 ; 0004 00F5     if (!read_until_keyword_keep_all(buffer, BUFFER_SIZE, 5000, "SAPBR")) {
001851 940e 2322 	CALL SUBOPT_0x1A
                +
001853 eeab     +LDI R26 , LOW ( _0x80017 + ( 96 ) )
001854 e0b7     +LDI R27 , HIGH ( _0x80017 + ( 96 ) )
                 	__POINTW2MN _0x80017,96
001855 940e 1526 	CALL _read_until_keyword_keep_all
001857 30e0      	CPI  R30,0
001858 f411      	BRNE _0x80019
                 ; 0004 00F6         return 0;  // Failure
                 _0x2120014:
001859 e0e0      	LDI  R30,LOW(0)
00185a 9508      	RET
                 ; 0004 00F7     }
                 ; 0004 00F8     glcd_outtextxy(0, 0, buffer);  //    "+CSQ: 11,0"  "OK"  
                 _0x80019:
00185b 940e 2329 	CALL SUBOPT_0x1B
00185d 940e 1d63 	CALL _glcd_outtextxy
                 ; 0004 00F9     delay_ms(500);
00185f efa4      	LDI  R26,LOW(500)
001860 e0b1      	LDI  R27,HIGH(500)
                 _0x2120012:
001861 940e 245b 	CALL _delay_ms
                 ; 0004 00FA 
                 ; 0004 00FB     // If we reach here, it means getting the IP address failed
                 ; 0004 00FC     return 1; // Failure
                 _0x2120013:
001863 e0e1      	LDI  R30,LOW(1)
001864 9508      	RET
                 ; 0004 00FD }
                 ; .FEND
                 
                 	.DSEG
                 _0x80017:
00078b           	.BYTE 0x66
                 ;
                 ;
                 ;void gprs_keep_alive(void) {
                 ; 0004 0100 void gprs_keep_alive(void) {
                 
                 	.CSEG
                 _gprs_keep_alive:
                 ; .FSTART _gprs_keep_alive
                 ; 0004 0101     glcd_clear();
001865 940e 228c 	CALL SUBOPT_0x4
                 ; 0004 0102     glcd_outtextxy(0, 0, "Checking Internet...");
                +
001867 efa1     +LDI R26 , LOW ( _0x8001A + ( 0 ) )
001868 e0b7     +LDI R27 , HIGH ( _0x8001A + ( 0 ) )
                 	__POINTW2MN _0x8001A,0
001869 940e 2300 	CALL SUBOPT_0x15
                 ; 0004 0103 
                 ; 0004 0104     // ---  HTTP ---
                 ; 0004 0105     uart_buffer_reset();
                 ; 0004 0106     send_at_command("AT+HTTPINIT");
                +
00186b e0a6     +LDI R26 , LOW ( _0x8001A + ( 21 ) )
00186c e0b8     +LDI R27 , HIGH ( _0x8001A + ( 21 ) )
                 	__POINTW2MN _0x8001A,21
00186d 940e 2346 	CALL SUBOPT_0x1F
                 ; 0004 0107     delay_ms(200);
                 ; 0004 0108 
                 ; 0004 0109     // ---   GPRS ---
                 ; 0004 010A     uart_buffer_reset();
00186f 940e 1520 	CALL _uart_buffer_reset
                 ; 0004 010B     send_at_command("AT+HTTPPARA=\"CID\",1");
                +
001871 e1a2     +LDI R26 , LOW ( _0x8001A + ( 33 ) )
001872 e0b8     +LDI R27 , HIGH ( _0x8001A + ( 33 ) )
                 	__POINTW2MN _0x8001A,33
001873 940e 2346 	CALL SUBOPT_0x1F
                 ; 0004 010C     delay_ms(200);
                 ; 0004 010D 
                 ; 0004 010E     // ---  URL ---
                 ; 0004 010F     uart_buffer_reset();
001875 940e 1520 	CALL _uart_buffer_reset
                 ; 0004 0110     send_at_command("AT+HTTPPARA=\"URL\",\"http://www.google.com\"");
                +
001877 e2a6     +LDI R26 , LOW ( _0x8001A + ( 53 ) )
001878 e0b8     +LDI R27 , HIGH ( _0x8001A + ( 53 ) )
                 	__POINTW2MN _0x8001A,53
001879 940e 2346 	CALL SUBOPT_0x1F
                 ; 0004 0111     delay_ms(200);
                 ; 0004 0112 
                 ; 0004 0113     // ---   GET ---
                 ; 0004 0114     uart_buffer_reset();
00187b 940e 1520 	CALL _uart_buffer_reset
                 ; 0004 0115     send_at_command("AT+HTTPACTION=0"); // 0=GET
                +
00187d e5a0     +LDI R26 , LOW ( _0x8001A + ( 95 ) )
00187e e0b8     +LDI R27 , HIGH ( _0x8001A + ( 95 ) )
                 	__POINTW2MN _0x8001A,95
00187f 940e 1510 	CALL _send_at_command
                 ; 0004 0116     delay_ms(1000); //    HTTP
001881 940e 2359 	CALL SUBOPT_0x22
                 ; 0004 0117 
                 ; 0004 0118     // ---   ---
                 ; 0004 0119     uart_buffer_reset();
                 ; 0004 011A     if (read_until_keyword_keep_all(buffer, BUFFER_SIZE, 10000, "HTTPACTION:")) {
001883 940e 2335 	CALL SUBOPT_0x1D
001885 e0e0      	LDI  R30,LOW(512)
001886 e0f2      	LDI  R31,HIGH(512)
001887 93fa      	ST   -Y,R31
001888 93ea      	ST   -Y,R30
001889 940e 2352 	CALL SUBOPT_0x21
                +
00188b e6a0     +LDI R26 , LOW ( _0x8001A + ( 111 ) )
00188c e0b8     +LDI R27 , HIGH ( _0x8001A + ( 111 ) )
                 	__POINTW2MN _0x8001A,111
00188d 940e 1526 	CALL _read_until_keyword_keep_all
00188f 30e0      	CPI  R30,0
001890 f139      	BREQ _0x8001B
                 ; 0004 011B         //  : +HTTPACTION:0,200,1256
                 ; 0004 011C         int status = 0;
                 ; 0004 011D         char *p = strchr(buffer, ',');  //  
                 ; 0004 011E         if (p) {
001891 9724      	SBIW R28,4
001892 e0e0      	LDI  R30,LOW(0)
001893 83ea      	STD  Y+2,R30
001894 83eb      	STD  Y+3,R30
                 ;	status -> Y+2
                 ;	*p -> Y+0
001895 940e 2335 	CALL SUBOPT_0x1D
001897 e2ac      	LDI  R26,LOW(44)
001898 940e 20ef 	CALL _strchr
00189a 83e8      	ST   Y,R30
00189b 83f9      	STD  Y+1,R31
00189c 9730      	SBIW R30,0
00189d f039      	BREQ _0x8001C
                 ; 0004 011F             status = atoi(p + 1);      //      =   HTTP
00189e 81a8      	LD   R26,Y
00189f 81b9      	LDD  R27,Y+1
0018a0 9611      	ADIW R26,1
0018a1 940e 21a9 	CALL _atoi
0018a3 83ea      	STD  Y+2,R30
0018a4 83fb      	STD  Y+2+1,R31
                 ; 0004 0120         }
                 ; 0004 0121 
                 ; 0004 0122         if (status == 200) {
                 _0x8001C:
0018a5 81aa      	LDD  R26,Y+2
0018a6 81bb      	LDD  R27,Y+2+1
0018a7 3ca8      	CPI  R26,LOW(0xC8)
0018a8 e0e0      	LDI  R30,HIGH(0xC8)
0018a9 07be      	CPC  R27,R30
0018aa f429      	BRNE _0x8001D
                 ; 0004 0123             glcd_outtextxy(0, 16, "Internet OK");
0018ab 940e 235f 	CALL SUBOPT_0x23
                +
0018ad e6ac     +LDI R26 , LOW ( _0x8001A + ( 123 ) )
0018ae e0b8     +LDI R27 , HIGH ( _0x8001A + ( 123 ) )
                 	__POINTW2MN _0x8001A,123
0018af c004      	RJMP _0x80020
                 ; 0004 0124         } else {
                 _0x8001D:
                 ; 0004 0125             glcd_outtextxy(0, 16, "Internet Failed");
0018b0 940e 235f 	CALL SUBOPT_0x23
                +
0018b2 e7a8     +LDI R26 , LOW ( _0x8001A + ( 135 ) )
0018b3 e0b8     +LDI R27 , HIGH ( _0x8001A + ( 135 ) )
                 	__POINTW2MN _0x8001A,135
                 _0x80020:
0018b4 940e 1d63 	CALL _glcd_outtextxy
                 ; 0004 0126         }
                 ; 0004 0127     } else {
0018b6 9624      	ADIW R28,4
0018b7 c006      	RJMP _0x8001F
                 _0x8001B:
                 ; 0004 0128         glcd_outtextxy(0, 16, "No response!");
0018b8 940e 235f 	CALL SUBOPT_0x23
                +
0018ba e8a8     +LDI R26 , LOW ( _0x8001A + ( 151 ) )
0018bb e0b8     +LDI R27 , HIGH ( _0x8001A + ( 151 ) )
                 	__POINTW2MN _0x8001A,151
0018bc 940e 1d63 	CALL _glcd_outtextxy
                 ; 0004 0129     }
                 _0x8001F:
                 ; 0004 012A 
                 ; 0004 012B     delay_ms(1000);
0018be 940e 2359 	CALL SUBOPT_0x22
                 ; 0004 012C 
                 ; 0004 012D     // ---  HTTP ---
                 ; 0004 012E     uart_buffer_reset();
                 ; 0004 012F     send_at_command("AT+HTTPTERM");
                +
0018c0 e9a5     +LDI R26 , LOW ( _0x8001A + ( 164 ) )
0018c1 e0b8     +LDI R27 , HIGH ( _0x8001A + ( 164 ) )
                 	__POINTW2MN _0x8001A,164
0018c2 940e 2346 	CALL SUBOPT_0x1F
                 ; 0004 0130     delay_ms(200);
                 ; 0004 0131 }
0018c4 9508      	RET
                 ; .FEND
                 
                 	.DSEG
                 _0x8001A:
0007f1           	.BYTE 0xB0
                 ;
                 	#ifndef __SLEEP_DEFINED__
                 	#endif
                 
                 	.CSEG
                 _ks0108_enable_G100:
                 ; .FSTART _ks0108_enable_G100
0018c5 0000      	nop
0018c6 91e0 0062 	LDS  R30,98
0018c8 61e0      	ORI  R30,0x10
0018c9 93e0 0062 	STS  98,R30
0018cb 0000      	nop
0018cc 9508      	RET
                 ; .FEND
                 _ks0108_disable_G100:
                 ; .FSTART _ks0108_disable_G100
0018cd 91e0 0062 	LDS  R30,98
0018cf 7eef      	ANDI R30,0xEF
0018d0 940e 2364 	CALL SUBOPT_0x24
0018d2 7def      	ANDI R30,0xDF
0018d3 940e 2364 	CALL SUBOPT_0x24
0018d5 7bef      	ANDI R30,0xBF
0018d6 93e0 0062 	STS  98,R30
0018d8 9508      	RET
                 ; .FEND
                 _ks0108_rdbus_G100:
                 ; .FSTART _ks0108_rdbus_G100
0018d9 931a      	ST   -Y,R17
0018da dfea      	RCALL _ks0108_enable_G100
0018db b319      	IN   R17,25
0018dc 91e0 0062 	LDS  R30,98
0018de 7eef      	ANDI R30,0xEF
0018df 93e0 0062 	STS  98,R30
0018e1 2fe1      	MOV  R30,R17
                 _0x2120011:
0018e2 9119      	LD   R17,Y+
0018e3 9508      	RET
                 ; .FEND
                 _ks0108_busy_G100:
                 ; .FSTART _ks0108_busy_G100
0018e4 93aa      	ST   -Y,R26
0018e5 931a      	ST   -Y,R17
0018e6 940e 2369 	CALL SUBOPT_0x25
0018e8 7feb      	ANDI R30,0xFB
0018e9 93e0 0062 	STS  98,R30
0018eb 81e9      	LDD  R30,Y+1
0018ec 5fef      	SUBI R30,-LOW(1)
0018ed 2f1e      	MOV  R17,R30
0018ee ff10      	SBRS R17,0
0018ef c004      	RJMP _0x2000003
0018f0 91e0 0062 	LDS  R30,98
0018f2 62e0      	ORI  R30,0x20
0018f3 c003      	RJMP _0x20000AC
                 _0x2000003:
0018f4 91e0 0062 	LDS  R30,98
0018f6 7def      	ANDI R30,0xDF
                 _0x20000AC:
0018f7 93e0 0062 	STS  98,R30
0018f9 ff11      	SBRS R17,1
0018fa c004      	RJMP _0x2000005
0018fb 91e0 0062 	LDS  R30,98
0018fd 64e0      	ORI  R30,0x40
0018fe c003      	RJMP _0x20000AD
                 _0x2000005:
0018ff 91e0 0062 	LDS  R30,98
001901 7bef      	ANDI R30,0xBF
                 _0x20000AD:
001902 93e0 0062 	STS  98,R30
                 _0x2000007:
001904 dfd4      	RCALL _ks0108_rdbus_G100
001905 78e0      	ANDI R30,LOW(0x80)
001906 f7e9      	BRNE _0x2000007
001907 8118      	LDD  R17,Y+0
001908 c05e      	RJMP _0x2120010
                 ; .FEND
                 _ks0108_wrcmd_G100:
                 ; .FSTART _ks0108_wrcmd_G100
001909 93aa      	ST   -Y,R26
00190a 81a9      	LDD  R26,Y+1
00190b dfd8      	RCALL _ks0108_busy_G100
00190c 91e0 0062 	LDS  R30,98
00190e 940e 236f 	CALL SUBOPT_0x26
001910 c056      	RJMP _0x2120010
                 ; .FEND
                 _ks0108_setloc_G100:
                 ; .FSTART _ks0108_setloc_G100
                +
001911 91e0 0c27+LDS R30 , _ks0108_coord_G100 + ( 1 )
                 	__GETB1MN _ks0108_coord_G100,1
001913 93ea      	ST   -Y,R30
001914 91e0 0c26 	LDS  R30,_ks0108_coord_G100
001916 73ef      	ANDI R30,LOW(0x3F)
001917 64e0      	ORI  R30,0x40
001918 2fae      	MOV  R26,R30
001919 dfef      	RCALL _ks0108_wrcmd_G100
                +
00191a 91e0 0c27+LDS R30 , _ks0108_coord_G100 + ( 1 )
                 	__GETB1MN _ks0108_coord_G100,1
00191c 93ea      	ST   -Y,R30
                +
00191d 91e0 0c28+LDS R30 , _ks0108_coord_G100 + ( 2 )
                 	__GETB1MN _ks0108_coord_G100,2
00191f 6be8      	ORI  R30,LOW(0xB8)
001920 2fae      	MOV  R26,R30
001921 dfe7      	RCALL _ks0108_wrcmd_G100
001922 9508      	RET
                 ; .FEND
                 _ks0108_gotoxp_G100:
                 ; .FSTART _ks0108_gotoxp_G100
001923 93aa      	ST   -Y,R26
001924 81e9      	LDD  R30,Y+1
001925 93e0 0c26 	STS  _ks0108_coord_G100,R30
001927 95e2      	SWAP R30
001928 70ef      	ANDI R30,0xF
001929 95e6      	LSR  R30
00192a 95e6      	LSR  R30
                +
00192b 93e0 0c27+STS _ks0108_coord_G100 + ( 1 ) , R30
                 	__PUTB1MN _ks0108_coord_G100,1
00192d 81e8      	LD   R30,Y
                +
00192e 93e0 0c28+STS _ks0108_coord_G100 + ( 2 ) , R30
                 	__PUTB1MN _ks0108_coord_G100,2
001930 dfe0      	RCALL _ks0108_setloc_G100
001931 c035      	RJMP _0x2120010
                 ; .FEND
                 _ks0108_nextx_G100:
                 ; .FSTART _ks0108_nextx_G100
001932 91a0 0c26 	LDS  R26,_ks0108_coord_G100
001934 5faf      	SUBI R26,-LOW(1)
001935 93a0 0c26 	STS  _ks0108_coord_G100,R26
001937 38a0      	CPI  R26,LOW(0x80)
001938 f018      	BRLO _0x200000A
001939 e0e0      	LDI  R30,LOW(0)
00193a 93e0 0c26 	STS  _ks0108_coord_G100,R30
                 _0x200000A:
00193c 91e0 0c26 	LDS  R30,_ks0108_coord_G100
00193e 73ef      	ANDI R30,LOW(0x3F)
00193f f431      	BRNE _0x200000B
001940 91e0 0c26 	LDS  R30,_ks0108_coord_G100
001942 93ea      	ST   -Y,R30
                +
001943 91a0 0c28+LDS R26 , _ks0108_coord_G100 + ( 2 )
                 	__GETB2MN _ks0108_coord_G100,2
001945 dfdd      	RCALL _ks0108_gotoxp_G100
                 _0x200000B:
001946 9508      	RET
                 ; .FEND
                 _ks0108_wrdata_G100:
                 ; .FSTART _ks0108_wrdata_G100
001947 93aa      	ST   -Y,R26
                +
001948 91a0 0c27+LDS R26 , _ks0108_coord_G100 + ( 1 )
                 	__GETB2MN _ks0108_coord_G100,1
00194a df99      	RCALL _ks0108_busy_G100
00194b 91e0 0062 	LDS  R30,98
00194d 60e4      	ORI  R30,4
00194e 940e 2364 	CALL SUBOPT_0x24
001950 940e 236f 	CALL SUBOPT_0x26
001952 940c 1d8a 	JMP  _0x212000A
                 ; .FEND
                 _ks0108_rddata_G100:
                 ; .FSTART _ks0108_rddata_G100
                +
001954 91a0 0c27+LDS R26 , _ks0108_coord_G100 + ( 1 )
                 	__GETB2MN _ks0108_coord_G100,1
001956 df8d      	RCALL _ks0108_busy_G100
001957 940e 2369 	CALL SUBOPT_0x25
001959 60e4      	ORI  R30,4
00195a 93e0 0062 	STS  98,R30
00195c df7c      	RCALL _ks0108_rdbus_G100
00195d 9508      	RET
                 ; .FEND
                 _ks0108_rdbyte_G100:
                 ; .FSTART _ks0108_rdbyte_G100
00195e 93aa      	ST   -Y,R26
00195f 81e9      	LDD  R30,Y+1
001960 93ea      	ST   -Y,R30
001961 81e9      	LDD  R30,Y+1
001962 940e 237a 	CALL SUBOPT_0x27
001964 dfef      	RCALL _ks0108_rddata_G100
001965 dfab      	RCALL _ks0108_setloc_G100
001966 dfed      	RCALL _ks0108_rddata_G100
                 _0x2120010:
001967 9622      	ADIW R28,2
001968 9508      	RET
                 ; .FEND
                 _glcd_init:
                 ; .FSTART _glcd_init
001969 93ba      	ST   -Y,R27
00196a 93aa      	ST   -Y,R26
00196b 931a      	ST   -Y,R17
00196c 91e0 0061 	LDS  R30,97
00196e 61e0      	ORI  R30,0x10
00196f 940e 2380 	CALL SUBOPT_0x28
001971 60e8      	ORI  R30,8
001972 940e 2380 	CALL SUBOPT_0x28
001974 60e4      	ORI  R30,4
001975 940e 2380 	CALL SUBOPT_0x28
001977 68e0      	ORI  R30,0x80
001978 93e0 0061 	STS  97,R30
00197a 91e0 0062 	LDS  R30,98
00197c 68e0      	ORI  R30,0x80
00197d 93e0 0062 	STS  98,R30
00197f 91e0 0061 	LDS  R30,97
001981 62e0      	ORI  R30,0x20
001982 940e 2380 	CALL SUBOPT_0x28
001984 64e0      	ORI  R30,0x40
001985 93e0 0061 	STS  97,R30
001987 df45      	RCALL _ks0108_disable_G100
001988 91e0 0062 	LDS  R30,98
00198a 77ef      	ANDI R30,0x7F
00198b 93e0 0062 	STS  98,R30
00198d e6a4      	LDI  R26,LOW(100)
00198e e0b0      	LDI  R27,0
00198f 940e 245b 	CALL _delay_ms
001991 91e0 0062 	LDS  R30,98
001993 68e0      	ORI  R30,0x80
001994 93e0 0062 	STS  98,R30
001996 e010      	LDI  R17,LOW(0)
                 _0x200000C:
001997 3012      	CPI  R17,2
001998 f440      	BRSH _0x200000E
001999 931a      	ST   -Y,R17
00199a e3af      	LDI  R26,LOW(63)
00199b df6d      	RCALL _ks0108_wrcmd_G100
00199c 931a      	ST   -Y,R17
00199d 9513      	INC  R17
00199e eca0      	LDI  R26,LOW(192)
00199f df69      	RCALL _ks0108_wrcmd_G100
0019a0 cff6      	RJMP _0x200000C
                 _0x200000E:
0019a1 e0e1      	LDI  R30,LOW(1)
0019a2 93e0 08a1 	STS  _glcd_state,R30
0019a4 e0e0      	LDI  R30,LOW(0)
                +
0019a5 93e0 08a2+STS _glcd_state + ( 1 ) , R30
                 	__PUTB1MN _glcd_state,1
0019a7 81e9      	LDD  R30,Y+1
0019a8 81fa      	LDD  R31,Y+1+1
0019a9 9730      	SBIW R30,0
0019aa f0a9      	BREQ _0x200000F
0019ab 81a9      	LDD  R26,Y+1
0019ac 81ba      	LDD  R27,Y+1+1
0019ad 940e 24ca 	CALL __GETW1P
0019af 940e 22e4 	CALL SUBOPT_0x10
0019b1 81a9      	LDD  R26,Y+1
0019b2 81ba      	LDD  R27,Y+1+1
0019b3 9612      	ADIW R26,2
0019b4 940e 24ca 	CALL __GETW1P
                +
0019b6 93e0 08ba+STS _glcd_state + ( 25 ) , R30
0019b8 93f0 08bb+STS _glcd_state + ( 25 ) + 1 , R31
                 	__PUTW1MN _glcd_state,25
0019ba 81a9      	LDD  R26,Y+1
0019bb 81ba      	LDD  R27,Y+1+1
0019bc 9614      	ADIW R26,4
0019bd 940e 24ca 	CALL __GETW1P
0019bf c00a      	RJMP _0x20000AE
                 _0x200000F:
0019c0 e0e0      	LDI  R30,LOW(0)
0019c1 e0f0      	LDI  R31,HIGH(0)
0019c2 940e 22e4 	CALL SUBOPT_0x10
0019c4 e0e0      	LDI  R30,LOW(0)
0019c5 e0f0      	LDI  R31,HIGH(0)
                +
0019c6 93e0 08ba+STS _glcd_state + ( 25 ) , R30
0019c8 93f0 08bb+STS _glcd_state + ( 25 ) + 1 , R31
                 	__PUTW1MN _glcd_state,25
                 _0x20000AE:
                +
0019ca 93e0 08bc+STS _glcd_state + ( 27 ) , R30
0019cc 93f0 08bd+STS _glcd_state + ( 27 ) + 1 , R31
                 	__PUTW1MN _glcd_state,27
0019ce e0e1      	LDI  R30,LOW(1)
                +
0019cf 93e0 08a7+STS _glcd_state + ( 6 ) , R30
                 	__PUTB1MN _glcd_state,6
                +
0019d1 93e0 08a8+STS _glcd_state + ( 7 ) , R30
                 	__PUTB1MN _glcd_state,7
                +
0019d3 93e0 08a9+STS _glcd_state + ( 8 ) , R30
                 	__PUTB1MN _glcd_state,8
0019d5 efef      	LDI  R30,LOW(255)
                +
0019d6 93e0 08aa+STS _glcd_state + ( 9 ) , R30
                 	__PUTB1MN _glcd_state,9
0019d8 e0e1      	LDI  R30,LOW(1)
                +
0019d9 93e0 08b1+STS _glcd_state + ( 16 ) , R30
                 	__PUTB1MN _glcd_state,16
                +
0019db ebe2     +LDI R30 , LOW ( _glcd_state + ( 17 ) )
0019dc e0f8     +LDI R31 , HIGH ( _glcd_state + ( 17 ) )
                 	__POINTW1MN _glcd_state,17
0019dd 93fa      	ST   -Y,R31
0019de 93ea      	ST   -Y,R30
0019df efef      	LDI  R30,LOW(255)
0019e0 93ea      	ST   -Y,R30
0019e1 e0a8      	LDI  R26,LOW(8)
0019e2 e0b0      	LDI  R27,0
0019e3 940e 20df 	CALL _memset
0019e5 d004      	RCALL _glcd_clear
0019e6 e0e1      	LDI  R30,LOW(1)
0019e7 8118      	LDD  R17,Y+0
0019e8 9623      	ADIW R28,3
0019e9 9508      	RET
                 ; .FEND
                 _glcd_clear:
                 ; .FSTART _glcd_clear
0019ea 940e 250b 	CALL __SAVELOCR4
0019ec e000      	LDI  R16,0
0019ed e030      	LDI  R19,0
                +
0019ee 91e0 08a2+LDS R30 , _glcd_state + ( 1 )
                 	__GETB1MN _glcd_state,1
0019f0 30e0      	CPI  R30,0
0019f1 f009      	BREQ _0x2000015
0019f2 ef0f      	LDI  R16,LOW(255)
                 _0x2000015:
                 _0x2000016:
0019f3 3038      	CPI  R19,8
0019f4 f478      	BRSH _0x2000018
0019f5 e0e0      	LDI  R30,LOW(0)
0019f6 93ea      	ST   -Y,R30
0019f7 2fa3      	MOV  R26,R19
0019f8 5f3f      	SUBI R19,-1
0019f9 df29      	RCALL _ks0108_gotoxp_G100
0019fa e010      	LDI  R17,LOW(0)
                 _0x2000019:
0019fb 2fa1      	MOV  R26,R17
0019fc 5f1f      	SUBI R17,-1
0019fd 38a0      	CPI  R26,LOW(0x80)
0019fe f420      	BRSH _0x200001B
0019ff 2fa0      	MOV  R26,R16
001a00 940e 2385 	CALL SUBOPT_0x29
001a02 cff8      	RJMP _0x2000019
                 _0x200001B:
001a03 cfef      	RJMP _0x2000016
                 _0x2000018:
001a04 e0e0      	LDI  R30,LOW(0)
001a05 93ea      	ST   -Y,R30
001a06 e0a0      	LDI  R26,LOW(0)
001a07 df1b      	RCALL _ks0108_gotoxp_G100
001a08 e0e0      	LDI  R30,LOW(0)
001a09 93ea      	ST   -Y,R30
001a0a e0a0      	LDI  R26,LOW(0)
001a0b d36c      	RCALL _glcd_moveto
                 _0x212000F:
001a0c 940e 2512 	CALL __LOADLOCR4
001a0e 9624      	ADIW R28,4
001a0f 9508      	RET
                 ; .FEND
                 _glcd_putpixel:
                 ; .FSTART _glcd_putpixel
001a10 93aa      	ST   -Y,R26
001a11 931a      	ST   -Y,R17
001a12 930a      	ST   -Y,R16
001a13 81ac      	LDD  R26,Y+4
001a14 38a0      	CPI  R26,LOW(0x80)
001a15 f418      	BRSH _0x200001D
001a16 81ab      	LDD  R26,Y+3
001a17 34a0      	CPI  R26,LOW(0x40)
001a18 f008      	BRLO _0x200001C
                 _0x200001D:
001a19 c016      	RJMP _0x212000E
                 _0x200001C:
001a1a 81ec      	LDD  R30,Y+4
001a1b 93ea      	ST   -Y,R30
001a1c 81ac      	LDD  R26,Y+4
001a1d df40      	RCALL _ks0108_rdbyte_G100
001a1e 2f1e      	MOV  R17,R30
001a1f def1      	RCALL _ks0108_setloc_G100
001a20 81eb      	LDD  R30,Y+3
001a21 70e7      	ANDI R30,LOW(0x7)
001a22 e0a1      	LDI  R26,LOW(1)
001a23 940e 2472 	CALL __LSLB12
001a25 2f0e      	MOV  R16,R30
001a26 81ea      	LDD  R30,Y+2
001a27 30e0      	CPI  R30,0
001a28 f011      	BREQ _0x200001F
001a29 2b10      	OR   R17,R16
001a2a c003      	RJMP _0x2000020
                 _0x200001F:
001a2b 2fe0      	MOV  R30,R16
001a2c 95e0      	COM  R30
001a2d 231e      	AND  R17,R30
                 _0x2000020:
001a2e 2fa1      	MOV  R26,R17
001a2f df17      	RCALL _ks0108_wrdata_G100
                 _0x212000E:
001a30 8119      	LDD  R17,Y+1
001a31 8108      	LDD  R16,Y+0
001a32 9625      	ADIW R28,5
001a33 9508      	RET
                 ; .FEND
                 _ks0108_wrmasked_G100:
                 ; .FSTART _ks0108_wrmasked_G100
001a34 93aa      	ST   -Y,R26
001a35 931a      	ST   -Y,R17
001a36 81ed      	LDD  R30,Y+5
001a37 93ea      	ST   -Y,R30
001a38 81ad      	LDD  R26,Y+5
001a39 df24      	RCALL _ks0108_rdbyte_G100
001a3a 2f1e      	MOV  R17,R30
001a3b ded5      	RCALL _ks0108_setloc_G100
001a3c 81e9      	LDD  R30,Y+1
001a3d 30e7      	CPI  R30,LOW(0x7)
001a3e f011      	BREQ _0x200002B
001a3f 30e8      	CPI  R30,LOW(0x8)
001a40 f439      	BRNE _0x200002C
                 _0x200002B:
001a41 81eb      	LDD  R30,Y+3
001a42 93ea      	ST   -Y,R30
001a43 81aa      	LDD  R26,Y+2
001a44 940e 21eb 	CALL _glcd_mappixcolor1bit
001a46 83eb      	STD  Y+3,R30
001a47 c008      	RJMP _0x200002D
                 _0x200002C:
001a48 30e3      	CPI  R30,LOW(0x3)
001a49 f421      	BRNE _0x200002F
001a4a 81eb      	LDD  R30,Y+3
001a4b 95e0      	COM  R30
001a4c 83eb      	STD  Y+3,R30
001a4d c002      	RJMP _0x2000030
                 _0x200002F:
001a4e 30e0      	CPI  R30,0
001a4f f421      	BRNE _0x2000031
                 _0x2000030:
                 _0x200002D:
001a50 81ea      	LDD  R30,Y+2
001a51 95e0      	COM  R30
001a52 231e      	AND  R17,R30
001a53 c002      	RJMP _0x2000032
                 _0x2000031:
001a54 30e2      	CPI  R30,LOW(0x2)
001a55 f429      	BRNE _0x2000033
                 _0x2000032:
001a56 81ea      	LDD  R30,Y+2
001a57 81ab      	LDD  R26,Y+3
001a58 23ea      	AND  R30,R26
001a59 2b1e      	OR   R17,R30
001a5a c00e      	RJMP _0x2000029
                 _0x2000033:
001a5b 30e1      	CPI  R30,LOW(0x1)
001a5c f429      	BRNE _0x2000034
001a5d 81ea      	LDD  R30,Y+2
001a5e 81ab      	LDD  R26,Y+3
001a5f 23ea      	AND  R30,R26
001a60 271e      	EOR  R17,R30
001a61 c007      	RJMP _0x2000029
                 _0x2000034:
001a62 30e4      	CPI  R30,LOW(0x4)
001a63 f429      	BRNE _0x2000029
001a64 81ea      	LDD  R30,Y+2
001a65 95e0      	COM  R30
001a66 81ab      	LDD  R26,Y+3
001a67 2bea      	OR   R30,R26
001a68 231e      	AND  R17,R30
                 _0x2000029:
001a69 2fa1      	MOV  R26,R17
001a6a 940e 2385 	CALL SUBOPT_0x29
001a6c 8118      	LDD  R17,Y+0
001a6d 9626      	ADIW R28,6
001a6e 9508      	RET
                 ; .FEND
                 _glcd_block:
                 ; .FSTART _glcd_block
001a6f 93aa      	ST   -Y,R26
001a70 9723      	SBIW R28,3
001a71 940e 2509 	CALL __SAVELOCR6
001a73 89a8      	LDD  R26,Y+16
001a74 38a0      	CPI  R26,LOW(0x80)
001a75 f448      	BRSH _0x2000037
001a76 85af      	LDD  R26,Y+15
001a77 34a0      	CPI  R26,LOW(0x40)
001a78 f430      	BRSH _0x2000037
001a79 85ae      	LDD  R26,Y+14
001a7a 30a0      	CPI  R26,LOW(0x0)
001a7b f019      	BREQ _0x2000037
001a7c 85ad      	LDD  R26,Y+13
001a7d 30a0      	CPI  R26,LOW(0x0)
001a7e f409      	BRNE _0x2000036
                 _0x2000037:
001a7f c1c6      	RJMP _0x212000D
                 _0x2000036:
001a80 85ee      	LDD  R30,Y+14
001a81 87e8      	STD  Y+8,R30
001a82 89a8      	LDD  R26,Y+16
001a83 27bb      	CLR  R27
001a84 85ee      	LDD  R30,Y+14
001a85 e0f0      	LDI  R31,0
001a86 0fae      	ADD  R26,R30
001a87 1fbf      	ADC  R27,R31
001a88 38a1      	CPI  R26,LOW(0x81)
001a89 e0e0      	LDI  R30,HIGH(0x81)
001a8a 07be      	CPC  R27,R30
001a8b f020      	BRLO _0x2000039
001a8c 89a8      	LDD  R26,Y+16
001a8d e8e0      	LDI  R30,LOW(128)
001a8e 1bea      	SUB  R30,R26
001a8f 87ee      	STD  Y+14,R30
                 _0x2000039:
001a90 852d      	LDD  R18,Y+13
001a91 85af      	LDD  R26,Y+15
001a92 27bb      	CLR  R27
001a93 85ed      	LDD  R30,Y+13
001a94 e0f0      	LDI  R31,0
001a95 0fae      	ADD  R26,R30
001a96 1fbf      	ADC  R27,R31
001a97 34a1      	CPI  R26,LOW(0x41)
001a98 e0e0      	LDI  R30,HIGH(0x41)
001a99 07be      	CPC  R27,R30
001a9a f020      	BRLO _0x200003A
001a9b 85af      	LDD  R26,Y+15
001a9c e4e0      	LDI  R30,LOW(64)
001a9d 1bea      	SUB  R30,R26
001a9e 87ed      	STD  Y+13,R30
                 _0x200003A:
001a9f 85a9      	LDD  R26,Y+9
001aa0 30a6      	CPI  R26,LOW(0x6)
001aa1 f009      	BREQ PC+2
001aa2 c05b      	RJMP _0x200003B
001aa3 85ec      	LDD  R30,Y+12
001aa4 30e1      	CPI  R30,LOW(0x1)
001aa5 f409      	BRNE _0x200003F
001aa6 c19f      	RJMP _0x212000D
                 _0x200003F:
001aa7 30e3      	CPI  R30,LOW(0x3)
001aa8 f439      	BRNE _0x2000042
                +
001aa9 91e0 08bc+LDS R30 , _glcd_state + ( 27 )
001aab 91f0 08bd+LDS R31 , _glcd_state + ( 27 ) + 1
                 	__GETW1MN _glcd_state,27
001aad 9730      	SBIW R30,0
001aae f409      	BRNE _0x2000041
001aaf c196      	RJMP _0x212000D
                 _0x2000041:
                 _0x2000042:
001ab0 8508      	LDD  R16,Y+8
001ab1 85ed      	LDD  R30,Y+13
001ab2 95e6      	LSR  R30
001ab3 95e6      	LSR  R30
001ab4 95e6      	LSR  R30
001ab5 2f3e      	MOV  R19,R30
001ab6 2fe2      	MOV  R30,R18
001ab7 70e7      	ANDI R30,LOW(0x7)
001ab8 f419      	BRNE _0x2000044
001ab9 85ad      	LDD  R26,Y+13
001aba 172a      	CP   R18,R26
001abb f0e9      	BREQ _0x2000043
                 _0x2000044:
001abc 2fa0      	MOV  R26,R16
001abd 27bb      	CLR  R27
001abe 2fe3      	MOV  R30,R19
001abf e0f0      	LDI  R31,0
001ac0 940e 249c 	CALL __MULW12U
001ac2 85aa      	LDD  R26,Y+10
001ac3 85bb      	LDD  R27,Y+10+1
001ac4 940e 2389 	CALL SUBOPT_0x2A
001ac6 9526      	LSR  R18
001ac7 9526      	LSR  R18
001ac8 9526      	LSR  R18
001ac9 2f53      	MOV  R21,R19
                 _0x2000046:
001aca 935f      	PUSH R21
001acb 5f5f      	SUBI R21,-1
001acc 2fe2      	MOV  R30,R18
001acd 91af      	POP  R26
001ace 17ea      	CP   R30,R26
001acf f048      	BRLO _0x2000048
001ad0 2f10      	MOV  R17,R16
                 _0x2000049:
001ad1 2fe1      	MOV  R30,R17
001ad2 5011      	SUBI R17,1
001ad3 30e0      	CPI  R30,0
001ad4 f019      	BREQ _0x200004B
001ad5 940e 238e 	CALL SUBOPT_0x2B
001ad7 cff9      	RJMP _0x2000049
                 _0x200004B:
001ad8 cff1      	RJMP _0x2000046
                 _0x2000048:
                 _0x2000043:
001ad9 85ae      	LDD  R26,Y+14
001ada 170a      	CP   R16,R26
001adb f111      	BREQ _0x200004C
001adc 85ee      	LDD  R30,Y+14
001add 85aa      	LDD  R26,Y+10
001ade 85bb      	LDD  R27,Y+10+1
001adf e0f0      	LDI  R31,0
001ae0 940e 2389 	CALL SUBOPT_0x2A
001ae2 85ed      	LDD  R30,Y+13
001ae3 70e7      	ANDI R30,LOW(0x7)
001ae4 f009      	BREQ _0x200004D
001ae5 5f3f      	SUBI R19,-LOW(1)
                 _0x200004D:
001ae6 e020      	LDI  R18,LOW(0)
                 _0x200004E:
001ae7 932f      	PUSH R18
001ae8 5f2f      	SUBI R18,-1
001ae9 2fe3      	MOV  R30,R19
001aea 91af      	POP  R26
001aeb 17ae      	CP   R26,R30
001aec f488      	BRSH _0x2000050
001aed 851e      	LDD  R17,Y+14
                 _0x2000051:
001aee 931f      	PUSH R17
001aef 5f1f      	SUBI R17,-1
001af0 2fe0      	MOV  R30,R16
001af1 91af      	POP  R26
001af2 17ae      	CP   R26,R30
001af3 f418      	BRSH _0x2000053
001af4 940e 238e 	CALL SUBOPT_0x2B
001af6 cff7      	RJMP _0x2000051
                 _0x2000053:
001af7 85ee      	LDD  R30,Y+14
001af8 81ae      	LDD  R26,Y+6
001af9 81bf      	LDD  R27,Y+6+1
001afa e0f0      	LDI  R31,0
001afb 940e 2389 	CALL SUBOPT_0x2A
001afd cfe9      	RJMP _0x200004E
                 _0x2000050:
                 _0x200004C:
                 _0x200003B:
001afe 85ef      	LDD  R30,Y+15
001aff 70e7      	ANDI R30,LOW(0x7)
001b00 2f3e      	MOV  R19,R30
                 _0x2000054:
001b01 85ed      	LDD  R30,Y+13
001b02 30e0      	CPI  R30,0
001b03 f409      	BRNE PC+2
001b04 c141      	RJMP _0x2000056
001b05 85ea      	LDD  R30,Y+10
001b06 85fb      	LDD  R31,Y+10+1
001b07 83ee      	STD  Y+6,R30
001b08 83ff      	STD  Y+6+1,R31
001b09 e010      	LDI  R17,LOW(0)
001b0a 8908      	LDD  R16,Y+16
001b0b 3030      	CPI  R19,0
001b0c f009      	BREQ PC+2
001b0d c065      	RJMP _0x2000057
001b0e 85ad      	LDD  R26,Y+13
001b0f 30a8      	CPI  R26,LOW(0x8)
001b10 f408      	BRSH PC+2
001b11 c05c      	RJMP _0x2000058
001b12 85e9      	LDD  R30,Y+9
001b13 30e0      	CPI  R30,0
001b14 f011      	BREQ _0x200005D
001b15 30e3      	CPI  R30,LOW(0x3)
001b16 f409      	BRNE _0x200005E
                 _0x200005D:
001b17 c002      	RJMP _0x200005F
                 _0x200005E:
001b18 30e7      	CPI  R30,LOW(0x7)
001b19 f409      	BRNE _0x2000060
                 _0x200005F:
001b1a c002      	RJMP _0x2000061
                 _0x2000060:
001b1b 30e8      	CPI  R30,LOW(0x8)
001b1c f409      	BRNE _0x2000062
                 _0x2000061:
001b1d c002      	RJMP _0x2000063
                 _0x2000062:
001b1e 30e6      	CPI  R30,LOW(0x6)
001b1f f409      	BRNE _0x2000064
                 _0x2000063:
001b20 c002      	RJMP _0x2000065
                 _0x2000064:
001b21 30e9      	CPI  R30,LOW(0x9)
001b22 f409      	BRNE _0x2000066
                 _0x2000065:
001b23 c002      	RJMP _0x2000067
                 _0x2000066:
001b24 30ea      	CPI  R30,LOW(0xA)
001b25 f421      	BRNE _0x200005B
                 _0x2000067:
001b26 930a      	ST   -Y,R16
001b27 89e8      	LDD  R30,Y+16
001b28 940e 237a 	CALL SUBOPT_0x27
                 _0x200005B:
                 _0x2000069:
001b2a 931f      	PUSH R17
001b2b 5f1f      	SUBI R17,-1
001b2c 85ee      	LDD  R30,Y+14
001b2d 91af      	POP  R26
001b2e 17ae      	CP   R26,R30
001b2f f5b8      	BRSH _0x200006B
001b30 85a9      	LDD  R26,Y+9
001b31 30a6      	CPI  R26,LOW(0x6)
001b32 f461      	BRNE _0x200006C
001b33 de20      	RCALL _ks0108_rddata_G100
001b34 dddc      	RCALL _ks0108_setloc_G100
001b35 940e 239b 	CALL SUBOPT_0x2C
001b37 93fa      	ST   -Y,R31
001b38 93ea      	ST   -Y,R30
001b39 de1a      	RCALL _ks0108_rddata_G100
001b3a 2fae      	MOV  R26,R30
001b3b 940e 2232 	CALL _glcd_writemem
001b3d ddf4      	RCALL _ks0108_nextx_G100
001b3e c027      	RJMP _0x200006D
                 _0x200006C:
001b3f 85e9      	LDD  R30,Y+9
001b40 30e9      	CPI  R30,LOW(0x9)
001b41 f411      	BRNE _0x2000071
001b42 e050      	LDI  R21,LOW(0)
001b43 c00e      	RJMP _0x2000072
                 _0x2000071:
001b44 30ea      	CPI  R30,LOW(0xA)
001b45 f411      	BRNE _0x2000070
001b46 ef5f      	LDI  R21,LOW(255)
001b47 c00a      	RJMP _0x2000072
                 _0x2000070:
001b48 940e 239b 	CALL SUBOPT_0x2C
001b4a 940e 23a4 	CALL SUBOPT_0x2D
001b4c 2f5e      	MOV  R21,R30
001b4d 85e9      	LDD  R30,Y+9
001b4e 30e7      	CPI  R30,LOW(0x7)
001b4f f011      	BREQ _0x2000079
001b50 30e8      	CPI  R30,LOW(0x8)
001b51 f421      	BRNE _0x200007A
                 _0x2000079:
                 _0x2000072:
001b52 940e 23aa 	CALL SUBOPT_0x2E
001b54 2f5e      	MOV  R21,R30
001b55 c006      	RJMP _0x200007B
                 _0x200007A:
001b56 30e3      	CPI  R30,LOW(0x3)
001b57 f411      	BRNE _0x200007D
001b58 9550      	COM  R21
001b59 c002      	RJMP _0x200007E
                 _0x200007D:
001b5a 30e0      	CPI  R30,0
001b5b f421      	BRNE _0x2000080
                 _0x200007E:
                 _0x200007B:
001b5c 2fa5      	MOV  R26,R21
001b5d 940e 2385 	CALL SUBOPT_0x29
001b5f c006      	RJMP _0x2000077
                 _0x2000080:
001b60 940e 23ae 	CALL SUBOPT_0x2F
001b62 efef      	LDI  R30,LOW(255)
001b63 93ea      	ST   -Y,R30
001b64 85ad      	LDD  R26,Y+13
001b65 dece      	RCALL _ks0108_wrmasked_G100
                 _0x2000077:
                 _0x200006D:
001b66 cfc3      	RJMP _0x2000069
                 _0x200006B:
001b67 85ef      	LDD  R30,Y+15
001b68 5fe8      	SUBI R30,-LOW(8)
001b69 87ef      	STD  Y+15,R30
001b6a 85ed      	LDD  R30,Y+13
001b6b 50e8      	SUBI R30,LOW(8)
001b6c 87ed      	STD  Y+13,R30
001b6d c0cf      	RJMP _0x2000081
                 _0x2000058:
001b6e 855d      	LDD  R21,Y+13
001b6f e020      	LDI  R18,LOW(0)
001b70 e0e0      	LDI  R30,LOW(0)
001b71 87ed      	STD  Y+13,R30
001b72 c07a      	RJMP _0x2000082
                 _0x2000057:
001b73 2fe3      	MOV  R30,R19
001b74 85ad      	LDD  R26,Y+13
001b75 0fae      	ADD  R26,R30
001b76 30a9      	CPI  R26,LOW(0x9)
001b77 f420      	BRSH _0x2000083
001b78 852d      	LDD  R18,Y+13
001b79 e0e0      	LDI  R30,LOW(0)
001b7a 87ed      	STD  Y+13,R30
001b7b c003      	RJMP _0x2000084
                 _0x2000083:
001b7c e0e8      	LDI  R30,LOW(8)
001b7d 1be3      	SUB  R30,R19
001b7e 2f2e      	MOV  R18,R30
                 _0x2000084:
001b7f 933a      	ST   -Y,R19
001b80 2fa2      	MOV  R26,R18
001b81 940e 21e0 	CALL _glcd_getmask
001b83 2f4e      	MOV  R20,R30
001b84 85e9      	LDD  R30,Y+9
001b85 30e6      	CPI  R30,LOW(0x6)
001b86 f4f1      	BRNE _0x2000088
                 _0x2000089:
001b87 931f      	PUSH R17
001b88 5f1f      	SUBI R17,-1
001b89 85ee      	LDD  R30,Y+14
001b8a 91af      	POP  R26
001b8b 17ae      	CP   R26,R30
001b8c f4b8      	BRSH _0x200008B
001b8d 940e 23b4 	CALL SUBOPT_0x30
001b8f 2fae      	MOV  R26,R30
001b90 2fe3      	MOV  R30,R19
001b91 940e 247a 	CALL __LSRB12
001b93 940e 23bb 	CALL SUBOPT_0x31
001b95 2fe3      	MOV  R30,R19
001b96 2fa4      	MOV  R26,R20
001b97 940e 247a 	CALL __LSRB12
001b99 95e0      	COM  R30
001b9a 21e1      	AND  R30,R1
001b9b 2b5e      	OR   R21,R30
001b9c 940e 239b 	CALL SUBOPT_0x2C
001b9e 93fa      	ST   -Y,R31
001b9f 93ea      	ST   -Y,R30
001ba0 2fa5      	MOV  R26,R21
001ba1 940e 2232 	CALL _glcd_writemem
001ba3 cfe3      	RJMP _0x2000089
                 _0x200008B:
001ba4 c02c      	RJMP _0x2000087
                 _0x2000088:
001ba5 30e9      	CPI  R30,LOW(0x9)
001ba6 f411      	BRNE _0x200008C
001ba7 e050      	LDI  R21,LOW(0)
001ba8 c003      	RJMP _0x200008D
                 _0x200008C:
001ba9 30ea      	CPI  R30,LOW(0xA)
001baa f4a9      	BRNE _0x2000093
001bab ef5f      	LDI  R21,LOW(255)
                 _0x200008D:
001bac 940e 23aa 	CALL SUBOPT_0x2E
001bae 2fae      	MOV  R26,R30
001baf 2fe3      	MOV  R30,R19
001bb0 940e 2472 	CALL __LSLB12
001bb2 2f5e      	MOV  R21,R30
                 _0x2000090:
001bb3 931f      	PUSH R17
001bb4 5f1f      	SUBI R17,-1
001bb5 85ee      	LDD  R30,Y+14
001bb6 91af      	POP  R26
001bb7 17ae      	CP   R26,R30
001bb8 f430      	BRSH _0x2000092
001bb9 940e 23ae 	CALL SUBOPT_0x2F
001bbb 934a      	ST   -Y,R20
001bbc e0a0      	LDI  R26,LOW(0)
001bbd de76      	RCALL _ks0108_wrmasked_G100
001bbe cff4      	RJMP _0x2000090
                 _0x2000092:
001bbf c011      	RJMP _0x2000087
                 _0x2000093:
                 _0x2000094:
001bc0 931f      	PUSH R17
001bc1 5f1f      	SUBI R17,-1
001bc2 85ee      	LDD  R30,Y+14
001bc3 91af      	POP  R26
001bc4 17ae      	CP   R26,R30
001bc5 f458      	BRSH _0x2000096
001bc6 940e 23c6 	CALL SUBOPT_0x32
001bc8 2fae      	MOV  R26,R30
001bc9 2fe3      	MOV  R30,R19
001bca 940e 2472 	CALL __LSLB12
001bcc 93ea      	ST   -Y,R30
001bcd 934a      	ST   -Y,R20
001bce 85ad      	LDD  R26,Y+13
001bcf de64      	RCALL _ks0108_wrmasked_G100
001bd0 cfef      	RJMP _0x2000094
                 _0x2000096:
                 _0x2000087:
001bd1 85ed      	LDD  R30,Y+13
001bd2 30e0      	CPI  R30,0
001bd3 f409      	BRNE _0x2000097
001bd4 c071      	RJMP _0x2000056
                 _0x2000097:
001bd5 85ad      	LDD  R26,Y+13
001bd6 30a8      	CPI  R26,LOW(0x8)
001bd7 f428      	BRSH _0x2000098
001bd8 85ed      	LDD  R30,Y+13
001bd9 1be2      	SUB  R30,R18
001bda 2f5e      	MOV  R21,R30
001bdb e0e0      	LDI  R30,LOW(0)
001bdc c003      	RJMP _0x20000AF
                 _0x2000098:
001bdd 2f53      	MOV  R21,R19
001bde 85ed      	LDD  R30,Y+13
001bdf 50e8      	SUBI R30,LOW(8)
                 _0x20000AF:
001be0 87ed      	STD  Y+13,R30
001be1 e010      	LDI  R17,LOW(0)
001be2 85ef      	LDD  R30,Y+15
001be3 5fe8      	SUBI R30,-LOW(8)
001be4 87ef      	STD  Y+15,R30
001be5 e0e8      	LDI  R30,LOW(8)
001be6 1be3      	SUB  R30,R19
001be7 2f2e      	MOV  R18,R30
001be8 8908      	LDD  R16,Y+16
001be9 85ea      	LDD  R30,Y+10
001bea 85fb      	LDD  R31,Y+10+1
001beb 83ee      	STD  Y+6,R30
001bec 83ff      	STD  Y+6+1,R31
                 _0x2000082:
001bed 2fe5      	MOV  R30,R21
001bee e0f0      	LDI  R31,0
001bef 58e8      	SUBI R30,LOW(-__glcd_mask*2)
001bf0 4ef3      	SBCI R31,HIGH(-__glcd_mask*2)
001bf1 9144      	LPM  R20,Z
001bf2 85e9      	LDD  R30,Y+9
001bf3 30e6      	CPI  R30,LOW(0x6)
001bf4 f4e1      	BRNE _0x200009D
                 _0x200009E:
001bf5 931f      	PUSH R17
001bf6 5f1f      	SUBI R17,-1
001bf7 85ee      	LDD  R30,Y+14
001bf8 91af      	POP  R26
001bf9 17ae      	CP   R26,R30
001bfa f4a8      	BRSH _0x20000A0
001bfb 940e 23b4 	CALL SUBOPT_0x30
001bfd 2fae      	MOV  R26,R30
001bfe 2fe2      	MOV  R30,R18
001bff 940e 2472 	CALL __LSLB12
001c01 940e 23bb 	CALL SUBOPT_0x31
001c03 2fe2      	MOV  R30,R18
001c04 2fa4      	MOV  R26,R20
001c05 940e 22f2 	CALL SUBOPT_0x13
001c07 2b5e      	OR   R21,R30
001c08 940e 239b 	CALL SUBOPT_0x2C
001c0a 93fa      	ST   -Y,R31
001c0b 93ea      	ST   -Y,R30
001c0c 2fa5      	MOV  R26,R21
001c0d 940e 2232 	CALL _glcd_writemem
001c0f cfe5      	RJMP _0x200009E
                 _0x20000A0:
001c10 c02c      	RJMP _0x200009C
                 _0x200009D:
001c11 30e9      	CPI  R30,LOW(0x9)
001c12 f411      	BRNE _0x20000A1
001c13 e050      	LDI  R21,LOW(0)
001c14 c003      	RJMP _0x20000A2
                 _0x20000A1:
001c15 30ea      	CPI  R30,LOW(0xA)
001c16 f4a9      	BRNE _0x20000A8
001c17 ef5f      	LDI  R21,LOW(255)
                 _0x20000A2:
001c18 940e 23aa 	CALL SUBOPT_0x2E
001c1a 2fae      	MOV  R26,R30
001c1b 2fe2      	MOV  R30,R18
001c1c 940e 247a 	CALL __LSRB12
001c1e 2f5e      	MOV  R21,R30
                 _0x20000A5:
001c1f 931f      	PUSH R17
001c20 5f1f      	SUBI R17,-1
001c21 85ee      	LDD  R30,Y+14
001c22 91af      	POP  R26
001c23 17ae      	CP   R26,R30
001c24 f430      	BRSH _0x20000A7
001c25 940e 23ae 	CALL SUBOPT_0x2F
001c27 934a      	ST   -Y,R20
001c28 e0a0      	LDI  R26,LOW(0)
001c29 de0a      	RCALL _ks0108_wrmasked_G100
001c2a cff4      	RJMP _0x20000A5
                 _0x20000A7:
001c2b c011      	RJMP _0x200009C
                 _0x20000A8:
                 _0x20000A9:
001c2c 931f      	PUSH R17
001c2d 5f1f      	SUBI R17,-1
001c2e 85ee      	LDD  R30,Y+14
001c2f 91af      	POP  R26
001c30 17ae      	CP   R26,R30
001c31 f458      	BRSH _0x20000AB
001c32 940e 23c6 	CALL SUBOPT_0x32
001c34 2fae      	MOV  R26,R30
001c35 2fe2      	MOV  R30,R18
001c36 940e 247a 	CALL __LSRB12
001c38 93ea      	ST   -Y,R30
001c39 934a      	ST   -Y,R20
001c3a 85ad      	LDD  R26,Y+13
001c3b ddf8      	RCALL _ks0108_wrmasked_G100
001c3c cfef      	RJMP _0x20000A9
                 _0x20000AB:
                 _0x200009C:
                 _0x2000081:
001c3d 85e8      	LDD  R30,Y+8
001c3e 85aa      	LDD  R26,Y+10
001c3f 85bb      	LDD  R27,Y+10+1
001c40 e0f0      	LDI  R31,0
001c41 0fea      	ADD  R30,R26
001c42 1ffb      	ADC  R31,R27
001c43 87ea      	STD  Y+10,R30
001c44 87fb      	STD  Y+10+1,R31
001c45 cebb      	RJMP _0x2000054
                 _0x2000056:
                 _0x212000D:
001c46 940e 2510 	CALL __LOADLOCR6
001c48 9661      	ADIW R28,17
001c49 9508      	RET
                 ; .FEND
                 
                 	.CSEG
                 _glcd_clipx:
                 ; .FSTART _glcd_clipx
001c4a 940e 23d3 	CALL SUBOPT_0x33
001c4c f024      	BRLT _0x2020003
001c4d e0e0      	LDI  R30,LOW(0)
001c4e e0f0      	LDI  R31,HIGH(0)
001c4f 940c 21e9 	JMP  _0x2120003
                 _0x2020003:
001c51 81a8      	LD   R26,Y
001c52 81b9      	LDD  R27,Y+1
001c53 38a0      	CPI  R26,LOW(0x80)
001c54 e0e0      	LDI  R30,HIGH(0x80)
001c55 07be      	CPC  R27,R30
001c56 f024      	BRLT _0x2020004
001c57 e7ef      	LDI  R30,LOW(127)
001c58 e0f0      	LDI  R31,HIGH(127)
001c59 940c 21e9 	JMP  _0x2120003
                 _0x2020004:
001c5b 81e8      	LD   R30,Y
001c5c 81f9      	LDD  R31,Y+1
001c5d 940c 21e9 	JMP  _0x2120003
                 ; .FEND
                 _glcd_clipy:
                 ; .FSTART _glcd_clipy
001c5f 940e 23d3 	CALL SUBOPT_0x33
001c61 f024      	BRLT _0x2020005
001c62 e0e0      	LDI  R30,LOW(0)
001c63 e0f0      	LDI  R31,HIGH(0)
001c64 940c 21e9 	JMP  _0x2120003
                 _0x2020005:
001c66 81a8      	LD   R26,Y
001c67 81b9      	LDD  R27,Y+1
001c68 34a0      	CPI  R26,LOW(0x40)
001c69 e0e0      	LDI  R30,HIGH(0x40)
001c6a 07be      	CPC  R27,R30
001c6b f024      	BRLT _0x2020006
001c6c e3ef      	LDI  R30,LOW(63)
001c6d e0f0      	LDI  R31,HIGH(63)
001c6e 940c 21e9 	JMP  _0x2120003
                 _0x2020006:
001c70 81e8      	LD   R30,Y
001c71 81f9      	LDD  R31,Y+1
001c72 940c 21e9 	JMP  _0x2120003
                 ; .FEND
                 _glcd_setpixel:
                 ; .FSTART _glcd_setpixel
001c74 93aa      	ST   -Y,R26
001c75 81e9      	LDD  R30,Y+1
001c76 93ea      	ST   -Y,R30
001c77 81e9      	LDD  R30,Y+1
001c78 93ea      	ST   -Y,R30
001c79 91a0 08a1 	LDS  R26,_glcd_state
001c7b dd94      	RCALL _glcd_putpixel
001c7c 940c 21e9 	JMP  _0x2120003
                 ; .FEND
                 _glcd_getcharw_G101:
                 ; .FSTART _glcd_getcharw_G101
001c7e 93ba      	ST   -Y,R27
001c7f 93aa      	ST   -Y,R26
001c80 9723      	SBIW R28,3
001c81 940e 23da 	CALL SUBOPT_0x34
001c83 018f      	MOVW R16,R30
001c84 2e00      	MOV  R0,R16
001c85 2a01      	OR   R0,R17
001c86 f419      	BRNE _0x202000B
001c87 e0e0      	LDI  R30,LOW(0)
001c88 e0f0      	LDI  R31,HIGH(0)
001c89 c05f      	RJMP _0x212000C
                 _0x202000B:
001c8a 940e 23e1 	CALL SUBOPT_0x35
001c8c 820f      	STD  Y+7,R0
001c8d 940e 23e1 	CALL SUBOPT_0x35
001c8f 820e      	STD  Y+6,R0
001c90 940e 23e1 	CALL SUBOPT_0x35
001c92 8608      	STD  Y+8,R0
001c93 85eb      	LDD  R30,Y+11
001c94 85a8      	LDD  R26,Y+8
001c95 17ea      	CP   R30,R26
001c96 f418      	BRSH _0x202000C
001c97 e0e0      	LDI  R30,LOW(0)
001c98 e0f0      	LDI  R31,HIGH(0)
001c99 c04f      	RJMP _0x212000C
                 _0x202000C:
001c9a 01f8      	MOVW R30,R16
                +
001c9b 5f0f     +SUBI R16 , LOW ( - 1 )
001c9c 4f1f     +SBCI R17 , HIGH ( - 1 )
                 	__ADDWRN 16,17,1
001c9d 9154      	LPM  R21,Z
001c9e 85a8      	LDD  R26,Y+8
001c9f 27bb      	CLR  R27
001ca0 27ee      	CLR  R30
001ca1 0fa5      	ADD  R26,R21
001ca2 1fbe      	ADC  R27,R30
001ca3 85eb      	LDD  R30,Y+11
001ca4 e0f0      	LDI  R31,0
001ca5 17ea      	CP   R30,R26
001ca6 07fb      	CPC  R31,R27
001ca7 f018      	BRLO _0x202000D
001ca8 e0e0      	LDI  R30,LOW(0)
001ca9 e0f0      	LDI  R31,HIGH(0)
001caa c03e      	RJMP _0x212000C
                 _0x202000D:
001cab 81ee      	LDD  R30,Y+6
001cac 95e6      	LSR  R30
001cad 95e6      	LSR  R30
001cae 95e6      	LSR  R30
001caf 2f4e      	MOV  R20,R30
001cb0 81ee      	LDD  R30,Y+6
001cb1 70e7      	ANDI R30,LOW(0x7)
001cb2 f009      	BREQ _0x202000E
001cb3 5f4f      	SUBI R20,-LOW(1)
                 _0x202000E:
001cb4 81ef      	LDD  R30,Y+7
001cb5 30e0      	CPI  R30,0
001cb6 f0a1      	BREQ _0x202000F
001cb7 85a9      	LDD  R26,Y+9
001cb8 85ba      	LDD  R27,Y+9+1
001cb9 93ec      	ST   X,R30
001cba 85a8      	LDD  R26,Y+8
001cbb 85eb      	LDD  R30,Y+11
001cbc 1bea      	SUB  R30,R26
001cbd e0f0      	LDI  R31,0
001cbe 01df      	MOVW R26,R30
001cbf 81ef      	LDD  R30,Y+7
001cc0 e0f0      	LDI  R31,0
001cc1 940e 249c 	CALL __MULW12U
001cc3 01df      	MOVW R26,R30
001cc4 2fe4      	MOV  R30,R20
001cc5 e0f0      	LDI  R31,0
001cc6 940e 249c 	CALL __MULW12U
001cc8 0fe0      	ADD  R30,R16
001cc9 1ff1      	ADC  R31,R17
001cca c01e      	RJMP _0x212000C
                 _0x202000F:
001ccb 0198      	MOVW R18,R16
001ccc 2fe5      	MOV  R30,R21
001ccd e0f0      	LDI  R31,0
                +
001cce 0f0e     +ADD R16 , R30
001ccf 1f1f     +ADC R17 , R31
                 	__ADDWRR 16,17,30,31
                 _0x2020010:
001cd0 85a8      	LDD  R26,Y+8
001cd1 5faf      	SUBI R26,-LOW(1)
001cd2 87a8      	STD  Y+8,R26
001cd3 50a1      	SUBI R26,LOW(1)
001cd4 85eb      	LDD  R30,Y+11
001cd5 17ae      	CP   R26,R30
001cd6 f460      	BRSH _0x2020012
001cd7 01f9      	MOVW R30,R18
                +
001cd8 5f2f     +SUBI R18 , LOW ( - 1 )
001cd9 4f3f     +SBCI R19 , HIGH ( - 1 )
                 	__ADDWRN 18,19,1
001cda 91a4      	LPM  R26,Z
001cdb e0b0      	LDI  R27,0
001cdc 2fe4      	MOV  R30,R20
001cdd e0f0      	LDI  R31,0
001cde 940e 249c 	CALL __MULW12U
                +
001ce0 0f0e     +ADD R16 , R30
001ce1 1f1f     +ADC R17 , R31
                 	__ADDWRR 16,17,30,31
001ce2 cfed      	RJMP _0x2020010
                 _0x2020012:
001ce3 01f9      	MOVW R30,R18
001ce4 91e4      	LPM  R30,Z
001ce5 85a9      	LDD  R26,Y+9
001ce6 85ba      	LDD  R27,Y+9+1
001ce7 93ec      	ST   X,R30
001ce8 01f8      	MOVW R30,R16
                 _0x212000C:
001ce9 940e 2510 	CALL __LOADLOCR6
001ceb 962c      	ADIW R28,12
001cec 9508      	RET
                 ; .FEND
                 _glcd_new_line_G101:
                 ; .FSTART _glcd_new_line_G101
001ced e0e0      	LDI  R30,LOW(0)
                +
001cee 93e0 08a3+STS _glcd_state + ( 2 ) , R30
                 	__PUTB1MN _glcd_state,2
                +
001cf0 91a0 08a4+LDS R26 , _glcd_state + ( 3 )
                 	__GETB2MN _glcd_state,3
001cf2 27bb      	CLR  R27
001cf3 940e 23e6 	CALL SUBOPT_0x36
001cf5 e0f0      	LDI  R31,0
001cf6 0fae      	ADD  R26,R30
001cf7 1fbf      	ADC  R27,R31
                +
001cf8 91e0 08a8+LDS R30 , _glcd_state + ( 7 )
                 	__GETB1MN _glcd_state,7
001cfa e0f0      	LDI  R31,0
001cfb 0fae      	ADD  R26,R30
001cfc 1fbf      	ADC  R27,R31
001cfd df61      	RCALL _glcd_clipy
                +
001cfe 93e0 08a4+STS _glcd_state + ( 3 ) , R30
                 	__PUTB1MN _glcd_state,3
001d00 9508      	RET
                 ; .FEND
                 _glcd_putchar:
                 ; .FSTART _glcd_putchar
001d01 93aa      	ST   -Y,R26
001d02 9721      	SBIW R28,1
001d03 940e 23da 	CALL SUBOPT_0x34
001d05 9730      	SBIW R30,0
001d06 f409      	BRNE PC+2
001d07 c055      	RJMP _0x202001F
001d08 81af      	LDD  R26,Y+7
001d09 30aa      	CPI  R26,LOW(0xA)
001d0a f409      	BRNE _0x2020020
001d0b c04f      	RJMP _0x2020021
                 _0x2020020:
001d0c 81ef      	LDD  R30,Y+7
001d0d 93ea      	ST   -Y,R30
001d0e 01de      	MOVW R26,R28
001d0f 9617      	ADIW R26,7
001d10 df6d      	RCALL _glcd_getcharw_G101
001d11 01af      	MOVW R20,R30
001d12 9730      	SBIW R30,0
001d13 f409      	BRNE _0x2020022
001d14 c04a      	RJMP _0x212000B
                 _0x2020022:
                +
001d15 91e0 08a7+LDS R30 , _glcd_state + ( 6 )
                 	__GETB1MN _glcd_state,6
001d17 81ae      	LDD  R26,Y+6
001d18 0fea      	ADD  R30,R26
001d19 2f3e      	MOV  R19,R30
                +
001d1a 91a0 08a3+LDS R26 , _glcd_state + ( 2 )
                 	__GETB2MN _glcd_state,2
001d1c 27bb      	CLR  R27
001d1d e0f0      	LDI  R31,0
001d1e 0fea      	ADD  R30,R26
001d1f 1ffb      	ADC  R31,R27
001d20 018f      	MOVW R16,R30
                +
001d21 3801     +CPI R16 , LOW ( 129 )
001d22 e0e0     +LDI R30 , HIGH ( 129 )
001d23 071e     +CPC R17 , R30
                 	__CPWRN 16,17,129
001d24 f018      	BRLO _0x2020023
001d25 2f03      	MOV  R16,R19
001d26 2711      	CLR  R17
001d27 dfc5      	RCALL _glcd_new_line_G101
                 _0x2020023:
                +
001d28 91e0 08a3+LDS R30 , _glcd_state + ( 2 )
                 	__GETB1MN _glcd_state,2
001d2a 93ea      	ST   -Y,R30
                +
001d2b 91e0 08a4+LDS R30 , _glcd_state + ( 3 )
                 	__GETB1MN _glcd_state,3
001d2d 93ea      	ST   -Y,R30
001d2e 85e8      	LDD  R30,Y+8
001d2f 93ea      	ST   -Y,R30
001d30 940e 23e6 	CALL SUBOPT_0x36
001d32 93ea      	ST   -Y,R30
001d33 e0e1      	LDI  R30,LOW(1)
001d34 93ea      	ST   -Y,R30
001d35 935a      	ST   -Y,R21
001d36 934a      	ST   -Y,R20
001d37 e0a7      	LDI  R26,LOW(7)
001d38 dd36      	RCALL _glcd_block
                +
001d39 91e0 08a3+LDS R30 , _glcd_state + ( 2 )
                 	__GETB1MN _glcd_state,2
001d3b 81ae      	LDD  R26,Y+6
001d3c 0fea      	ADD  R30,R26
001d3d 93ea      	ST   -Y,R30
                +
001d3e 91e0 08a4+LDS R30 , _glcd_state + ( 3 )
                 	__GETB1MN _glcd_state,3
001d40 93ea      	ST   -Y,R30
                +
001d41 91e0 08a7+LDS R30 , _glcd_state + ( 6 )
                 	__GETB1MN _glcd_state,6
001d43 93ea      	ST   -Y,R30
001d44 940e 23e6 	CALL SUBOPT_0x36
001d46 940e 23ed 	CALL SUBOPT_0x37
                +
001d48 91e0 08a3+LDS R30 , _glcd_state + ( 2 )
                 	__GETB1MN _glcd_state,2
001d4a 93ea      	ST   -Y,R30
                +
001d4b 91a0 08a4+LDS R26 , _glcd_state + ( 3 )
                 	__GETB2MN _glcd_state,3
001d4d 940e 23e6 	CALL SUBOPT_0x36
001d4f 0fea      	ADD  R30,R26
001d50 93ea      	ST   -Y,R30
001d51 933a      	ST   -Y,R19
                +
001d52 91e0 08a8+LDS R30 , _glcd_state + ( 7 )
                 	__GETB1MN _glcd_state,7
001d54 940e 23ed 	CALL SUBOPT_0x37
001d56 e8e0      	LDI  R30,LOW(128)
001d57 e0f0      	LDI  R31,HIGH(128)
001d58 17e0      	CP   R30,R16
001d59 07f1      	CPC  R31,R17
001d5a f411      	BRNE _0x2020024
                 _0x2020021:
001d5b df91      	RCALL _glcd_new_line_G101
001d5c c002      	RJMP _0x212000B
                 _0x2020024:
                 _0x202001F:
                +
001d5d 9300 08a3+STS _glcd_state + ( 2 ) , R16
                 	__PUTBMRN _glcd_state,2,16
                 _0x212000B:
001d5f 940e 2510 	CALL __LOADLOCR6
001d61 9628      	ADIW R28,8
001d62 9508      	RET
                 ; .FEND
                 _glcd_outtextxy:
                 ; .FSTART _glcd_outtextxy
001d63 93ba      	ST   -Y,R27
001d64 93aa      	ST   -Y,R26
001d65 931a      	ST   -Y,R17
001d66 81ec      	LDD  R30,Y+4
001d67 93ea      	ST   -Y,R30
001d68 81ac      	LDD  R26,Y+4
001d69 d00e      	RCALL _glcd_moveto
                 _0x2020025:
001d6a 81a9      	LDD  R26,Y+1
001d6b 81ba      	LDD  R27,Y+1+1
001d6c 91ed      	LD   R30,X+
001d6d 83a9      	STD  Y+1,R26
001d6e 83ba      	STD  Y+1+1,R27
001d6f 2f1e      	MOV  R17,R30
001d70 30e0      	CPI  R30,0
001d71 f019      	BREQ _0x2020027
001d72 2fa1      	MOV  R26,R17
001d73 df8d      	RCALL _glcd_putchar
001d74 cff5      	RJMP _0x2020025
                 _0x2020027:
001d75 8118      	LDD  R17,Y+0
001d76 940c 20ed 	JMP  _0x2120005
                 ; .FEND
                 _glcd_moveto:
                 ; .FSTART _glcd_moveto
001d78 93aa      	ST   -Y,R26
001d79 81a9      	LDD  R26,Y+1
001d7a 27bb      	CLR  R27
001d7b dece      	RCALL _glcd_clipx
                +
001d7c 93e0 08a3+STS _glcd_state + ( 2 ) , R30
                 	__PUTB1MN _glcd_state,2
001d7e 81a8      	LD   R26,Y
001d7f 27bb      	CLR  R27
001d80 dede      	RCALL _glcd_clipy
                +
001d81 93e0 08a4+STS _glcd_state + ( 3 ) , R30
                 	__PUTB1MN _glcd_state,3
001d83 940c 21e9 	JMP  _0x2120003
                 ; .FEND
                 	#ifndef __SLEEP_DEFINED__
                 	#endif
                 
                 	.CSEG
                 _putchar:
                 ; .FSTART _putchar
001d85 93aa      	ST   -Y,R26
                 putchar0:
001d86 9b5d           sbis usr,udre
001d87 cffe           rjmp putchar0
001d88 81e8           ld   r30,y
001d89 b9ec           out  udr,r30
                 _0x212000A:
001d8a 9621      	ADIW R28,1
001d8b 9508      	RET
                 ; .FEND
                 _put_usart_G103:
                 ; .FSTART _put_usart_G103
001d8c 93ba      	ST   -Y,R27
001d8d 93aa      	ST   -Y,R26
001d8e 81aa      	LDD  R26,Y+2
001d8f dff5      	RCALL _putchar
001d90 81a8      	LD   R26,Y
001d91 81b9      	LDD  R27,Y+1
001d92 940e 23f7 	CALL SUBOPT_0x38
001d94 940c 2230 	JMP  _0x2120002
                 ; .FEND
                 _put_buff_G103:
                 ; .FSTART _put_buff_G103
001d96 93ba      	ST   -Y,R27
001d97 93aa      	ST   -Y,R26
001d98 931a      	ST   -Y,R17
001d99 930a      	ST   -Y,R16
001d9a 81aa      	LDD  R26,Y+2
001d9b 81bb      	LDD  R27,Y+2+1
001d9c 9612      	ADIW R26,2
001d9d 940e 24ca 	CALL __GETW1P
001d9f 9730      	SBIW R30,0
001da0 f129      	BREQ _0x2060010
001da1 81aa      	LDD  R26,Y+2
001da2 81bb      	LDD  R27,Y+2+1
001da3 9614      	ADIW R26,4
001da4 940e 24ca 	CALL __GETW1P
001da6 018f      	MOVW R16,R30
001da7 9730      	SBIW R30,0
001da8 f061      	BREQ _0x2060012
                +
001da9 3002     +CPI R16 , LOW ( 2 )
001daa e0e0     +LDI R30 , HIGH ( 2 )
001dab 071e     +CPC R17 , R30
                 	__CPWRN 16,17,2
001dac f080      	BRLO _0x2060013
001dad 01f8      	MOVW R30,R16
001dae 9731      	SBIW R30,1
001daf 018f      	MOVW R16,R30
                +
001db0 81aa     +LDD R26 , Y + 2
001db1 81bb     +LDD R27 , Y + 2 + 1
001db2 9614     +ADIW R26 , 4
001db3 93ed     +ST X + , R30
001db4 93fc     +ST X , R31
                 	__PUTW1SNS 2,4
                 _0x2060012:
001db5 81aa      	LDD  R26,Y+2
001db6 81bb      	LDD  R27,Y+2+1
001db7 9612      	ADIW R26,2
001db8 940e 23f7 	CALL SUBOPT_0x38
001dba 9731      	SBIW R30,1
001dbb 81ac      	LDD  R26,Y+4
001dbc 83a0      	STD  Z+0,R26
                 _0x2060013:
001dbd 81aa      	LDD  R26,Y+2
001dbe 81bb      	LDD  R27,Y+2+1
001dbf 940e 24ca 	CALL __GETW1P
001dc1 23ff      	TST  R31
001dc2 f012      	BRMI _0x2060014
001dc3 940e 23f7 	CALL SUBOPT_0x38
                 _0x2060014:
001dc5 c006      	RJMP _0x2060015
                 _0x2060010:
001dc6 81aa      	LDD  R26,Y+2
001dc7 81bb      	LDD  R27,Y+2+1
001dc8 efef      	LDI  R30,LOW(65535)
001dc9 efff      	LDI  R31,HIGH(65535)
001dca 93ed      	ST   X+,R30
001dcb 93fc      	ST   X,R31
                 _0x2060015:
001dcc 8119      	LDD  R17,Y+1
001dcd 8108      	LDD  R16,Y+0
001dce 940c 20ed 	JMP  _0x2120005
                 ; .FEND
                 __print_G103:
                 ; .FSTART __print_G103
001dd0 93ba      	ST   -Y,R27
001dd1 93aa      	ST   -Y,R26
001dd2 9726      	SBIW R28,6
001dd3 940e 2509 	CALL __SAVELOCR6
001dd5 e010      	LDI  R17,0
001dd6 85ac      	LDD  R26,Y+12
001dd7 85bd      	LDD  R27,Y+12+1
001dd8 e0e0      	LDI  R30,LOW(0)
001dd9 e0f0      	LDI  R31,HIGH(0)
001dda 93ed      	ST   X+,R30
001ddb 93fc      	ST   X,R31
                 _0x2060016:
001ddc 89ea      	LDD  R30,Y+18
001ddd 89fb      	LDD  R31,Y+18+1
001dde 9631      	ADIW R30,1
001ddf 8bea      	STD  Y+18,R30
001de0 8bfb      	STD  Y+18+1,R31
001de1 9731      	SBIW R30,1
001de2 91e4      	LPM  R30,Z
001de3 2f2e      	MOV  R18,R30
001de4 30e0      	CPI  R30,0
001de5 f409      	BRNE PC+2
001de6 c115      	RJMP _0x2060018
001de7 2fe1      	MOV  R30,R17
001de8 30e0      	CPI  R30,0
001de9 f439      	BRNE _0x206001C
001dea 3225      	CPI  R18,37
001deb f411      	BRNE _0x206001D
001dec e011      	LDI  R17,LOW(1)
001ded c002      	RJMP _0x206001E
                 _0x206001D:
001dee 940e 23fd 	CALL SUBOPT_0x39
                 _0x206001E:
001df0 c10a      	RJMP _0x206001B
                 _0x206001C:
001df1 30e1      	CPI  R30,LOW(0x1)
001df2 f4a9      	BRNE _0x206001F
001df3 3225      	CPI  R18,37
001df4 f419      	BRNE _0x2060020
001df5 940e 23fd 	CALL SUBOPT_0x39
001df7 c102      	RJMP _0x20600CC
                 _0x2060020:
001df8 e012      	LDI  R17,LOW(2)
001df9 e040      	LDI  R20,LOW(0)
001dfa e000      	LDI  R16,LOW(0)
001dfb 322d      	CPI  R18,45
001dfc f411      	BRNE _0x2060021
001dfd e001      	LDI  R16,LOW(1)
001dfe c0fc      	RJMP _0x206001B
                 _0x2060021:
001dff 322b      	CPI  R18,43
001e00 f411      	BRNE _0x2060022
001e01 e24b      	LDI  R20,LOW(43)
001e02 c0f8      	RJMP _0x206001B
                 _0x2060022:
001e03 3220      	CPI  R18,32
001e04 f411      	BRNE _0x2060023
001e05 e240      	LDI  R20,LOW(32)
001e06 c0f4      	RJMP _0x206001B
                 _0x2060023:
001e07 c002      	RJMP _0x2060024
                 _0x206001F:
001e08 30e2      	CPI  R30,LOW(0x2)
001e09 f439      	BRNE _0x2060025
                 _0x2060024:
001e0a e050      	LDI  R21,LOW(0)
001e0b e013      	LDI  R17,LOW(3)
001e0c 3320      	CPI  R18,48
001e0d f411      	BRNE _0x2060026
001e0e 6800      	ORI  R16,LOW(128)
001e0f c0eb      	RJMP _0x206001B
                 _0x2060026:
001e10 c003      	RJMP _0x2060027
                 _0x2060025:
001e11 30e3      	CPI  R30,LOW(0x3)
001e12 f009      	BREQ PC+2
001e13 c0e7      	RJMP _0x206001B
                 _0x2060027:
001e14 3320      	CPI  R18,48
001e15 f010      	BRLO _0x206002A
001e16 332a      	CPI  R18,58
001e17 f008      	BRLO _0x206002B
                 _0x206002A:
001e18 c007      	RJMP _0x2060029
                 _0x206002B:
001e19 e0aa      	LDI  R26,LOW(10)
001e1a 9f5a      	MUL  R21,R26
001e1b 2d50      	MOV  R21,R0
001e1c 2fe2      	MOV  R30,R18
001e1d 53e0      	SUBI R30,LOW(48)
001e1e 0f5e      	ADD  R21,R30
001e1f c0db      	RJMP _0x206001B
                 _0x2060029:
001e20 2fe2      	MOV  R30,R18
001e21 36e3      	CPI  R30,LOW(0x63)
001e22 f449      	BRNE _0x206002F
001e23 940e 2404 	CALL SUBOPT_0x3A
001e25 89e8      	LDD  R30,Y+16
001e26 89f9      	LDD  R31,Y+16+1
001e27 81a4      	LDD  R26,Z+4
001e28 93aa      	ST   -Y,R26
001e29 940e 240a 	CALL SUBOPT_0x3B
001e2b c0ce      	RJMP _0x2060030
                 _0x206002F:
001e2c 37e3      	CPI  R30,LOW(0x73)
001e2d f441      	BRNE _0x2060032
001e2e 940e 2404 	CALL SUBOPT_0x3A
001e30 940e 2410 	CALL SUBOPT_0x3C
001e32 940e 2109 	CALL _strlen
001e34 2f1e      	MOV  R17,R30
001e35 c00a      	RJMP _0x2060033
                 _0x2060032:
001e36 37e0      	CPI  R30,LOW(0x70)
001e37 f461      	BRNE _0x2060035
001e38 940e 2404 	CALL SUBOPT_0x3A
001e3a 940e 2410 	CALL SUBOPT_0x3C
001e3c 940e 2115 	CALL _strlenf
001e3e 2f1e      	MOV  R17,R30
001e3f 6008      	ORI  R16,LOW(8)
                 _0x2060033:
001e40 6002      	ORI  R16,LOW(2)
001e41 770f      	ANDI R16,LOW(127)
001e42 e030      	LDI  R19,LOW(0)
001e43 c034      	RJMP _0x2060036
                 _0x2060035:
001e44 36e4      	CPI  R30,LOW(0x64)
001e45 f011      	BREQ _0x2060039
001e46 36e9      	CPI  R30,LOW(0x69)
001e47 f411      	BRNE _0x206003A
                 _0x2060039:
001e48 6004      	ORI  R16,LOW(4)
001e49 c002      	RJMP _0x206003B
                 _0x206003A:
001e4a 37e5      	CPI  R30,LOW(0x75)
001e4b f431      	BRNE _0x206003C
                 _0x206003B:
001e4c e8e2      	LDI  R30,LOW(_tbl10_G103*2)
001e4d e1fc      	LDI  R31,HIGH(_tbl10_G103*2)
001e4e 83ee      	STD  Y+6,R30
001e4f 83ff      	STD  Y+6+1,R31
001e50 e015      	LDI  R17,LOW(5)
001e51 c00c      	RJMP _0x206003D
                 _0x206003C:
001e52 35e8      	CPI  R30,LOW(0x58)
001e53 f411      	BRNE _0x206003F
001e54 6008      	ORI  R16,LOW(8)
001e55 c003      	RJMP _0x2060040
                 _0x206003F:
001e56 37e8      	CPI  R30,LOW(0x78)
001e57 f009      	BREQ PC+2
001e58 c0a1      	RJMP _0x2060071
                 _0x2060040:
001e59 e8ec      	LDI  R30,LOW(_tbl16_G103*2)
001e5a e1fc      	LDI  R31,HIGH(_tbl16_G103*2)
001e5b 83ee      	STD  Y+6,R30
001e5c 83ff      	STD  Y+6+1,R31
001e5d e014      	LDI  R17,LOW(4)
                 _0x206003D:
001e5e ff02      	SBRS R16,2
001e5f c014      	RJMP _0x2060042
001e60 940e 2404 	CALL SUBOPT_0x3A
001e62 940e 241a 	CALL SUBOPT_0x3D
001e64 85ab      	LDD  R26,Y+11
001e65 23aa      	TST  R26
001e66 f43a      	BRPL _0x2060043
001e67 85ea      	LDD  R30,Y+10
001e68 85fb      	LDD  R31,Y+10+1
001e69 940e 246e 	CALL __ANEGW1
001e6b 87ea      	STD  Y+10,R30
001e6c 87fb      	STD  Y+10+1,R31
001e6d e24d      	LDI  R20,LOW(45)
                 _0x2060043:
001e6e 3040      	CPI  R20,0
001e6f f011      	BREQ _0x2060044
001e70 5f1f      	SUBI R17,-LOW(1)
001e71 c001      	RJMP _0x2060045
                 _0x2060044:
001e72 7f0b      	ANDI R16,LOW(251)
                 _0x2060045:
001e73 c004      	RJMP _0x2060046
                 _0x2060042:
001e74 940e 2404 	CALL SUBOPT_0x3A
001e76 940e 241a 	CALL SUBOPT_0x3D
                 _0x2060046:
                 _0x2060036:
001e78 fd00      	SBRC R16,0
001e79 c011      	RJMP _0x2060047
                 _0x2060048:
001e7a 1715      	CP   R17,R21
001e7b f478      	BRSH _0x206004A
001e7c ff07      	SBRS R16,7
001e7d c008      	RJMP _0x206004B
001e7e ff02      	SBRS R16,2
001e7f c004      	RJMP _0x206004C
001e80 7f0b      	ANDI R16,LOW(251)
001e81 2f24      	MOV  R18,R20
001e82 5011      	SUBI R17,LOW(1)
001e83 c001      	RJMP _0x206004D
                 _0x206004C:
001e84 e320      	LDI  R18,LOW(48)
                 _0x206004D:
001e85 c001      	RJMP _0x206004E
                 _0x206004B:
001e86 e220      	LDI  R18,LOW(32)
                 _0x206004E:
001e87 940e 23fd 	CALL SUBOPT_0x39
001e89 5051      	SUBI R21,LOW(1)
001e8a cfef      	RJMP _0x2060048
                 _0x206004A:
                 _0x2060047:
001e8b 2f31      	MOV  R19,R17
001e8c ff01      	SBRS R16,1
001e8d c017      	RJMP _0x206004F
                 _0x2060050:
001e8e 3030      	CPI  R19,0
001e8f f0a1      	BREQ _0x2060052
001e90 ff03      	SBRS R16,3
001e91 c006      	RJMP _0x2060053
001e92 81ee      	LDD  R30,Y+6
001e93 81ff      	LDD  R31,Y+6+1
001e94 9125      	LPM  R18,Z+
001e95 83ee      	STD  Y+6,R30
001e96 83ff      	STD  Y+6+1,R31
001e97 c005      	RJMP _0x2060054
                 _0x2060053:
001e98 81ae      	LDD  R26,Y+6
001e99 81bf      	LDD  R27,Y+6+1
001e9a 912d      	LD   R18,X+
001e9b 83ae      	STD  Y+6,R26
001e9c 83bf      	STD  Y+6+1,R27
                 _0x2060054:
001e9d 940e 23fd 	CALL SUBOPT_0x39
001e9f 3050      	CPI  R21,0
001ea0 f009      	BREQ _0x2060055
001ea1 5051      	SUBI R21,LOW(1)
                 _0x2060055:
001ea2 5031      	SUBI R19,LOW(1)
001ea3 cfea      	RJMP _0x2060050
                 _0x2060052:
001ea4 c04b      	RJMP _0x2060056
                 _0x206004F:
                 _0x2060058:
001ea5 e320      	LDI  R18,LOW(48)
001ea6 81ee      	LDD  R30,Y+6
001ea7 81ff      	LDD  R31,Y+6+1
001ea8 940e 24ce 	CALL __GETW1PF
001eaa 87e8      	STD  Y+8,R30
001eab 87f9      	STD  Y+8+1,R31
001eac 81ee      	LDD  R30,Y+6
001ead 81ff      	LDD  R31,Y+6+1
001eae 9632      	ADIW R30,2
001eaf 83ee      	STD  Y+6,R30
001eb0 83ff      	STD  Y+6+1,R31
                 _0x206005A:
001eb1 85e8      	LDD  R30,Y+8
001eb2 85f9      	LDD  R31,Y+8+1
001eb3 85aa      	LDD  R26,Y+10
001eb4 85bb      	LDD  R27,Y+10+1
001eb5 17ae      	CP   R26,R30
001eb6 07bf      	CPC  R27,R31
001eb7 f050      	BRLO _0x206005C
001eb8 5f2f      	SUBI R18,-LOW(1)
001eb9 85a8      	LDD  R26,Y+8
001eba 85b9      	LDD  R27,Y+8+1
001ebb 85ea      	LDD  R30,Y+10
001ebc 85fb      	LDD  R31,Y+10+1
001ebd 1bea      	SUB  R30,R26
001ebe 0bfb      	SBC  R31,R27
001ebf 87ea      	STD  Y+10,R30
001ec0 87fb      	STD  Y+10+1,R31
001ec1 cfef      	RJMP _0x206005A
                 _0x206005C:
001ec2 332a      	CPI  R18,58
001ec3 f028      	BRLO _0x206005D
001ec4 ff03      	SBRS R16,3
001ec5 c002      	RJMP _0x206005E
001ec6 5f29      	SUBI R18,-LOW(7)
001ec7 c001      	RJMP _0x206005F
                 _0x206005E:
001ec8 5d29      	SUBI R18,-LOW(39)
                 _0x206005F:
                 _0x206005D:
001ec9 fd04      	SBRC R16,4
001eca c01a      	RJMP _0x2060061
001ecb 3321      	CPI  R18,49
001ecc f420      	BRSH _0x2060063
001ecd 85a8      	LDD  R26,Y+8
001ece 85b9      	LDD  R27,Y+8+1
001ecf 9711      	SBIW R26,1
001ed0 f409      	BRNE _0x2060062
                 _0x2060063:
001ed1 c009      	RJMP _0x20600CD
                 _0x2060062:
001ed2 1753      	CP   R21,R19
001ed3 f010      	BRLO _0x2060067
001ed4 ff00      	SBRS R16,0
001ed5 c001      	RJMP _0x2060068
                 _0x2060067:
001ed6 c013      	RJMP _0x2060066
                 _0x2060068:
001ed7 e220      	LDI  R18,LOW(32)
001ed8 ff07      	SBRS R16,7
001ed9 c00b      	RJMP _0x2060069
001eda e320      	LDI  R18,LOW(48)
                 _0x20600CD:
001edb 6100      	ORI  R16,LOW(16)
001edc ff02      	SBRS R16,2
001edd c007      	RJMP _0x206006A
001ede 7f0b      	ANDI R16,LOW(251)
001edf 934a      	ST   -Y,R20
001ee0 940e 240a 	CALL SUBOPT_0x3B
001ee2 3050      	CPI  R21,0
001ee3 f009      	BREQ _0x206006B
001ee4 5051      	SUBI R21,LOW(1)
                 _0x206006B:
                 _0x206006A:
                 _0x2060069:
                 _0x2060061:
001ee5 940e 23fd 	CALL SUBOPT_0x39
001ee7 3050      	CPI  R21,0
001ee8 f009      	BREQ _0x206006C
001ee9 5051      	SUBI R21,LOW(1)
                 _0x206006C:
                 _0x2060066:
001eea 5031      	SUBI R19,LOW(1)
001eeb 85a8      	LDD  R26,Y+8
001eec 85b9      	LDD  R27,Y+8+1
001eed 9712      	SBIW R26,2
001eee f008      	BRLO _0x2060059
001eef cfb5      	RJMP _0x2060058
                 _0x2060059:
                 _0x2060056:
001ef0 ff00      	SBRS R16,0
001ef1 c008      	RJMP _0x206006D
                 _0x206006E:
001ef2 3050      	CPI  R21,0
001ef3 f031      	BREQ _0x2060070
001ef4 5051      	SUBI R21,LOW(1)
001ef5 e2e0      	LDI  R30,LOW(32)
001ef6 93ea      	ST   -Y,R30
001ef7 940e 240a 	CALL SUBOPT_0x3B
001ef9 cff8      	RJMP _0x206006E
                 _0x2060070:
                 _0x206006D:
                 _0x2060071:
                 _0x2060030:
                 _0x20600CC:
001efa e010      	LDI  R17,LOW(0)
                 _0x206001B:
001efb cee0      	RJMP _0x2060016
                 _0x2060018:
001efc 85ac      	LDD  R26,Y+12
001efd 85bd      	LDD  R27,Y+12+1
001efe 940e 24ca 	CALL __GETW1P
001f00 940e 2510 	CALL __LOADLOCR6
001f02 9664      	ADIW R28,20
001f03 9508      	RET
                 ; .FEND
                 _sprintf:
                 ; .FSTART _sprintf
001f04 92ff      	PUSH R15
001f05 2ef8      	MOV  R15,R24
001f06 9726      	SBIW R28,6
001f07 940e 250b 	CALL __SAVELOCR4
001f09 940e 2422 	CALL SUBOPT_0x3E
001f0b 9730      	SBIW R30,0
001f0c f419      	BRNE _0x2060072
001f0d efef      	LDI  R30,LOW(65535)
001f0e efff      	LDI  R31,HIGH(65535)
001f0f c01d      	RJMP _0x2120009
                 _0x2060072:
001f10 01de      	MOVW R26,R28
001f11 9616      	ADIW R26,6
001f12 940e 2465 	CALL __ADDW2R15
001f14 018d      	MOVW R16,R26
001f15 940e 2422 	CALL SUBOPT_0x3E
001f17 83ee      	STD  Y+6,R30
001f18 83ff      	STD  Y+6+1,R31
001f19 e0e0      	LDI  R30,LOW(0)
001f1a 87e8      	STD  Y+8,R30
001f1b 87e9      	STD  Y+8+1,R30
001f1c 01de      	MOVW R26,R28
001f1d 961a      	ADIW R26,10
001f1e 940e 2429 	CALL SUBOPT_0x3F
001f20 e9e6      	LDI  R30,LOW(_put_buff_G103)
001f21 e1fd      	LDI  R31,HIGH(_put_buff_G103)
001f22 93fa      	ST   -Y,R31
001f23 93ea      	ST   -Y,R30
001f24 01de      	MOVW R26,R28
001f25 961a      	ADIW R26,10
001f26 dea9      	RCALL __print_G103
001f27 019f      	MOVW R18,R30
001f28 81ae      	LDD  R26,Y+6
001f29 81bf      	LDD  R27,Y+6+1
001f2a e0e0      	LDI  R30,LOW(0)
001f2b 93ec      	ST   X,R30
001f2c 01f9      	MOVW R30,R18
                 _0x2120009:
001f2d 940e 2512 	CALL __LOADLOCR4
001f2f 962a      	ADIW R28,10
001f30 90ff      	POP  R15
001f31 9508      	RET
                 ; .FEND
                 _printf:
                 ; .FSTART _printf
001f32 92ff      	PUSH R15
001f33 2ef8      	MOV  R15,R24
001f34 9726      	SBIW R28,6
001f35 931a      	ST   -Y,R17
001f36 930a      	ST   -Y,R16
001f37 01de      	MOVW R26,R28
001f38 9614      	ADIW R26,4
001f39 940e 2465 	CALL __ADDW2R15
001f3b 018d      	MOVW R16,R26
001f3c e0e0      	LDI  R30,LOW(0)
001f3d 83ec      	STD  Y+4,R30
001f3e 83ed      	STD  Y+4+1,R30
001f3f 83ee      	STD  Y+6,R30
001f40 83ef      	STD  Y+6+1,R30
001f41 01de      	MOVW R26,R28
001f42 9618      	ADIW R26,8
001f43 940e 2429 	CALL SUBOPT_0x3F
001f45 e8ec      	LDI  R30,LOW(_put_usart_G103)
001f46 e1fd      	LDI  R31,HIGH(_put_usart_G103)
001f47 93fa      	ST   -Y,R31
001f48 93ea      	ST   -Y,R30
001f49 01de      	MOVW R26,R28
001f4a 9618      	ADIW R26,8
001f4b de84      	RCALL __print_G103
001f4c 8119      	LDD  R17,Y+1
001f4d 8108      	LDD  R16,Y+0
001f4e 9628      	ADIW R28,8
001f4f 90ff      	POP  R15
001f50 9508      	RET
                 ; .FEND
                 _get_buff_G103:
                 ; .FSTART _get_buff_G103
001f51 93ba      	ST   -Y,R27
001f52 93aa      	ST   -Y,R26
001f53 931a      	ST   -Y,R17
001f54 81a9      	LDD  R26,Y+1
001f55 81ba      	LDD  R27,Y+1+1
001f56 e0e0      	LDI  R30,LOW(0)
001f57 93ec      	ST   X,R30
001f58 81ab      	LDD  R26,Y+3
001f59 81bc      	LDD  R27,Y+3+1
001f5a 91ec      	LD   R30,X
001f5b 2f1e      	MOV  R17,R30
001f5c 30e0      	CPI  R30,0
001f5d f019      	BREQ _0x206007A
001f5e e0e0      	LDI  R30,LOW(0)
001f5f 93ec      	ST   X,R30
001f60 c016      	RJMP _0x206007B
                 _0x206007A:
001f61 81a9      	LDD  R26,Y+1
001f62 81ba      	LDD  R27,Y+1+1
001f63 9611      	ADIW R26,1
001f64 940e 24ca 	CALL __GETW1P
001f66 9730      	SBIW R30,0
001f67 f071      	BREQ _0x206007C
001f68 81e9      	LDD  R30,Y+1
001f69 81fa      	LDD  R31,Y+1+1
001f6a 81a1      	LDD  R26,Z+1
001f6b 81b2      	LDD  R27,Z+2
001f6c 91ec      	LD   R30,X
001f6d 2f1e      	MOV  R17,R30
001f6e 30e0      	CPI  R30,0
001f6f f029      	BREQ _0x206007D
001f70 81a9      	LDD  R26,Y+1
001f71 81ba      	LDD  R27,Y+1+1
001f72 9611      	ADIW R26,1
001f73 940e 23f7 	CALL SUBOPT_0x38
                 _0x206007D:
001f75 c001      	RJMP _0x206007E
                 _0x206007C:
001f76 e010      	LDI  R17,LOW(0)
                 _0x206007E:
                 _0x206007B:
001f77 2fe1      	MOV  R30,R17
001f78 8118      	LDD  R17,Y+0
001f79 c173      	RJMP _0x2120005
                 ; .FEND
                 __scanf_G103:
                 ; .FSTART __scanf_G103
001f7a 92ff      	PUSH R15
001f7b 93ba      	ST   -Y,R27
001f7c 93aa      	ST   -Y,R26
001f7d 9724      	SBIW R28,4
001f7e 940e 2509 	CALL __SAVELOCR6
001f80 e0e0      	LDI  R30,LOW(0)
001f81 e0f0      	LDI  R31,HIGH(0)
001f82 87e8      	STD  Y+8,R30
001f83 87f9      	STD  Y+8+1,R31
001f84 2f4e      	MOV  R20,R30
                 _0x206007F:
001f85 89e8      	LDD  R30,Y+16
001f86 89f9      	LDD  R31,Y+16+1
001f87 9631      	ADIW R30,1
001f88 8be8      	STD  Y+16,R30
001f89 8bf9      	STD  Y+16+1,R31
001f8a 9731      	SBIW R30,1
001f8b 91e4      	LPM  R30,Z
001f8c 2f3e      	MOV  R19,R30
001f8d 30e0      	CPI  R30,0
001f8e f409      	BRNE PC+2
001f8f c123      	RJMP _0x2060081
001f90 940e 2432 	CALL SUBOPT_0x40
001f92 f0c1      	BREQ _0x2060082
                 _0x2060083:
001f93 b7ed      	IN   R30,SPL
001f94 b7fe      	IN   R31,SPH
001f95 93fa      	ST   -Y,R31
001f96 93ea      	ST   -Y,R30
001f97 934f      	PUSH R20
001f98 940e 2437 	CALL SUBOPT_0x41
001f9a 914f      	POP  R20
001f9b 2f3e      	MOV  R19,R30
001f9c 30e0      	CPI  R30,0
001f9d f019      	BREQ _0x2060086
001f9e 940e 2432 	CALL SUBOPT_0x40
001fa0 f409      	BRNE _0x2060087
                 _0x2060086:
001fa1 c007      	RJMP _0x2060085
                 _0x2060087:
001fa2 940e 243d 	CALL SUBOPT_0x42
001fa4 f41c      	BRGE _0x2060088
001fa5 efef      	LDI  R30,LOW(65535)
001fa6 efff      	LDI  R31,HIGH(65535)
001fa7 c10d      	RJMP _0x2120007
                 _0x2060088:
001fa8 cfea      	RJMP _0x2060083
                 _0x2060085:
001fa9 2f43      	MOV  R20,R19
001faa c107      	RJMP _0x2060089
                 _0x2060082:
001fab 3235      	CPI  R19,37
001fac f009      	BREQ PC+2
001fad c0ec      	RJMP _0x206008A
001fae e050      	LDI  R21,LOW(0)
                 _0x206008B:
001faf 89e8      	LDD  R30,Y+16
001fb0 89f9      	LDD  R31,Y+16+1
001fb1 9135      	LPM  R19,Z+
001fb2 8be8      	STD  Y+16,R30
001fb3 8bf9      	STD  Y+16+1,R31
001fb4 3330      	CPI  R19,48
001fb5 f010      	BRLO _0x206008F
001fb6 333a      	CPI  R19,58
001fb7 f008      	BRLO _0x206008E
                 _0x206008F:
001fb8 c007      	RJMP _0x206008D
                 _0x206008E:
001fb9 e0aa      	LDI  R26,LOW(10)
001fba 9f5a      	MUL  R21,R26
001fbb 2d50      	MOV  R21,R0
001fbc 2fe3      	MOV  R30,R19
001fbd 53e0      	SUBI R30,LOW(48)
001fbe 0f5e      	ADD  R21,R30
001fbf cfef      	RJMP _0x206008B
                 _0x206008D:
001fc0 3030      	CPI  R19,0
001fc1 f409      	BRNE _0x2060091
001fc2 c0f0      	RJMP _0x2060081
                 _0x2060091:
                 _0x2060092:
001fc3 b7ed      	IN   R30,SPL
001fc4 b7fe      	IN   R31,SPH
001fc5 93fa      	ST   -Y,R31
001fc6 93ea      	ST   -Y,R30
001fc7 934f      	PUSH R20
001fc8 940e 2437 	CALL SUBOPT_0x41
001fca 914f      	POP  R20
001fcb 2f2e      	MOV  R18,R30
001fcc 2fae      	MOV  R26,R30
001fcd 940e 225a 	CALL _isspace
001fcf 30e0      	CPI  R30,0
001fd0 f039      	BREQ _0x2060094
001fd1 940e 243d 	CALL SUBOPT_0x42
001fd3 f41c      	BRGE _0x2060095
001fd4 efef      	LDI  R30,LOW(65535)
001fd5 efff      	LDI  R31,HIGH(65535)
001fd6 c0de      	RJMP _0x2120007
                 _0x2060095:
001fd7 cfeb      	RJMP _0x2060092
                 _0x2060094:
001fd8 3020      	CPI  R18,0
001fd9 f409      	BRNE _0x2060096
001fda c0cf      	RJMP _0x2060097
                 _0x2060096:
001fdb 2f42      	MOV  R20,R18
001fdc 3050      	CPI  R21,0
001fdd f409      	BRNE _0x2060098
001fde ef5f      	LDI  R21,LOW(255)
                 _0x2060098:
001fdf 2fe3      	MOV  R30,R19
001fe0 36e3      	CPI  R30,LOW(0x63)
001fe1 f499      	BRNE _0x206009C
001fe2 940e 2442 	CALL SUBOPT_0x43
001fe4 b7ed      	IN   R30,SPL
001fe5 b7fe      	IN   R31,SPH
001fe6 93fa      	ST   -Y,R31
001fe7 93ea      	ST   -Y,R30
001fe8 934f      	PUSH R20
001fe9 940e 2437 	CALL SUBOPT_0x41
001feb 914f      	POP  R20
001fec 01d8      	MOVW R26,R16
001fed 93ec      	ST   X,R30
001fee 940e 243d 	CALL SUBOPT_0x42
001ff0 f41c      	BRGE _0x206009D
001ff1 efef      	LDI  R30,LOW(65535)
001ff2 efff      	LDI  R31,HIGH(65535)
001ff3 c0c1      	RJMP _0x2120007
                 _0x206009D:
001ff4 c09f      	RJMP _0x206009B
                 _0x206009C:
001ff5 37e3      	CPI  R30,LOW(0x73)
001ff6 f541      	BRNE _0x20600A6
001ff7 940e 2442 	CALL SUBOPT_0x43
                 _0x206009F:
001ff9 2fe5      	MOV  R30,R21
001ffa 5051      	SUBI R21,1
001ffb 30e0      	CPI  R30,0
001ffc f0f1      	BREQ _0x20600A1
001ffd b7ed      	IN   R30,SPL
001ffe b7fe      	IN   R31,SPH
001fff 93fa      	ST   -Y,R31
002000 93ea      	ST   -Y,R30
002001 934f      	PUSH R20
002002 940e 2437 	CALL SUBOPT_0x41
002004 914f      	POP  R20
002005 2f3e      	MOV  R19,R30
002006 30e0      	CPI  R30,0
002007 f019      	BREQ _0x20600A3
002008 940e 2432 	CALL SUBOPT_0x40
00200a f039      	BREQ _0x20600A2
                 _0x20600A3:
00200b 940e 243d 	CALL SUBOPT_0x42
00200d f41c      	BRGE _0x20600A5
00200e efef      	LDI  R30,LOW(65535)
00200f efff      	LDI  R31,HIGH(65535)
002010 c0a4      	RJMP _0x2120007
                 _0x20600A5:
002011 c009      	RJMP _0x20600A1
                 _0x20600A2:
002012 931f      	PUSH R17
002013 930f      	PUSH R16
                +
002014 5f0f     +SUBI R16 , LOW ( - 1 )
002015 4f1f     +SBCI R17 , HIGH ( - 1 )
                 	__ADDWRN 16,17,1
002016 2fe3      	MOV  R30,R19
002017 91af      	POP  R26
002018 91bf      	POP  R27
002019 93ec      	ST   X,R30
00201a cfde      	RJMP _0x206009F
                 _0x20600A1:
00201b 01d8      	MOVW R26,R16
00201c e0e0      	LDI  R30,LOW(0)
00201d 93ec      	ST   X,R30
00201e c075      	RJMP _0x206009B
                 _0x20600A6:
00201f 9468      	SET
002020 f8f1      	BLD  R15,1
002021 94e8      	CLT
002022 f8f2      	BLD  R15,2
002023 2fe3      	MOV  R30,R19
002024 36e4      	CPI  R30,LOW(0x64)
002025 f011      	BREQ _0x20600AB
002026 36e9      	CPI  R30,LOW(0x69)
002027 f419      	BRNE _0x20600AC
                 _0x20600AB:
002028 94e8      	CLT
002029 f8f1      	BLD  R15,1
00202a c002      	RJMP _0x20600AD
                 _0x20600AC:
00202b 37e5      	CPI  R30,LOW(0x75)
00202c f411      	BRNE _0x20600AE
                 _0x20600AD:
00202d e02a      	LDI  R18,LOW(10)
00202e c008      	RJMP _0x20600A9
                 _0x20600AE:
00202f 37e8      	CPI  R30,LOW(0x78)
002030 f411      	BRNE _0x20600AF
002031 e120      	LDI  R18,LOW(16)
002032 c004      	RJMP _0x20600A9
                 _0x20600AF:
002033 32e5      	CPI  R30,LOW(0x25)
002034 f409      	BRNE _0x20600B2
002035 c064      	RJMP _0x20600B1
                 _0x20600B2:
002036 c07c      	RJMP _0x2120008
                 _0x20600A9:
002037 e0e0      	LDI  R30,LOW(0)
002038 83ee      	STD  Y+6,R30
002039 83ef      	STD  Y+6+1,R30
00203a 9468      	SET
00203b f8f0      	BLD  R15,0
                 _0x20600B3:
00203c 2fe5      	MOV  R30,R21
00203d 5051      	SUBI R21,1
00203e 30e0      	CPI  R30,0
00203f f409      	BRNE PC+2
002040 c044      	RJMP _0x20600B5
002041 b7ed      	IN   R30,SPL
002042 b7fe      	IN   R31,SPH
002043 93fa      	ST   -Y,R31
002044 93ea      	ST   -Y,R30
002045 934f      	PUSH R20
002046 940e 2437 	CALL SUBOPT_0x41
002048 914f      	POP  R20
002049 2f3e      	MOV  R19,R30
00204a 32e1      	CPI  R30,LOW(0x21)
00204b f438      	BRSH _0x20600B6
00204c 940e 243d 	CALL SUBOPT_0x42
00204e f41c      	BRGE _0x20600B7
00204f efef      	LDI  R30,LOW(65535)
002050 efff      	LDI  R31,HIGH(65535)
002051 c063      	RJMP _0x2120007
                 _0x20600B7:
002052 c017      	RJMP _0x20600B8
                 _0x20600B6:
002053 fcf1      	SBRC R15,1
002054 c008      	RJMP _0x20600B9
002055 9468      	SET
002056 f8f1      	BLD  R15,1
002057 323d      	CPI  R19,45
002058 f411      	BRNE _0x20600BA
002059 f8f2      	BLD  R15,2
00205a cfe1      	RJMP _0x20600B3
                 _0x20600BA:
00205b 323b      	CPI  R19,43
00205c f2f9      	BREQ _0x20600B3
                 _0x20600B9:
00205d 3120      	CPI  R18,16
00205e f431      	BRNE _0x20600BC
00205f 2fa3      	MOV  R26,R19
002060 940e 2265 	CALL _isxdigit
002062 30e0      	CPI  R30,0
002063 f031      	BREQ _0x20600B8
002064 c009      	RJMP _0x20600BE
                 _0x20600BC:
002065 2fa3      	MOV  R26,R19
002066 940e 2251 	CALL _isdigit
002068 30e0      	CPI  R30,0
002069 f421      	BRNE _0x20600BF
                 _0x20600B8:
00206a fcf0      	SBRC R15,0
00206b c047      	RJMP _0x20600C1
00206c 2f43      	MOV  R20,R19
00206d c017      	RJMP _0x20600B5
                 _0x20600BF:
                 _0x20600BE:
00206e 3631      	CPI  R19,97
00206f f010      	BRLO _0x20600C2
002070 5537      	SUBI R19,LOW(87)
002071 c005      	RJMP _0x20600C3
                 _0x20600C2:
002072 3431      	CPI  R19,65
002073 f010      	BRLO _0x20600C4
002074 5337      	SUBI R19,LOW(55)
002075 c001      	RJMP _0x20600C5
                 _0x20600C4:
002076 5330      	SUBI R19,LOW(48)
                 _0x20600C5:
                 _0x20600C3:
002077 2fe2      	MOV  R30,R18
002078 81ae      	LDD  R26,Y+6
002079 81bf      	LDD  R27,Y+6+1
00207a e0f0      	LDI  R31,0
00207b 940e 249c 	CALL __MULW12U
00207d 01df      	MOVW R26,R30
00207e 2fe3      	MOV  R30,R19
00207f e0f0      	LDI  R31,0
002080 940e 2389 	CALL SUBOPT_0x2A
002082 94e8      	CLT
002083 f8f0      	BLD  R15,0
002084 cfb7      	RJMP _0x20600B3
                 _0x20600B5:
002085 940e 2442 	CALL SUBOPT_0x43
002087 fef2      	SBRS R15,2
002088 c006      	RJMP _0x20600C6
002089 81ee      	LDD  R30,Y+6
00208a 81ff      	LDD  R31,Y+6+1
00208b 940e 246e 	CALL __ANEGW1
00208d 83ee      	STD  Y+6,R30
00208e 83ff      	STD  Y+6+1,R31
                 _0x20600C6:
00208f 81ee      	LDD  R30,Y+6
002090 81ff      	LDD  R31,Y+6+1
002091 01d8      	MOVW R26,R16
002092 93ed      	ST   X+,R30
002093 93fc      	ST   X,R31
                 _0x206009B:
002094 85e8      	LDD  R30,Y+8
002095 85f9      	LDD  R31,Y+8+1
002096 9631      	ADIW R30,1
002097 87e8      	STD  Y+8,R30
002098 87f9      	STD  Y+8+1,R31
002099 c018      	RJMP _0x20600C7
                 _0x206008A:
                 _0x20600B1:
00209a b7ed      	IN   R30,SPL
00209b b7fe      	IN   R31,SPH
00209c 93fa      	ST   -Y,R31
00209d 93ea      	ST   -Y,R30
00209e 934f      	PUSH R20
00209f 940e 2437 	CALL SUBOPT_0x41
0020a1 914f      	POP  R20
0020a2 17e3      	CP   R30,R19
0020a3 f071      	BREQ _0x20600C8
0020a4 940e 243d 	CALL SUBOPT_0x42
0020a6 f41c      	BRGE _0x20600C9
0020a7 efef      	LDI  R30,LOW(65535)
0020a8 efff      	LDI  R31,HIGH(65535)
0020a9 c00b      	RJMP _0x2120007
                 _0x20600C9:
                 _0x2060097:
0020aa 85e8      	LDD  R30,Y+8
0020ab 85f9      	LDD  R31,Y+8+1
0020ac 9730      	SBIW R30,0
0020ad f419      	BRNE _0x20600CA
0020ae efef      	LDI  R30,LOW(65535)
0020af efff      	LDI  R31,HIGH(65535)
0020b0 c004      	RJMP _0x2120007
                 _0x20600CA:
0020b1 c001      	RJMP _0x2060081
                 _0x20600C8:
                 _0x20600C7:
                 _0x2060089:
0020b2 ced2      	RJMP _0x206007F
                 _0x2060081:
                 _0x20600C1:
                 _0x2120008:
0020b3 85e8      	LDD  R30,Y+8
0020b4 85f9      	LDD  R31,Y+8+1
                 _0x2120007:
0020b5 940e 2510 	CALL __LOADLOCR6
0020b7 9662      	ADIW R28,18
0020b8 90ff      	POP  R15
0020b9 9508      	RET
                 ; .FEND
                 _sscanf:
                 ; .FSTART _sscanf
0020ba 92ff      	PUSH R15
0020bb 2ef8      	MOV  R15,R24
0020bc 9723      	SBIW R28,3
0020bd 931a      	ST   -Y,R17
0020be 930a      	ST   -Y,R16
0020bf 940e 244d 	CALL SUBOPT_0x44
0020c1 9730      	SBIW R30,0
0020c2 f419      	BRNE _0x20600CB
0020c3 efef      	LDI  R30,LOW(65535)
0020c4 efff      	LDI  R31,HIGH(65535)
0020c5 c014      	RJMP _0x2120006
                 _0x20600CB:
0020c6 01de      	MOVW R26,R28
0020c7 9611      	ADIW R26,1
0020c8 940e 2465 	CALL __ADDW2R15
0020ca 018d      	MOVW R16,R26
0020cb 940e 244d 	CALL SUBOPT_0x44
0020cd 83eb      	STD  Y+3,R30
0020ce 83fc      	STD  Y+3+1,R31
0020cf 01de      	MOVW R26,R28
0020d0 9615      	ADIW R26,5
0020d1 940e 2429 	CALL SUBOPT_0x3F
0020d3 e5e1      	LDI  R30,LOW(_get_buff_G103)
0020d4 e1ff      	LDI  R31,HIGH(_get_buff_G103)
0020d5 93fa      	ST   -Y,R31
0020d6 93ea      	ST   -Y,R30
0020d7 01de      	MOVW R26,R28
0020d8 9618      	ADIW R26,8
0020d9 dea0      	RCALL __scanf_G103
                 _0x2120006:
0020da 8119      	LDD  R17,Y+1
0020db 8108      	LDD  R16,Y+0
0020dc 9625      	ADIW R28,5
0020dd 90ff      	POP  R15
0020de 9508      	RET
                 ; .FEND
                 
                 	.CSEG
                 _memset:
                 ; .FSTART _memset
0020df 93ba      	ST   -Y,R27
0020e0 93aa      	ST   -Y,R26
0020e1 81b9          ldd  r27,y+1
0020e2 81a8          ld   r26,y
0020e3 9610          adiw r26,0
0020e4 f031          breq memset1
0020e5 81fc          ldd  r31,y+4
0020e6 81eb          ldd  r30,y+3
0020e7 816a          ldd  r22,y+2
                 memset0:
0020e8 9361          st   z+,r22
0020e9 9711          sbiw r26,1
0020ea f7e9          brne memset0
                 memset1:
0020eb 81eb          ldd  r30,y+3
0020ec 81fc          ldd  r31,y+4
                 _0x2120005:
0020ed 9625      	ADIW R28,5
0020ee 9508      	RET
                 ; .FEND
                 _strchr:
                 ; .FSTART _strchr
0020ef 93aa      	ST   -Y,R26
0020f0 91a9          ld   r26,y+
0020f1 91e9          ld   r30,y+
0020f2 91f9          ld   r31,y+
                 strchr0:
0020f3 81b0          ld   r27,z
0020f4 17ab          cp   r26,r27
0020f5 f029          breq strchr1
0020f6 9631          adiw r30,1
0020f7 23bb          tst  r27
0020f8 f7d1          brne strchr0
0020f9 27ee          clr  r30
0020fa 27ff          clr  r31
                 strchr1:
0020fb 9508          ret
                 ; .FEND
                 _strcpy:
                 ; .FSTART _strcpy
0020fc 93ba      	ST   -Y,R27
0020fd 93aa      	ST   -Y,R26
0020fe 91e9          ld   r30,y+
0020ff 91f9          ld   r31,y+
002100 91a9          ld   r26,y+
002101 91b9          ld   r27,y+
002102 01cd          movw r24,r26
                 strcpy0:
002103 9161          ld   r22,z+
002104 936d          st   x+,r22
002105 2366          tst  r22
002106 f7e1          brne strcpy0
002107 01fc          movw r30,r24
002108 9508          ret
                 ; .FEND
                 _strlen:
                 ; .FSTART _strlen
002109 93ba      	ST   -Y,R27
00210a 93aa      	ST   -Y,R26
00210b 91a9          ld   r26,y+
00210c 91b9          ld   r27,y+
00210d 27ee          clr  r30
00210e 27ff          clr  r31
                 strlen0:
00210f 916d          ld   r22,x+
002110 2366          tst  r22
002111 f011          breq strlen1
002112 9631          adiw r30,1
002113 cffb          rjmp strlen0
                 strlen1:
002114 9508          ret
                 ; .FEND
                 _strlenf:
                 ; .FSTART _strlenf
002115 93ba      	ST   -Y,R27
002116 93aa      	ST   -Y,R26
002117 27aa          clr  r26
002118 27bb          clr  r27
002119 91e9          ld   r30,y+
00211a 91f9          ld   r31,y+
                 strlenf0:
00211b 9005      	lpm  r0,z+
00211c 2000          tst  r0
00211d f011          breq strlenf1
00211e 9611          adiw r26,1
00211f cffb          rjmp strlenf0
                 strlenf1:
002120 01fd          movw r30,r26
002121 9508          ret
                 ; .FEND
                 _strpbrkf:
                 ; .FSTART _strpbrkf
002122 93ba      	ST   -Y,R27
002123 93aa      	ST   -Y,R26
002124 81bb          ldd  r27,y+3
002125 81aa          ldd  r26,y+2
                 strpbrkf0:
002126 916c          ld   r22,x
002127 2366          tst  r22
002128 f061          breq strpbrkf2
002129 81f9          ldd  r31,y+1
00212a 81e8          ld   r30,y
                 strpbrkf1:
00212b 95c8      	lpm
00212c 2000          tst  r0
00212d f029          breq strpbrkf3
00212e 9631          adiw r30,1
00212f 1560          cp   r22,r0
002130 f7d1          brne strpbrkf1
002131 01fd          movw r30,r26
002132 c004          rjmp strpbrkf4
                 strpbrkf3:
002133 9611          adiw r26,1
002134 cff1          rjmp strpbrkf0
                 strpbrkf2:
002135 27ee          clr  r30
002136 27ff          clr  r31
                 strpbrkf4:
002137 940c 224f 	JMP  _0x2120001
                 ; .FEND
                 _strstr:
                 ; .FSTART _strstr
002139 93ba      	ST   -Y,R27
00213a 93aa      	ST   -Y,R26
00213b 81aa          ldd  r26,y+2
00213c 81bb          ldd  r27,y+3
00213d 01cd          movw r24,r26
                 strstr0:
00213e 81e8          ld   r30,y
00213f 81f9          ldd  r31,y+1
                 strstr1:
002140 9171          ld   r23,z+
002141 2377          tst  r23
002142 f411          brne strstr2
002143 01fc          movw r30,r24
002144 c009          rjmp strstr3
                 strstr2:
002145 916d          ld   r22,x+
002146 1767          cp   r22,r23
002147 f3c1          breq strstr1
002148 9601          adiw r24,1
002149 01dc          movw r26,r24
00214a 2366          tst  r22
00214b f791          brne strstr0
00214c 27ee          clr  r30
00214d 27ff          clr  r31
                 strstr3:
00214e 940c 224f 	JMP  _0x2120001
                 ; .FEND
                 _strspnf:
                 ; .FSTART _strspnf
002150 93ba      	ST   -Y,R27
002151 93aa      	ST   -Y,R26
002152 81bb          ldd  r27,y+3
002153 81aa          ldd  r26,y+2
002154 2788          clr  r24
002155 2799          clr  r25
                 strspnf0:
002156 916d          ld   r22,x+
002157 2366          tst  r22
002158 f049          breq strspnf2
002159 81f9          ldd  r31,y+1
00215a 81e8          ld   r30,y
                 strspnf1:
00215b 9005      	lpm  r0,z+
00215c 2000          tst  r0
00215d f021          breq strspnf2
00215e 1560          cp   r22,r0
00215f f7d9          brne strspnf1
002160 9601          adiw r24,1
002161 cff4          rjmp strspnf0
                 strspnf2:
002162 01fc          movw r30,r24
002163 940c 224f 	JMP  _0x2120001
                 ; .FEND
                 _strtok:
                 ; .FSTART _strtok
002165 93ba      	ST   -Y,R27
002166 93aa      	ST   -Y,R26
002167 931a      	ST   -Y,R17
002168 930a      	ST   -Y,R16
002169 81ec      	LDD  R30,Y+4
00216a 81fd      	LDD  R31,Y+4+1
00216b 9730      	SBIW R30,0
00216c f479      	BRNE _0x2080003
00216d 91e0 0c29 	LDS  R30,_p_S1040026000
00216f 91f0 0c2a 	LDS  R31,_p_S1040026000+1
002171 9730      	SBIW R30,0
002172 f419      	BRNE _0x2080004
002173 e0e0      	LDI  R30,LOW(0)
002174 e0f0      	LDI  R31,HIGH(0)
002175 c02f      	RJMP _0x2120004
                 _0x2080004:
002176 91e0 0c29 	LDS  R30,_p_S1040026000
002178 91f0 0c2a 	LDS  R31,_p_S1040026000+1
00217a 83ec      	STD  Y+4,R30
00217b 83fd      	STD  Y+4+1,R31
                 _0x2080003:
00217c 940e 2454 	CALL SUBOPT_0x45
00217e 940e 2150 	CALL _strspnf
002180 81ac      	LDD  R26,Y+4
002181 81bd      	LDD  R27,Y+4+1
002182 0fea      	ADD  R30,R26
002183 1ffb      	ADC  R31,R27
002184 83ec      	STD  Y+4,R30
002185 83fd      	STD  Y+4+1,R31
002186 81ac      	LDD  R26,Y+4
002187 81bd      	LDD  R27,Y+4+1
002188 91ec      	LD   R30,X
002189 30e0      	CPI  R30,0
00218a f441      	BRNE _0x2080005
00218b e0e0      	LDI  R30,LOW(0)
00218c 93e0 0c29 	STS  _p_S1040026000,R30
00218e 93e0 0c2a 	STS  _p_S1040026000+1,R30
002190 e0e0      	LDI  R30,LOW(0)
002191 e0f0      	LDI  R31,HIGH(0)
002192 c012      	RJMP _0x2120004
                 _0x2080005:
002193 940e 2454 	CALL SUBOPT_0x45
002195 940e 2122 	CALL _strpbrkf
002197 018f      	MOVW R16,R30
002198 9730      	SBIW R30,0
002199 f029      	BREQ _0x2080006
00219a 01d8      	MOVW R26,R16
                +
00219b 5f0f     +SUBI R16 , LOW ( - 1 )
00219c 4f1f     +SBCI R17 , HIGH ( - 1 )
                 	__ADDWRN 16,17,1
00219d e0e0      	LDI  R30,LOW(0)
00219e 93ec      	ST   X,R30
                 _0x2080006:
                +
00219f 9300 0c29+STS _p_S1040026000 + ( 0 ) , R16
0021a1 9310 0c2a+STS _p_S1040026000 + ( 0 ) + 1 , R17
                 	__PUTWMRN _p_S1040026000,0,16,17
0021a3 81ec      	LDD  R30,Y+4
0021a4 81fd      	LDD  R31,Y+4+1
                 _0x2120004:
0021a5 8119      	LDD  R17,Y+1
0021a6 8108      	LDD  R16,Y+0
0021a7 9626      	ADIW R28,6
0021a8 9508      	RET
                 ; .FEND
                 
                 	.CSEG
                 _atoi:
                 ; .FSTART _atoi
0021a9 93ba      	ST   -Y,R27
0021aa 93aa      	ST   -Y,R26
0021ab 81b9         	ldd  r27,y+1
0021ac 81a8         	ld   r26,y
                 __atoi0:
0021ad 91ec         	ld   r30,x
0021ae 2f8a              mov  r24,r26
0021af 2fae      	MOV  R26,R30
0021b0 940e 225a 	CALL _isspace
0021b2 2fa8              mov  r26,r24
0021b3 23ee         	tst  r30
0021b4 f011         	breq __atoi1
0021b5 9611         	adiw r26,1
0021b6 cff6         	rjmp __atoi0
                 __atoi1:
0021b7 94e8         	clt
0021b8 91ec         	ld   r30,x
0021b9 32ed         	cpi  r30,'-'
0021ba f411         	brne __atoi2
0021bb 9468         	set
0021bc c002         	rjmp __atoi3
                 __atoi2:
0021bd 32eb         	cpi  r30,'+'
0021be f409         	brne __atoi4
                 __atoi3:
0021bf 9611         	adiw r26,1
                 __atoi4:
0021c0 2766         	clr  r22
0021c1 2777         	clr  r23
                 __atoi5:
0021c2 91ec         	ld   r30,x
0021c3 2f8a              mov  r24,r26
0021c4 2fae      	MOV  R26,R30
0021c5 940e 2251 	CALL _isdigit
0021c7 2fa8              mov  r26,r24
0021c8 23ee         	tst  r30
0021c9 f079         	breq __atoi6
0021ca 01fb         	movw r30,r22
0021cb 0f66         	lsl  r22
0021cc 1f77         	rol  r23
0021cd 0f66         	lsl  r22
0021ce 1f77         	rol  r23
0021cf 0f6e         	add  r22,r30
0021d0 1f7f         	adc  r23,r31
0021d1 0f66         	lsl  r22
0021d2 1f77         	rol  r23
0021d3 91ed         	ld   r30,x+
0021d4 27ff         	clr  r31
0021d5 53e0         	subi r30,'0'
0021d6 0f6e         	add  r22,r30
0021d7 1f7f         	adc  r23,r31
0021d8 cfe9         	rjmp __atoi5
                 __atoi6:
0021d9 01fb         	movw r30,r22
0021da f41e         	brtc __atoi7
0021db 95e0         	com  r30
0021dc 95f0         	com  r31
0021dd 9631         	adiw r30,1
                 __atoi7:
0021de 9622         	adiw r28,2
0021df 9508         	ret
                 ; .FEND
                 
                 	.DSEG
                 
                 	.CSEG
                 
                 	.CSEG
                 _glcd_getmask:
                 ; .FSTART _glcd_getmask
0021e0 93aa      	ST   -Y,R26
0021e1 81e8      	LD   R30,Y
0021e2 e0f0      	LDI  R31,0
0021e3 58e8      	SUBI R30,LOW(-__glcd_mask*2)
0021e4 4ef3      	SBCI R31,HIGH(-__glcd_mask*2)
0021e5 91a4      	LPM  R26,Z
0021e6 81e9      	LDD  R30,Y+1
0021e7 940e 2472 	CALL __LSLB12
                 _0x2120003:
0021e9 9622      	ADIW R28,2
0021ea 9508      	RET
                 ; .FEND
                 _glcd_mappixcolor1bit:
                 ; .FSTART _glcd_mappixcolor1bit
0021eb 93aa      	ST   -Y,R26
0021ec 931a      	ST   -Y,R17
0021ed 81e9      	LDD  R30,Y+1
0021ee 30e7      	CPI  R30,LOW(0x7)
0021ef f011      	BREQ _0x20C0007
0021f0 30ea      	CPI  R30,LOW(0xA)
0021f1 f419      	BRNE _0x20C0008
                 _0x20C0007:
0021f2 9110 08a1 	LDS  R17,_glcd_state
0021f4 c009      	RJMP _0x20C0009
                 _0x20C0008:
0021f5 30e9      	CPI  R30,LOW(0x9)
0021f6 f419      	BRNE _0x20C000B
                +
0021f7 9110 08a2+LDS R17 , _glcd_state + ( 1 )
                 	__GETBRMN 17,_glcd_state,1
0021f9 c004      	RJMP _0x20C0009
                 _0x20C000B:
0021fa 30e8      	CPI  R30,LOW(0x8)
0021fb f4a1      	BRNE _0x20C0005
                +
0021fc 9110 08b1+LDS R17 , _glcd_state + ( 16 )
                 	__GETBRMN 17,_glcd_state,16
                 _0x20C0009:
                +
0021fe 91e0 08a2+LDS R30 , _glcd_state + ( 1 )
                 	__GETB1MN _glcd_state,1
002200 30e0      	CPI  R30,0
002201 f049      	BREQ _0x20C000E
002202 3010      	CPI  R17,0
002203 f019      	BREQ _0x20C000F
002204 efef      	LDI  R30,LOW(255)
002205 8118      	LDD  R17,Y+0
002206 c029      	RJMP _0x2120002
                 _0x20C000F:
002207 81ea      	LDD  R30,Y+2
002208 95e0      	COM  R30
002209 8118      	LDD  R17,Y+0
00220a c025      	RJMP _0x2120002
                 _0x20C000E:
00220b 3010      	CPI  R17,0
00220c f419      	BRNE _0x20C0011
00220d e0e0      	LDI  R30,LOW(0)
00220e 8118      	LDD  R17,Y+0
00220f c020      	RJMP _0x2120002
                 _0x20C0011:
                 _0x20C0005:
002210 81ea      	LDD  R30,Y+2
002211 8118      	LDD  R17,Y+0
002212 c01d      	RJMP _0x2120002
                 ; .FEND
                 _glcd_readmem:
                 ; .FSTART _glcd_readmem
002213 93ba      	ST   -Y,R27
002214 93aa      	ST   -Y,R26
002215 81ea      	LDD  R30,Y+2
002216 30e1      	CPI  R30,LOW(0x1)
002217 f421      	BRNE _0x20C0015
002218 81e8      	LD   R30,Y
002219 81f9      	LDD  R31,Y+1
00221a 91e4      	LPM  R30,Z
00221b c014      	RJMP _0x2120002
                 _0x20C0015:
00221c 30e2      	CPI  R30,LOW(0x2)
00221d f429      	BRNE _0x20C0016
00221e 81a8      	LD   R26,Y
00221f 81b9      	LDD  R27,Y+1
002220 940e 24e3 	CALL __EEPROMRDB
002222 c00d      	RJMP _0x2120002
                 _0x20C0016:
002223 30e3      	CPI  R30,LOW(0x3)
002224 f441      	BRNE _0x20C0018
002225 81a8      	LD   R26,Y
002226 81b9      	LDD  R27,Y+1
                +
002227 91e0 08ba+LDS R30 , _glcd_state + ( 25 )
002229 91f0 08bb+LDS R31 , _glcd_state + ( 25 ) + 1
00222b 9509     +ICALL
                 	__CALL1MN _glcd_state,25
00222c c003      	RJMP _0x2120002
                 _0x20C0018:
00222d 81a8      	LD   R26,Y
00222e 81b9      	LDD  R27,Y+1
00222f 91ec      	LD   R30,X
                 _0x2120002:
002230 9623      	ADIW R28,3
002231 9508      	RET
                 ; .FEND
                 _glcd_writemem:
                 ; .FSTART _glcd_writemem
002232 93aa      	ST   -Y,R26
002233 81eb      	LDD  R30,Y+3
002234 30e0      	CPI  R30,0
002235 f429      	BRNE _0x20C001C
002236 81e8      	LD   R30,Y
002237 81a9      	LDD  R26,Y+1
002238 81ba      	LDD  R27,Y+1+1
002239 93ec      	ST   X,R30
00223a c014      	RJMP _0x20C001B
                 _0x20C001C:
00223b 30e2      	CPI  R30,LOW(0x2)
00223c f431      	BRNE _0x20C001D
00223d 81e8      	LD   R30,Y
00223e 81a9      	LDD  R26,Y+1
00223f 81ba      	LDD  R27,Y+1+1
002240 940e 24ef 	CALL __EEPROMWRB
002242 c00c      	RJMP _0x20C001B
                 _0x20C001D:
002243 30e3      	CPI  R30,LOW(0x3)
002244 f451      	BRNE _0x20C001B
002245 81e9      	LDD  R30,Y+1
002246 81fa      	LDD  R31,Y+1+1
002247 93fa      	ST   -Y,R31
002248 93ea      	ST   -Y,R30
002249 81aa      	LDD  R26,Y+2
                +
00224a 91e0 08bc+LDS R30 , _glcd_state + ( 27 )
00224c 91f0 08bd+LDS R31 , _glcd_state + ( 27 ) + 1
00224e 9509     +ICALL
                 	__CALL1MN _glcd_state,27
                 _0x20C001B:
                 _0x2120001:
00224f 9624      	ADIW R28,4
002250 9508      	RET
                 ; .FEND
                 
                 	.CSEG
                 
                 	.CSEG
                 _isdigit:
                 ; .FSTART _isdigit
002251 93aa      	ST   -Y,R26
002252 e0e1          ldi  r30,1
002253 91f9          ld   r31,y+
002254 33f0          cpi  r31,'0'
002255 f010          brlo isdigit0
002256 33fa          cpi  r31,'9'+1
002257 f008          brlo isdigit1
                 isdigit0:
002258 27ee          clr  r30
                 isdigit1:
002259 9508          ret
                 ; .FEND
                 _isspace:
                 ; .FSTART _isspace
00225a 93aa      	ST   -Y,R26
00225b e0e1          ldi  r30,1
00225c 91f9          ld   r31,y+
00225d 32f0          cpi  r31,' '
00225e f029          breq isspace1
00225f 30f9          cpi  r31,9
002260 f010          brlo isspace0
002261 30fe          cpi  r31,13+1
002262 f008          brlo isspace1
                 isspace0:
002263 27ee          clr  r30
                 isspace1:
002264 9508          ret
                 ; .FEND
                 _isxdigit:
                 ; .FSTART _isxdigit
002265 93aa      	ST   -Y,R26
002266 e0e1          ldi  r30,1
002267 91f9          ld   r31,y+
002268 53f0          subi r31,0x30
002269 f040          brcs isxdigit0
00226a 30fa          cpi  r31,10
00226b f038          brcs isxdigit1
00226c 75ff          andi r31,0x5f
00226d 50f7          subi r31,7
00226e 30fa          cpi  r31,10
00226f f010          brcs isxdigit0
002270 31f0          cpi  r31,16
002271 f008          brcs isxdigit1
                 isxdigit0:
002272 27ee          clr  r30
                 isxdigit1:
002273 9508          ret
                 ; .FEND
                 
                 	.DSEG
                 _glcd_state:
0008a1           	.BYTE 0x1D
                 _rx_counter0:
0008be           	.BYTE 0x1
                 _rx_wr_index0:
0008bf           	.BYTE 0x1
                 _rx_rd_index0:
0008c0           	.BYTE 0x1
                 _millis_counter:
0008c1           	.BYTE 0x4
                 _last_time:
0008c5           	.BYTE 0x4
                 _header_buffer:
0008c9           	.BYTE 0x64
                 _content_buffer:
00092d           	.BYTE 0x64
                 _rx_buffer0:
000991           	.BYTE 0x64
                 _phase_S0000007000:
0009f5           	.BYTE 0x1
                 _h_idx_S0000007000:
0009f6           	.BYTE 0x1
                 _c_idx_S0000007000:
0009f7           	.BYTE 0x1
                 _value:
0009f8           	.BYTE 0x10
                 _at_command:
000a08           	.BYTE 0x1E
                 _buffer:
000a26           	.BYTE 0x200
                 _ks0108_coord_G100:
000c26           	.BYTE 0x3
                 _p_S1040026000:
000c29           	.BYTE 0x2
                 __seed_G105:
000c2b           	.BYTE 0x4
                 
                 	.CSEG
                 ;OPTIMIZER ADDED SUBROUTINE, CALLED 2 TIMES, CODE SIZE REDUCTION:3 WORDS
                 SUBOPT_0x0:
002274 91e0 08c1 	LDS  R30,_millis_counter
002276 91f0 08c2 	LDS  R31,_millis_counter+1
002278 9160 08c3 	LDS  R22,_millis_counter+2
00227a 9170 08c4 	LDS  R23,_millis_counter+3
00227c 9508      	RET
                 
                 ;OPTIMIZER ADDED SUBROUTINE, CALLED 3 TIMES, CODE SIZE REDUCTION:1 WORDS
                 SUBOPT_0x1:
00227d 940e 2509 	CALL __SAVELOCR6
                +
00227f e000     +LDI R16 , LOW ( 0 )
002280 e010     +LDI R17 , HIGH ( 0 )
                 	__GETWRN 16,17,0
002281 9508      	RET
                 
                 ;OPTIMIZER ADDED SUBROUTINE, CALLED 4 TIMES, CODE SIZE REDUCTION:3 WORDS
                 SUBOPT_0x2:
002282 e0a1      	LDI  R26,LOW(1)
002283 e0b0      	LDI  R27,HIGH(1)
002284 940e 2482 	CALL __LSLW12
002286 9508      	RET
                 
                 ;OPTIMIZER ADDED SUBROUTINE, CALLED 4 TIMES, CODE SIZE REDUCTION:3 WORDS
                 SUBOPT_0x3:
002287 e0b0      	LDI  R27,0
002288 23ea      	AND  R30,R26
002289 23fb      	AND  R31,R27
00228a 9730      	SBIW R30,0
00228b 9508      	RET
                 
                 ;OPTIMIZER ADDED SUBROUTINE, CALLED 15 TIMES, CODE SIZE REDUCTION:53 WORDS
                 SUBOPT_0x4:
00228c 940e 19ea 	CALL _glcd_clear
00228e e0e0      	LDI  R30,LOW(0)
00228f 93ea      	ST   -Y,R30
002290 93ea      	ST   -Y,R30
002291 9508      	RET
                 
                 ;OPTIMIZER ADDED SUBROUTINE, CALLED 2 TIMES, CODE SIZE REDUCTION:3 WORDS
                 SUBOPT_0x5:
002292 93fa      	ST   -Y,R31
002293 93ea      	ST   -Y,R30
002294 e8e0      	LDI  R30,LOW(128)
002295 93ea      	ST   -Y,R30
002296 e4a0      	LDI  R26,LOW(64)
002297 940e 11b5 	CALL _draw_bitmap
002299 e0e0      	LDI  R30,LOW(0)
00229a 9508      	RET
                 
                 ;OPTIMIZER ADDED SUBROUTINE, CALLED 4 TIMES, CODE SIZE REDUCTION:12 WORDS
                 SUBOPT_0x6:
00229b 93e0 08c0 	STS  _rx_rd_index0,R30
00229d 93e0 08bf 	STS  _rx_wr_index0,R30
00229f e0e0      	LDI  R30,LOW(0)
0022a0 93e0 08be 	STS  _rx_counter0,R30
0022a2 9508      	RET
                 
                 ;OPTIMIZER ADDED SUBROUTINE, CALLED 10 TIMES, CODE SIZE REDUCTION:78 WORDS
                 SUBOPT_0x7:
0022a3 940e 1510 	CALL _send_at_command
0022a5 01fe      	MOVW R30,R28
0022a6 5fe8      	SUBI R30,LOW(-(264))
0022a7 4ffe      	SBCI R31,HIGH(-(264))
0022a8 93fa      	ST   -Y,R31
0022a9 93ea      	ST   -Y,R30
0022aa e0e0      	LDI  R30,LOW(256)
0022ab e0f1      	LDI  R31,HIGH(256)
0022ac 93fa      	ST   -Y,R31
0022ad 93ea      	ST   -Y,R30
0022ae 9508      	RET
                 
                 ;OPTIMIZER ADDED SUBROUTINE, CALLED 7 TIMES, CODE SIZE REDUCTION:9 WORDS
                 SUBOPT_0x8:
0022af eee8      	LDI  R30,LOW(1000)
0022b0 e0f3      	LDI  R31,HIGH(1000)
0022b1 93fa      	ST   -Y,R31
0022b2 93ea      	ST   -Y,R30
0022b3 9508      	RET
                 
                 ;OPTIMIZER ADDED SUBROUTINE, CALLED 6 TIMES, CODE SIZE REDUCTION:7 WORDS
                 SUBOPT_0x9:
0022b4 2766      	CLR  R22
0022b5 2777      	CLR  R23
0022b6 940e 24de 	CALL __PUTPARD1
0022b8 9508      	RET
                 
                 ;OPTIMIZER ADDED SUBROUTINE, CALLED 3 TIMES, CODE SIZE REDUCTION:1 WORDS
                 SUBOPT_0xA:
0022b9 e084      	LDI  R24,4
0022ba 940e 1f04 	CALL _sprintf
0022bc 9628      	ADIW R28,8
0022bd 9508      	RET
                 
                 ;OPTIMIZER ADDED SUBROUTINE, CALLED 4 TIMES, CODE SIZE REDUCTION:9 WORDS
                 SUBOPT_0xB:
0022be 940e 1d63 	CALL _glcd_outtextxy
0022c0 efa4      	LDI  R26,LOW(500)
0022c1 e0b1      	LDI  R27,HIGH(500)
0022c2 940c 245b 	JMP  _delay_ms
                 
                 ;OPTIMIZER ADDED SUBROUTINE, CALLED 2 TIMES, CODE SIZE REDUCTION:3 WORDS
                 SUBOPT_0xC:
0022c4 93fa      	ST   -Y,R31
0022c5 93ea      	ST   -Y,R30
                +
0022c6 efa1     +LDI R26 , LOW ( 2 * _0x0 + ( 87 ) )
0022c7 e1bc     +LDI R27 , HIGH ( 2 * _0x0 + ( 87 ) )
                 	__POINTW2FN _0x0,87
0022c8 940e 2165 	CALL _strtok
0022ca a3ee      	STD  Y+38,R30
0022cb a3ff      	STD  Y+38+1,R31
0022cc 9508      	RET
                 
                 ;OPTIMIZER ADDED SUBROUTINE, CALLED 7 TIMES, CODE SIZE REDUCTION:9 WORDS
                 SUBOPT_0xD:
0022cd e0e0      	LDI  R30,LOW(0)
0022ce 93ea      	ST   -Y,R30
0022cf e0ea      	LDI  R30,LOW(10)
0022d0 93ea      	ST   -Y,R30
0022d1 9508      	RET
                 
                 ;OPTIMIZER ADDED SUBROUTINE, CALLED 2 TIMES, CODE SIZE REDUCTION:2 WORDS
                 SUBOPT_0xE:
0022d2 93fa      	ST   -Y,R31
0022d3 93ea      	ST   -Y,R30
0022d4 e8e0      	LDI  R30,LOW(128)
0022d5 93ea      	ST   -Y,R30
0022d6 e2a0      	LDI  R26,LOW(32)
0022d7 940c 11b5 	JMP  _draw_bitmap
                 
                 ;OPTIMIZER ADDED SUBROUTINE, CALLED 2 TIMES, CODE SIZE REDUCTION:6 WORDS
                 SUBOPT_0xF:
0022d9 93fa      	ST   -Y,R31
0022da 93ea      	ST   -Y,R30
0022db e8e0      	LDI  R30,LOW(128)
0022dc 93ea      	ST   -Y,R30
0022dd e4a0      	LDI  R26,LOW(64)
0022de 940e 11b5 	CALL _draw_bitmap
0022e0 e2ac      	LDI  R26,LOW(300)
0022e1 e0b1      	LDI  R27,HIGH(300)
0022e2 940c 245b 	JMP  _delay_ms
                 
                 ;OPTIMIZER ADDED SUBROUTINE, CALLED 3 TIMES, CODE SIZE REDUCTION:1 WORDS
                 SUBOPT_0x10:
                +
0022e4 93e0 08a5+STS _glcd_state + ( 4 ) , R30
0022e6 93f0 08a6+STS _glcd_state + ( 4 ) + 1 , R31
                 	__PUTW1MN _glcd_state,4
0022e8 9508      	RET
                 
                 ;OPTIMIZER ADDED SUBROUTINE, CALLED 3 TIMES, CODE SIZE REDUCTION:1 WORDS
                 SUBOPT_0x11:
0022e9 e0a1      	LDI  R26,LOW(1)
0022ea e0b0      	LDI  R27,0
0022eb 940c 245b 	JMP  _delay_ms
                 
                 ;OPTIMIZER ADDED SUBROUTINE, CALLED 3 TIMES, CODE SIZE REDUCTION:1 WORDS
                 SUBOPT_0x12:
0022ed 85ea      	LDD  R30,Y+10
0022ee 85fb      	LDD  R31,Y+10+1
0022ef 93fa      	ST   -Y,R31
0022f0 93ea      	ST   -Y,R30
0022f1 9508      	RET
                 
                 ;OPTIMIZER ADDED SUBROUTINE, CALLED 3 TIMES, CODE SIZE REDUCTION:1 WORDS
                 SUBOPT_0x13:
0022f2 940e 2472 	CALL __LSLB12
0022f4 95e0      	COM  R30
0022f5 21e1      	AND  R30,R1
0022f6 9508      	RET
                 
                 ;OPTIMIZER ADDED SUBROUTINE, CALLED 3 TIMES, CODE SIZE REDUCTION:13 WORDS
                 SUBOPT_0x14:
0022f7 b213      	IN   R1,19
0022f8 2fe1      	MOV  R30,R17
0022f9 e0f0      	LDI  R31,0
0022fa 01de      	MOVW R26,R28
0022fb 961e      	ADIW R26,14
0022fc 0fae      	ADD  R26,R30
0022fd 1fbf      	ADC  R27,R31
0022fe 91ec      	LD   R30,X
0022ff cf82      	RJMP SUBOPT_0x2
                 
                 ;OPTIMIZER ADDED SUBROUTINE, CALLED 3 TIMES, CODE SIZE REDUCTION:1 WORDS
                 SUBOPT_0x15:
002300 940e 1d63 	CALL _glcd_outtextxy
002302 940c 1520 	JMP  _uart_buffer_reset
                 
                 ;OPTIMIZER ADDED SUBROUTINE, CALLED 4 TIMES, CODE SIZE REDUCTION:9 WORDS
                 SUBOPT_0x16:
002304 940e 1510 	CALL _send_at_command
002306 e6a4      	LDI  R26,LOW(100)
002307 e0b0      	LDI  R27,0
002308 940c 245b 	JMP  _delay_ms
                 
                 ;OPTIMIZER ADDED SUBROUTINE, CALLED 4 TIMES, CODE SIZE REDUCTION:9 WORDS
                 SUBOPT_0x17:
00230a 940e 1510 	CALL _send_at_command
00230c efa4      	LDI  R26,LOW(500)
00230d e0b1      	LDI  R27,HIGH(500)
00230e 940c 245b 	JMP  _delay_ms
                 
                 ;OPTIMIZER ADDED SUBROUTINE, CALLED 6 TIMES, CODE SIZE REDUCTION:37 WORDS
                 SUBOPT_0x18:
002310 940e 1510 	CALL _send_at_command
002312 e2e6      	LDI  R30,LOW(_buffer)
002313 e0fa      	LDI  R31,HIGH(_buffer)
002314 93fa      	ST   -Y,R31
002315 93ea      	ST   -Y,R30
002316 e0e0      	LDI  R30,LOW(512)
002317 e0f2      	LDI  R31,HIGH(512)
002318 93fa      	ST   -Y,R31
002319 93ea      	ST   -Y,R30
00231a 9508      	RET
                 
                 ;OPTIMIZER ADDED SUBROUTINE, CALLED 2 TIMES, CODE SIZE REDUCTION:1 WORDS
                 SUBOPT_0x19:
                +
00231b ede0     +LDI R30 , LOW ( 0x7D0 )
00231c e0f7     +LDI R31 , HIGH ( 0x7D0 )
00231d e060     +LDI R22 , BYTE3 ( 0x7D0 )
00231e e070     +LDI R23 , BYTE4 ( 0x7D0 )
                 	__GETD1N 0x7D0
00231f 940e 24de 	CALL __PUTPARD1
002321 9508      	RET
                 
                 ;OPTIMIZER ADDED SUBROUTINE, CALLED 3 TIMES, CODE SIZE REDUCTION:5 WORDS
                 SUBOPT_0x1A:
                +
002322 e8e8     +LDI R30 , LOW ( 0x1388 )
002323 e1f3     +LDI R31 , HIGH ( 0x1388 )
002324 e060     +LDI R22 , BYTE3 ( 0x1388 )
002325 e070     +LDI R23 , BYTE4 ( 0x1388 )
                 	__GETD1N 0x1388
002326 940e 24de 	CALL __PUTPARD1
002328 9508      	RET
                 
                 ;OPTIMIZER ADDED SUBROUTINE, CALLED 3 TIMES, CODE SIZE REDUCTION:5 WORDS
                 SUBOPT_0x1B:
002329 e0e0      	LDI  R30,LOW(0)
00232a 93ea      	ST   -Y,R30
00232b 93ea      	ST   -Y,R30
00232c e2a6      	LDI  R26,LOW(_buffer)
00232d e0ba      	LDI  R27,HIGH(_buffer)
00232e 9508      	RET
                 
                 ;OPTIMIZER ADDED SUBROUTINE, CALLED 2 TIMES, CODE SIZE REDUCTION:1 WORDS
                 SUBOPT_0x1C:
00232f 940e 1d63 	CALL _glcd_outtextxy
002331 eea8      	LDI  R26,LOW(1000)
002332 e0b3      	LDI  R27,HIGH(1000)
002333 940c 245b 	JMP  _delay_ms
                 
                 ;OPTIMIZER ADDED SUBROUTINE, CALLED 4 TIMES, CODE SIZE REDUCTION:3 WORDS
                 SUBOPT_0x1D:
002335 e2e6      	LDI  R30,LOW(_buffer)
002336 e0fa      	LDI  R31,HIGH(_buffer)
002337 93fa      	ST   -Y,R31
002338 93ea      	ST   -Y,R30
002339 9508      	RET
                 
                 ;OPTIMIZER ADDED SUBROUTINE, CALLED 2 TIMES, CODE SIZE REDUCTION:6 WORDS
                 SUBOPT_0x1E:
00233a 93fa      	ST   -Y,R31
00233b 93ea      	ST   -Y,R30
00233c efe8      	LDI  R30,LOW(_value)
00233d e0f9      	LDI  R31,HIGH(_value)
00233e 93fa      	ST   -Y,R31
00233f 93ea      	ST   -Y,R30
002340 e1a0      	LDI  R26,LOW(16)
002341 e0b0      	LDI  R27,0
002342 940e 15b5 	CALL _extract_field_after_keyword
002344 9730      	SBIW R30,0
002345 9508      	RET
                 
                 ;OPTIMIZER ADDED SUBROUTINE, CALLED 7 TIMES, CODE SIZE REDUCTION:21 WORDS
                 SUBOPT_0x1F:
002346 940e 1510 	CALL _send_at_command
002348 eca8      	LDI  R26,LOW(200)
002349 e0b0      	LDI  R27,0
00234a 940c 245b 	JMP  _delay_ms
                 
                 ;OPTIMIZER ADDED SUBROUTINE, CALLED 2 TIMES, CODE SIZE REDUCTION:1 WORDS
                 SUBOPT_0x20:
00234c 940e 1510 	CALL _send_at_command
00234e e9a6      	LDI  R26,LOW(150)
00234f e0b0      	LDI  R27,0
002350 940c 245b 	JMP  _delay_ms
                 
                 ;OPTIMIZER ADDED SUBROUTINE, CALLED 2 TIMES, CODE SIZE REDUCTION:1 WORDS
                 SUBOPT_0x21:
                +
002352 e1e0     +LDI R30 , LOW ( 0x2710 )
002353 e2f7     +LDI R31 , HIGH ( 0x2710 )
002354 e060     +LDI R22 , BYTE3 ( 0x2710 )
002355 e070     +LDI R23 , BYTE4 ( 0x2710 )
                 	__GETD1N 0x2710
002356 940e 24de 	CALL __PUTPARD1
002358 9508      	RET
                 
                 ;OPTIMIZER ADDED SUBROUTINE, CALLED 2 TIMES, CODE SIZE REDUCTION:1 WORDS
                 SUBOPT_0x22:
002359 eea8      	LDI  R26,LOW(1000)
00235a e0b3      	LDI  R27,HIGH(1000)
00235b 940e 245b 	CALL _delay_ms
00235d 940c 1520 	JMP  _uart_buffer_reset
                 
                 ;OPTIMIZER ADDED SUBROUTINE, CALLED 3 TIMES, CODE SIZE REDUCTION:1 WORDS
                 SUBOPT_0x23:
00235f e0e0      	LDI  R30,LOW(0)
002360 93ea      	ST   -Y,R30
002361 e1e0      	LDI  R30,LOW(16)
002362 93ea      	ST   -Y,R30
002363 9508      	RET
                 
                 ;OPTIMIZER ADDED SUBROUTINE, CALLED 5 TIMES, CODE SIZE REDUCTION:5 WORDS
                 SUBOPT_0x24:
002364 93e0 0062 	STS  98,R30
002366 91e0 0062 	LDS  R30,98
002368 9508      	RET
                 
                 ;OPTIMIZER ADDED SUBROUTINE, CALLED 2 TIMES, CODE SIZE REDUCTION:2 WORDS
                 SUBOPT_0x25:
002369 e0e0      	LDI  R30,LOW(0)
00236a bbea      	OUT  0x1A,R30
00236b 91e0 0062 	LDS  R30,98
00236d 60e8      	ORI  R30,8
00236e cff5      	RJMP SUBOPT_0x24
                 
                 ;OPTIMIZER ADDED SUBROUTINE, CALLED 2 TIMES, CODE SIZE REDUCTION:6 WORDS
                 SUBOPT_0x26:
00236f 7fe7      	ANDI R30,0XF7
002370 93e0 0062 	STS  98,R30
002372 efef      	LDI  R30,LOW(255)
002373 bbea      	OUT  0x1A,R30
002374 81e8      	LD   R30,Y
002375 bbeb      	OUT  0x1B,R30
002376 940e 18c5 	CALL _ks0108_enable_G100
002378 940c 18cd 	JMP  _ks0108_disable_G100
                 
                 ;OPTIMIZER ADDED SUBROUTINE, CALLED 2 TIMES, CODE SIZE REDUCTION:1 WORDS
                 SUBOPT_0x27:
00237a 95e6      	LSR  R30
00237b 95e6      	LSR  R30
00237c 95e6      	LSR  R30
00237d 2fae      	MOV  R26,R30
00237e 940c 1923 	JMP  _ks0108_gotoxp_G100
                 
                 ;OPTIMIZER ADDED SUBROUTINE, CALLED 4 TIMES, CODE SIZE REDUCTION:3 WORDS
                 SUBOPT_0x28:
002380 93e0 0061 	STS  97,R30
002382 91e0 0061 	LDS  R30,97
002384 9508      	RET
                 
                 ;OPTIMIZER ADDED SUBROUTINE, CALLED 3 TIMES, CODE SIZE REDUCTION:1 WORDS
                 SUBOPT_0x29:
002385 940e 1947 	CALL _ks0108_wrdata_G100
002387 940c 1932 	JMP  _ks0108_nextx_G100
                 
                 ;OPTIMIZER ADDED SUBROUTINE, CALLED 4 TIMES, CODE SIZE REDUCTION:3 WORDS
                 SUBOPT_0x2A:
002389 0fea      	ADD  R30,R26
00238a 1ffb      	ADC  R31,R27
00238b 83ee      	STD  Y+6,R30
00238c 83ff      	STD  Y+6+1,R31
00238d 9508      	RET
                 
                 ;OPTIMIZER ADDED SUBROUTINE, CALLED 2 TIMES, CODE SIZE REDUCTION:8 WORDS
                 SUBOPT_0x2B:
00238e 85ec      	LDD  R30,Y+12
00238f 93ea      	ST   -Y,R30
002390 81ef      	LDD  R30,Y+7
002391 85f8      	LDD  R31,Y+7+1
002392 9631      	ADIW R30,1
002393 83ef      	STD  Y+7,R30
002394 87f8      	STD  Y+7+1,R31
002395 9731      	SBIW R30,1
002396 93fa      	ST   -Y,R31
002397 93ea      	ST   -Y,R30
002398 e0a0      	LDI  R26,LOW(0)
002399 940c 2232 	JMP  _glcd_writemem
                 
                 ;OPTIMIZER ADDED SUBROUTINE, CALLED 4 TIMES, CODE SIZE REDUCTION:15 WORDS
                 SUBOPT_0x2C:
00239b 85ec      	LDD  R30,Y+12
00239c 93ea      	ST   -Y,R30
00239d 81ef      	LDD  R30,Y+7
00239e 85f8      	LDD  R31,Y+7+1
00239f 9631      	ADIW R30,1
0023a0 83ef      	STD  Y+7,R30
0023a1 87f8      	STD  Y+7+1,R31
0023a2 9731      	SBIW R30,1
0023a3 9508      	RET
                 
                 ;OPTIMIZER ADDED SUBROUTINE, CALLED 3 TIMES, CODE SIZE REDUCTION:5 WORDS
                 SUBOPT_0x2D:
0023a4 2766      	CLR  R22
0023a5 2777      	CLR  R23
0023a6 01df      	MOVW R26,R30
0023a7 01cb      	MOVW R24,R22
0023a8 940c 2213 	JMP  _glcd_readmem
                 
                 ;OPTIMIZER ADDED SUBROUTINE, CALLED 3 TIMES, CODE SIZE REDUCTION:1 WORDS
                 SUBOPT_0x2E:
0023aa 935a      	ST   -Y,R21
0023ab 85aa      	LDD  R26,Y+10
0023ac 940c 21eb 	JMP  _glcd_mappixcolor1bit
                 
                 ;OPTIMIZER ADDED SUBROUTINE, CALLED 3 TIMES, CODE SIZE REDUCTION:3 WORDS
                 SUBOPT_0x2F:
0023ae 930a      	ST   -Y,R16
0023af 9503      	INC  R16
0023b0 89e8      	LDD  R30,Y+16
0023b1 93ea      	ST   -Y,R30
0023b2 935a      	ST   -Y,R21
0023b3 9508      	RET
                 
                 ;OPTIMIZER ADDED SUBROUTINE, CALLED 2 TIMES, CODE SIZE REDUCTION:1 WORDS
                 SUBOPT_0x30:
0023b4 930a      	ST   -Y,R16
0023b5 9503      	INC  R16
0023b6 89a8      	LDD  R26,Y+16
0023b7 940e 195e 	CALL _ks0108_rdbyte_G100
0023b9 23e4      	AND  R30,R20
0023ba 9508      	RET
                 
                 ;OPTIMIZER ADDED SUBROUTINE, CALLED 2 TIMES, CODE SIZE REDUCTION:5 WORDS
                 SUBOPT_0x31:
0023bb 2f5e      	MOV  R21,R30
0023bc 85ec      	LDD  R30,Y+12
0023bd 93ea      	ST   -Y,R30
0023be 81af      	LDD  R26,Y+7
0023bf 85b8      	LDD  R27,Y+7+1
0023c0 2788      	CLR  R24
0023c1 2799      	CLR  R25
0023c2 940e 2213 	CALL _glcd_readmem
0023c4 2e1e      	MOV  R1,R30
0023c5 9508      	RET
                 
                 ;OPTIMIZER ADDED SUBROUTINE, CALLED 2 TIMES, CODE SIZE REDUCTION:9 WORDS
                 SUBOPT_0x32:
0023c6 930a      	ST   -Y,R16
0023c7 9503      	INC  R16
0023c8 89e8      	LDD  R30,Y+16
0023c9 93ea      	ST   -Y,R30
0023ca 85ee      	LDD  R30,Y+14
0023cb 93ea      	ST   -Y,R30
0023cc 85e9      	LDD  R30,Y+9
0023cd 85fa      	LDD  R31,Y+9+1
0023ce 9631      	ADIW R30,1
0023cf 87e9      	STD  Y+9,R30
0023d0 87fa      	STD  Y+9+1,R31
0023d1 9731      	SBIW R30,1
0023d2 cfd1      	RJMP SUBOPT_0x2D
                 
                 ;OPTIMIZER ADDED SUBROUTINE, CALLED 2 TIMES, CODE SIZE REDUCTION:1 WORDS
                 SUBOPT_0x33:
0023d3 93ba      	ST   -Y,R27
0023d4 93aa      	ST   -Y,R26
0023d5 81a8      	LD   R26,Y
0023d6 81b9      	LDD  R27,Y+1
0023d7 940e 2500 	CALL __CPW02
0023d9 9508      	RET
                 
                 ;OPTIMIZER ADDED SUBROUTINE, CALLED 2 TIMES, CODE SIZE REDUCTION:1 WORDS
                 SUBOPT_0x34:
0023da 940e 2509 	CALL __SAVELOCR6
                +
0023dc 91e0 08a5+LDS R30 , _glcd_state + ( 4 )
0023de 91f0 08a6+LDS R31 , _glcd_state + ( 4 ) + 1
                 	__GETW1MN _glcd_state,4
0023e0 9508      	RET
                 
                 ;OPTIMIZER ADDED SUBROUTINE, CALLED 3 TIMES, CODE SIZE REDUCTION:1 WORDS
                 SUBOPT_0x35:
0023e1 01f8      	MOVW R30,R16
                +
0023e2 5f0f     +SUBI R16 , LOW ( - 1 )
0023e3 4f1f     +SBCI R17 , HIGH ( - 1 )
                 	__ADDWRN 16,17,1
0023e4 9004      	LPM  R0,Z
0023e5 9508      	RET
                 
                 ;OPTIMIZER ADDED SUBROUTINE, CALLED 4 TIMES, CODE SIZE REDUCTION:9 WORDS
                 SUBOPT_0x36:
                +
0023e6 91e0 08a5+LDS R30 , _glcd_state + ( 4 )
0023e8 91f0 08a6+LDS R31 , _glcd_state + ( 4 ) + 1
                 	__GETW1MN _glcd_state,4
0023ea 9631      	ADIW R30,1
0023eb 91e4      	LPM  R30,Z
0023ec 9508      	RET
                 
                 ;OPTIMIZER ADDED SUBROUTINE, CALLED 2 TIMES, CODE SIZE REDUCTION:5 WORDS
                 SUBOPT_0x37:
0023ed 93ea      	ST   -Y,R30
0023ee e0e0      	LDI  R30,LOW(0)
0023ef 93ea      	ST   -Y,R30
0023f0 e0e0      	LDI  R30,LOW(0)
0023f1 e0f0      	LDI  R31,HIGH(0)
0023f2 93fa      	ST   -Y,R31
0023f3 93ea      	ST   -Y,R30
0023f4 e0a9      	LDI  R26,LOW(9)
0023f5 940c 1a6f 	JMP  _glcd_block
                 
                 ;OPTIMIZER ADDED SUBROUTINE, CALLED 4 TIMES, CODE SIZE REDUCTION:6 WORDS
                 SUBOPT_0x38:
0023f7 91ed      	LD   R30,X+
0023f8 91fd      	LD   R31,X+
0023f9 9631      	ADIW R30,1
0023fa 93fe      	ST   -X,R31
0023fb 93ee      	ST   -X,R30
0023fc 9508      	RET
                 
                 ;OPTIMIZER ADDED SUBROUTINE, CALLED 5 TIMES, CODE SIZE REDUCTION:13 WORDS
                 SUBOPT_0x39:
0023fd 932a      	ST   -Y,R18
0023fe 85ad      	LDD  R26,Y+13
0023ff 85be      	LDD  R27,Y+13+1
002400 85ef      	LDD  R30,Y+15
002401 89f8      	LDD  R31,Y+15+1
002402 9509      	ICALL
002403 9508      	RET
                 
                 ;OPTIMIZER ADDED SUBROUTINE, CALLED 5 TIMES, CODE SIZE REDUCTION:9 WORDS
                 SUBOPT_0x3A:
002404 89e8      	LDD  R30,Y+16
002405 89f9      	LDD  R31,Y+16+1
002406 9734      	SBIW R30,4
002407 8be8      	STD  Y+16,R30
002408 8bf9      	STD  Y+16+1,R31
002409 9508      	RET
                 
                 ;OPTIMIZER ADDED SUBROUTINE, CALLED 3 TIMES, CODE SIZE REDUCTION:3 WORDS
                 SUBOPT_0x3B:
00240a 85ad      	LDD  R26,Y+13
00240b 85be      	LDD  R27,Y+13+1
00240c 85ef      	LDD  R30,Y+15
00240d 89f8      	LDD  R31,Y+15+1
00240e 9509      	ICALL
00240f 9508      	RET
                 
                 ;OPTIMIZER ADDED SUBROUTINE, CALLED 2 TIMES, CODE SIZE REDUCTION:4 WORDS
                 SUBOPT_0x3C:
002410 89a8      	LDD  R26,Y+16
002411 89b9      	LDD  R27,Y+16+1
002412 9614      	ADIW R26,4
002413 940e 24ca 	CALL __GETW1P
002415 83ee      	STD  Y+6,R30
002416 83ff      	STD  Y+6+1,R31
002417 81ae      	LDD  R26,Y+6
002418 81bf      	LDD  R27,Y+6+1
002419 9508      	RET
                 
                 ;OPTIMIZER ADDED SUBROUTINE, CALLED 2 TIMES, CODE SIZE REDUCTION:2 WORDS
                 SUBOPT_0x3D:
00241a 89a8      	LDD  R26,Y+16
00241b 89b9      	LDD  R27,Y+16+1
00241c 9614      	ADIW R26,4
00241d 940e 24ca 	CALL __GETW1P
00241f 87ea      	STD  Y+10,R30
002420 87fb      	STD  Y+10+1,R31
002421 9508      	RET
                 
                 ;OPTIMIZER ADDED SUBROUTINE, CALLED 2 TIMES, CODE SIZE REDUCTION:1 WORDS
                 SUBOPT_0x3E:
002422 01de      	MOVW R26,R28
002423 961c      	ADIW R26,12
002424 940e 2465 	CALL __ADDW2R15
002426 940e 24ca 	CALL __GETW1P
002428 9508      	RET
                 
                 ;OPTIMIZER ADDED SUBROUTINE, CALLED 3 TIMES, CODE SIZE REDUCTION:9 WORDS
                 SUBOPT_0x3F:
002429 940e 2465 	CALL __ADDW2R15
00242b 940e 24ca 	CALL __GETW1P
00242d 93fa      	ST   -Y,R31
00242e 93ea      	ST   -Y,R30
00242f 931a      	ST   -Y,R17
002430 930a      	ST   -Y,R16
002431 9508      	RET
                 
                 ;OPTIMIZER ADDED SUBROUTINE, CALLED 3 TIMES, CODE SIZE REDUCTION:1 WORDS
                 SUBOPT_0x40:
002432 2fa3      	MOV  R26,R19
002433 940e 225a 	CALL _isspace
002435 30e0      	CPI  R30,0
002436 9508      	RET
                 
                 ;OPTIMIZER ADDED SUBROUTINE, CALLED 6 TIMES, CODE SIZE REDUCTION:12 WORDS
                 SUBOPT_0x41:
002437 85ac      	LDD  R26,Y+12
002438 85bd      	LDD  R27,Y+12+1
002439 85ee      	LDD  R30,Y+14
00243a 85ff      	LDD  R31,Y+14+1
00243b 9509      	ICALL
00243c 9508      	RET
                 
                 ;OPTIMIZER ADDED SUBROUTINE, CALLED 6 TIMES, CODE SIZE REDUCTION:7 WORDS
                 SUBOPT_0x42:
00243d 85aa      	LDD  R26,Y+10
00243e 85bb      	LDD  R27,Y+10+1
00243f 91ac      	LD   R26,X
002440 30a0      	CPI  R26,0
002441 9508      	RET
                 
                 ;OPTIMIZER ADDED SUBROUTINE, CALLED 3 TIMES, CODE SIZE REDUCTION:13 WORDS
                 SUBOPT_0x43:
002442 85ee      	LDD  R30,Y+14
002443 85ff      	LDD  R31,Y+14+1
002444 9734      	SBIW R30,4
002445 87ee      	STD  Y+14,R30
002446 87ff      	STD  Y+14+1,R31
002447 85ae      	LDD  R26,Y+14
002448 85bf      	LDD  R27,Y+14+1
002449 9614      	ADIW R26,4
00244a 910d      	LD   R16,X+
00244b 911c      	LD   R17,X
00244c 9508      	RET
                 
                 ;OPTIMIZER ADDED SUBROUTINE, CALLED 2 TIMES, CODE SIZE REDUCTION:1 WORDS
                 SUBOPT_0x44:
00244d 01de      	MOVW R26,R28
00244e 9617      	ADIW R26,7
00244f 940e 2465 	CALL __ADDW2R15
002451 940e 24ca 	CALL __GETW1P
002453 9508      	RET
                 
                 ;OPTIMIZER ADDED SUBROUTINE, CALLED 2 TIMES, CODE SIZE REDUCTION:1 WORDS
                 SUBOPT_0x45:
002454 81ec      	LDD  R30,Y+4
002455 81fd      	LDD  R31,Y+4+1
002456 93fa      	ST   -Y,R31
002457 93ea      	ST   -Y,R30
002458 81ac      	LDD  R26,Y+4
002459 81bd      	LDD  R27,Y+4+1
00245a 9508      	RET
                 
                 
                 	.CSEG
                 _delay_ms:
00245b 9610      	adiw r26,0
00245c f039      	breq __delay_ms1
                 __delay_ms0:
00245d 95a8      	wdr
                +
00245e ed80     +LDI R24 , LOW ( 0x7D0 )
00245f e097     +LDI R25 , HIGH ( 0x7D0 )
                +__DELAY_USW_LOOP :
002460 9701     +SBIW R24 , 1
002461 f7f1     +BRNE __DELAY_USW_LOOP
                 	__DELAY_USW 0x7D0
002462 9711      	sbiw r26,1
002463 f7c9      	brne __delay_ms0
                 __delay_ms1:
002464 9508      	ret
                 
                 __ADDW2R15:
002465 2400      	CLR  R0
002466 0daf      	ADD  R26,R15
002467 1db0      	ADC  R27,R0
002468 9508      	RET
                 
                 __SUBD21:
002469 1bae      	SUB  R26,R30
00246a 0bbf      	SBC  R27,R31
00246b 0b86      	SBC  R24,R22
00246c 0b97      	SBC  R25,R23
00246d 9508      	RET
                 
                 __ANEGW1:
00246e 95f1      	NEG  R31
00246f 95e1      	NEG  R30
002470 40f0      	SBCI R31,0
002471 9508      	RET
                 
                 __LSLB12:
002472 23ee      	TST  R30
002473 2e0e      	MOV  R0,R30
002474 2fea      	MOV  R30,R26
002475 f019      	BREQ __LSLB12R
                 __LSLB12L:
002476 0fee      	LSL  R30
002477 940a      	DEC  R0
002478 f7e9      	BRNE __LSLB12L
                 __LSLB12R:
002479 9508      	RET
                 
                 __LSRB12:
00247a 23ee      	TST  R30
00247b 2e0e      	MOV  R0,R30
00247c 2fea      	MOV  R30,R26
00247d f019      	BREQ __LSRB12R
                 __LSRB12L:
00247e 95e6      	LSR  R30
00247f 940a      	DEC  R0
002480 f7e9      	BRNE __LSRB12L
                 __LSRB12R:
002481 9508      	RET
                 
                 __LSLW12:
002482 23ee      	TST  R30
002483 2e0e      	MOV  R0,R30
002484 01fd      	MOVW R30,R26
002485 f021      	BREQ __LSLW12R
                 __LSLW12L:
002486 0fee      	LSL  R30
002487 1fff      	ROL  R31
002488 940a      	DEC  R0
002489 f7e1      	BRNE __LSLW12L
                 __LSLW12R:
00248a 9508      	RET
                 
                 __CWD1:
00248b 2f6f      	MOV  R22,R31
00248c 0f66      	ADD  R22,R22
00248d 0b66      	SBC  R22,R22
00248e 2f76      	MOV  R23,R22
00248f 9508      	RET
                 
                 __NEW12:
002490 17ea      	CP   R30,R26
002491 07fb      	CPC  R31,R27
002492 e0e1      	LDI  R30,1
002493 f409      	BRNE __NEW12T
002494 27ee      	CLR  R30
                 __NEW12T:
002495 9508      	RET
                 
                 __GTW12:
002496 17ea      	CP   R30,R26
002497 07fb      	CPC  R31,R27
002498 e0e1      	LDI  R30,1
002499 f00c      	BRLT __GTW12T
00249a 27ee      	CLR  R30
                 __GTW12T:
00249b 9508      	RET
                 
                 __MULW12U:
00249c 9ffa      	MUL  R31,R26
00249d 2df0      	MOV  R31,R0
00249e 9feb      	MUL  R30,R27
00249f 0df0      	ADD  R31,R0
0024a0 9fea      	MUL  R30,R26
0024a1 2de0      	MOV  R30,R0
0024a2 0df1      	ADD  R31,R1
0024a3 9508      	RET
                 
                 __DIVW21U:
0024a4 2400      	CLR  R0
0024a5 2411      	CLR  R1
0024a6 e190      	LDI  R25,16
                 __DIVW21U1:
0024a7 0faa      	LSL  R26
0024a8 1fbb      	ROL  R27
0024a9 1c00      	ROL  R0
0024aa 1c11      	ROL  R1
0024ab 1a0e      	SUB  R0,R30
0024ac 0a1f      	SBC  R1,R31
0024ad f418      	BRCC __DIVW21U2
0024ae 0e0e      	ADD  R0,R30
0024af 1e1f      	ADC  R1,R31
0024b0 c001      	RJMP __DIVW21U3
                 __DIVW21U2:
0024b1 60a1      	SBR  R26,1
                 __DIVW21U3:
0024b2 959a      	DEC  R25
0024b3 f799      	BRNE __DIVW21U1
0024b4 01fd      	MOVW R30,R26
0024b5 01d0      	MOVW R26,R0
0024b6 9508      	RET
                 
                 __DIVW21:
0024b7 d004      	RCALL __CHKSIGNW
0024b8 dfeb      	RCALL __DIVW21U
0024b9 f40e      	BRTC __DIVW211
0024ba dfb3      	RCALL __ANEGW1
                 __DIVW211:
0024bb 9508      	RET
                 
                 __CHKSIGNW:
0024bc 94e8      	CLT
0024bd fff7      	SBRS R31,7
0024be c002      	RJMP __CHKSW1
0024bf dfae      	RCALL __ANEGW1
0024c0 9468      	SET
                 __CHKSW1:
0024c1 ffb7      	SBRS R27,7
0024c2 c006      	RJMP __CHKSW2
0024c3 95a0      	COM  R26
0024c4 95b0      	COM  R27
0024c5 9611      	ADIW R26,1
0024c6 f800      	BLD  R0,0
0024c7 9403      	INC  R0
0024c8 fa00      	BST  R0,0
                 __CHKSW2:
0024c9 9508      	RET
                 
                 __GETW1P:
0024ca 91ed      	LD   R30,X+
0024cb 91fc      	LD   R31,X
0024cc 9711      	SBIW R26,1
0024cd 9508      	RET
                 
                 __GETW1PF:
0024ce 9005      	LPM  R0,Z+
0024cf 91f4      	LPM  R31,Z
0024d0 2de0      	MOV  R30,R0
0024d1 9508      	RET
                 
                 __GETD1S0:
0024d2 81e8      	LD   R30,Y
0024d3 81f9      	LDD  R31,Y+1
0024d4 816a      	LDD  R22,Y+2
0024d5 817b      	LDD  R23,Y+3
0024d6 9508      	RET
                 
                 __PUTD1S0:
0024d7 83e8      	ST   Y,R30
0024d8 83f9      	STD  Y+1,R31
0024d9 836a      	STD  Y+2,R22
0024da 837b      	STD  Y+3,R23
0024db 9508      	RET
                 
                 __PUTPARD1L:
0024dc e060      	LDI  R22,0
0024dd e070      	LDI  R23,0
                 __PUTPARD1:
0024de 937a      	ST   -Y,R23
0024df 936a      	ST   -Y,R22
0024e0 93fa      	ST   -Y,R31
0024e1 93ea      	ST   -Y,R30
0024e2 9508      	RET
                 
                 __EEPROMRDB:
0024e3 99e1      	SBIC EECR,EEWE
0024e4 cffe      	RJMP __EEPROMRDB
0024e5 93ff      	PUSH R31
0024e6 b7ff      	IN   R31,SREG
0024e7 94f8      	CLI
0024e8 bbae      	OUT  EEARL,R26
0024e9 bbbf      	OUT  EEARH,R27
0024ea 9ae0      	SBI  EECR,EERE
0024eb b3ed      	IN   R30,EEDR
0024ec bfff      	OUT  SREG,R31
0024ed 91ff      	POP  R31
0024ee 9508      	RET
                 
                 __EEPROMWRB:
0024ef 9be1      	SBIS EECR,EEWE
0024f0 c002      	RJMP __EEPROMWRB1
0024f1 95a8      	WDR
0024f2 cffc      	RJMP __EEPROMWRB
                 __EEPROMWRB1:
0024f3 b79f      	IN   R25,SREG
0024f4 94f8      	CLI
0024f5 bbae      	OUT  EEARL,R26
0024f6 bbbf      	OUT  EEARH,R27
0024f7 9ae0      	SBI  EECR,EERE
0024f8 b38d      	IN   R24,EEDR
0024f9 17e8      	CP   R30,R24
0024fa f019      	BREQ __EEPROMWRB0
0024fb bbed      	OUT  EEDR,R30
0024fc 9ae2      	SBI  EECR,EEMWE
0024fd 9ae1      	SBI  EECR,EEWE
                 __EEPROMWRB0:
0024fe bf9f      	OUT  SREG,R25
0024ff 9508      	RET
                 
                 __CPW02:
002500 2400      	CLR  R0
002501 160a      	CP   R0,R26
002502 060b      	CPC  R0,R27
002503 9508      	RET
                 
                 __CPD21:
002504 17ae      	CP   R26,R30
002505 07bf      	CPC  R27,R31
002506 0786      	CPC  R24,R22
002507 0797      	CPC  R25,R23
002508 9508      	RET
                 
                 __SAVELOCR6:
002509 935a      	ST   -Y,R21
                 __SAVELOCR5:
00250a 934a      	ST   -Y,R20
                 __SAVELOCR4:
00250b 933a      	ST   -Y,R19
                 __SAVELOCR3:
00250c 932a      	ST   -Y,R18
                 __SAVELOCR2:
00250d 931a      	ST   -Y,R17
00250e 930a      	ST   -Y,R16
00250f 9508      	RET
                 
                 __LOADLOCR6:
002510 815d      	LDD  R21,Y+5
                 __LOADLOCR5:
002511 814c      	LDD  R20,Y+4
                 __LOADLOCR4:
002512 813b      	LDD  R19,Y+3
                 __LOADLOCR3:
002513 812a      	LDD  R18,Y+2
                 __LOADLOCR2:
002514 8119      	LDD  R17,Y+1
002515 8108      	LD   R16,Y
002516 9508      	RET
                 
                 __INITLOCB:
                 __INITLOCW:
002517 0fac      	ADD  R26,R28
002518 1fbd      	ADC  R27,R29
                 __INITLOC0:
002519 9005      	LPM  R0,Z+
00251a 920d      	ST   X+,R0
00251b 958a      	DEC  R24
00251c f7e1      	BRNE __INITLOC0
00251d 9508      	RET
                 
                 ;END OF CODE MARKER
                 __END_OF_CODE:


RESOURCE USE INFORMATION
------------------------

Notice:
The register and instruction counts are symbol table hit counts,
and hence implicitly used resources are not counted, eg, the
'lpm' instruction without operands implicitly uses r0 and z,
none of which are counted.

x,y,z are separate entities in the symbol table and are
counted separately from r26..r31 here.

.dseg memory usage only counts static data declared with .byte

ATmega64A register use summary:
r0 :  64 r1 :  17 r2 :   7 r3 :   0 r4 :   0 r5 :   0 r6 :   0 r7 :   0 
r8 :   0 r9 :   0 r10:   0 r11:   0 r12:   0 r13:   0 r14:   0 r15:  22 
r16: 130 r17: 165 r18:  85 r19:  80 r20:  68 r21:  77 r22:  57 r23:  33 
r24:  43 r25:  15 r26: 614 r27: 279 r28:  88 r29:   4 r30:1344 r31: 401 
x  :  64 y  : 905 z  :  44 
Registers used: 23 out of 35 (65.7%)

ATmega64A instruction use summary:
.lds  :   0 .lds.l:   0 .sts  :   0 .sts.l:   0 adc   :  28 add   :  40 
adiw  :  94 and   :  10 andi  :  24 asr   :   0 bclr  :   0 bld   :  13 
brbc  :   0 brbs  :   0 brcc  :   1 brcs  :   4 break :   0 breq  :  95 
brge  :  11 brhc  :   0 brhs  :   0 brid  :   0 brie  :   0 brlo  :  26 
brlt  :  10 brmi  :   1 brne  : 139 brpl  :   1 brsh  :  33 brtc  :   2 
brts  :   0 brvc  :   0 brvs  :   0 bset  :   0 bst   :   1 call  : 449 
cbi   :   0 cbr   :   0 clc   :   0 clh   :   0 cli   :   5 cln   :   0 
clr   :  45 cls   :   0 clt   :   8 clv   :   0 clz   :   0 com   :  12 
cp    :  44 cpc   :  41 cpi   : 196 cpse  :   0 dec   :   6 des   :   0 
eor   :   1 fmul  :   0 fmuls :   0 fmulsu:   0 icall :   5 ijmp  :   0 
in    :  30 inc   :   5 jmp   :  71 ld    :  98 ldd   : 411 ldi   : 679 
lds   :  85 lpm   :  40 lsl   :   9 lsr   :  15 mov   : 141 movw  : 102 
mul   :   6 muls  :   0 mulsu :   0 neg   :   2 nop   :   2 or    :  10 
ori   :  23 out   :  61 pop   :  29 push  :  29 rcall :  64 ret   : 126 
reti  :   2 rjmp  : 263 rol   :   7 ror   :   0 sbc   :   6 sbci  :  40 
sbi   :   4 sbic  :   2 sbis  :   2 sbiw  :  67 sbr   :   1 sbrc  :   5 
sbrs  :  16 sec   :   0 seh   :   0 sei   :   3 sen   :   0 ser   :   0 
ses   :   0 set   :   7 sev   :   0 sez   :   0 sleep :   0 spm   :   0 
st    : 362 std   : 117 sts   :  95 sub   :   9 subi  :  97 swap  :   1 
tst   :  17 wdr   :   2 
Instructions used: 73 out of 116 (62.9%)

ATmega64A memory use summary [bytes]:
Segment   Begin    End      Code   Data   Used    Size   Use%
---------------------------------------------------------------
[.cseg] 0x000000 0x004a3c  10388   8616  19004   65536  29.0%
[.dseg] 0x000100 0x000c2f      0   1839   1839    4096  44.9%
[.eseg] 0x000000 0x000000      0      0      0    2048   0.0%

Assembly complete, 0 errors, 12 warnings
